LX51 LINKER/LOCATER V4.66.97.0                                                          05/18/2025  17:01:21  PAGE 1


LX51 LINKER/LOCATER V4.66.97.0, INVOKED BY:
C:\KEIL_V5\C51\BIN\LX51.EXE .\Objects\STARTUP_CMS8S6990.obj, .\Objects\main.obj, .\Objects\gpio.obj, .\Objects\ADCCfg.ob
>> j, .\Objects\delay.obj, .\Objects\NTC.obj, .\Objects\SideKey.obj, .\Objects\LEDMgmt.obj, .\Objects\PWM.obj, .\Objects
>> \OutputChannel.obj, .\Objects\Flash.obj, .\Objects\BattVoltDisplay.obj, .\Objects\TempControl.obj, .\Objects\Sleep.ob
>> j, .\Objects\ModeControl.obj, .\Objects\SelfTest.obj, .\Objects\SOS.obj, .\Objects\LowVoltageProt.obj, .\Objects\Spec
>> ialMode.obj, .\Objects\Beacon.obj, .\Objects\SysConfig.obj, .\Objects\LocateLED.obj, .\Objects\Strobe.obj TO .\Object
>> s\XTRBoost PRINT (.\Listings\XTRBoost.map) CLASSES (XDATA (X:0X0-X:0X3FF), HDATA (X:0X0-X:0X3FF), CODE (C:0X0-C:0X3FF
>> F), CONST (C:0X0-C:0X3FFF), ECODE (C:0X0-C:0X3FFF), HCONST (C:0X0-C:0X3FFF))


CPU MODE:     8051 MODE
MEMORY MODEL: SMALL WITH FLOATING POINT ARITHMETIC


INPUT MODULES INCLUDED:
  .\Objects\STARTUP_CMS8S6990.obj (?C_STARTUP)
         COMMENT TYPE 0: AX51 V3.15.3.0
  .\Objects\main.obj (MAIN)
         COMMENT TYPE 0: C51 V9.60.0.0
  .\Objects\gpio.obj (GPIO)
         COMMENT TYPE 0: C51 V9.60.0.0
  .\Objects\ADCCfg.obj (ADCCFG)
         COMMENT TYPE 0: C51 V9.60.0.0
  .\Objects\delay.obj (DELAY)
         COMMENT TYPE 0: C51 V9.60.0.0
  .\Objects\NTC.obj (NTC)
         COMMENT TYPE 0: C51 V9.60.0.0
  .\Objects\SideKey.obj (SIDEKEY)
         COMMENT TYPE 0: C51 V9.60.0.0
  .\Objects\LEDMgmt.obj (LEDMGMT)
         COMMENT TYPE 0: C51 V9.60.0.0
  .\Objects\PWM.obj (PWM)
         COMMENT TYPE 0: C51 V9.60.0.0
  .\Objects\OutputChannel.obj (OUTPUTCHANNEL)
         COMMENT TYPE 0: C51 V9.60.0.0
  .\Objects\Flash.obj (FLASH)
         COMMENT TYPE 0: C51 V9.60.0.0
  .\Objects\BattVoltDisplay.obj (BATTVOLTDISPLAY)
         COMMENT TYPE 0: C51 V9.60.0.0
  .\Objects\TempControl.obj (TEMPCONTROL)
         COMMENT TYPE 0: C51 V9.60.0.0
  .\Objects\Sleep.obj (SLEEP)
         COMMENT TYPE 0: C51 V9.60.0.0
  .\Objects\ModeControl.obj (MODECONTROL)
         COMMENT TYPE 0: C51 V9.60.0.0
  .\Objects\SelfTest.obj (SELFTEST)
         COMMENT TYPE 0: C51 V9.60.0.0
  .\Objects\SOS.obj (SOS)
         COMMENT TYPE 0: C51 V9.60.0.0
  .\Objects\LowVoltageProt.obj (LOWVOLTAGEPROT)
         COMMENT TYPE 0: C51 V9.60.0.0
  .\Objects\SpecialMode.obj (SPECIALMODE)
         COMMENT TYPE 0: C51 V9.60.0.0
  .\Objects\Beacon.obj (BEACON)
         COMMENT TYPE 0: C51 V9.60.0.0
  .\Objects\SysConfig.obj (SYSCONFIG)
         COMMENT TYPE 0: C51 V9.60.0.0
  .\Objects\LocateLED.obj (LOCATELED)
         COMMENT TYPE 0: C51 V9.60.0.0
  .\Objects\Strobe.obj (STROBE)
         COMMENT TYPE 0: C51 V9.60.0.0
  C:\KEIL_V5\C51\LIB\C51FPS.LIB (?C?FPADD)
         COMMENT TYPE 1: A51 / ASM51 Assembler
  C:\KEIL_V5\C51\LIB\C51FPS.LIB (?C?FPMUL)
         COMMENT TYPE 1: A51 / ASM51 Assembler
  C:\KEIL_V5\C51\LIB\C51FPS.LIB (?C?FPDIV)
LX51 LINKER/LOCATER V4.66.97.0                                                        05/18/2025  17:01:21  PAGE 2


         COMMENT TYPE 1: A51 / ASM51 Assembler
  C:\KEIL_V5\C51\LIB\C51FPS.LIB (?C?FPCMP)
         COMMENT TYPE 1: A51 / ASM51 Assembler
  C:\KEIL_V5\C51\LIB\C51FPS.LIB (?C?FCAST)
         COMMENT TYPE 1: A51 / ASM51 Assembler
  C:\KEIL_V5\C51\LIB\C51FPS.LIB (?C?CASTF)
         COMMENT TYPE 1: A51 / ASM51 Assembler
  C:\KEIL_V5\C51\LIB\C51FPS.LIB (?C?FPGETOPN)
         COMMENT TYPE 1: A51 / ASM51 Assembler
  C:\KEIL_V5\C51\LIB\C51S.LIB (?C_INIT)
         COMMENT TYPE 1: A51 / ASM51 Assembler
  C:\KEIL_V5\C51\LIB\C51S.LIB (?C?SCDIV)
         COMMENT TYPE 1: A51 / ASM51 Assembler
  C:\KEIL_V5\C51\LIB\C51S.LIB (?C?CLDPTR)
         COMMENT TYPE 1: A51 / ASM51 Assembler
  C:\KEIL_V5\C51\LIB\C51S.LIB (?C?CLDOPTR)
         COMMENT TYPE 1: A51 / ASM51 Assembler
  C:\KEIL_V5\C51\LIB\C51S.LIB (?C?CSTPTR)
         COMMENT TYPE 1: A51 / ASM51 Assembler
  C:\KEIL_V5\C51\LIB\C51S.LIB (?C?IMUL)
         COMMENT TYPE 1: A51 / ASM51 Assembler
  C:\KEIL_V5\C51\LIB\C51S.LIB (?C?SIDIV)
         COMMENT TYPE 1: A51 / ASM51 Assembler
  C:\KEIL_V5\C51\LIB\C51S.LIB (?C?ILDOPTR)
         COMMENT TYPE 1: A51 / ASM51 Assembler
  C:\KEIL_V5\C51\LIB\C51S.LIB (?C?ISTPTR)
         COMMENT TYPE 1: A51 / ASM51 Assembler
  C:\KEIL_V5\C51\LIB\C51S.LIB (?C?LMUL)
         COMMENT TYPE 1: A51 / ASM51 Assembler
  C:\KEIL_V5\C51\LIB\C51S.LIB (?C?ULDIV)
         COMMENT TYPE 1: A51 / ASM51 Assembler
  C:\KEIL_V5\C51\LIB\C51S.LIB (?C?SLDIV)
         COMMENT TYPE 1: A51 / ASM51 Assembler
  C:\KEIL_V5\C51\LIB\C51S.LIB (?C?LNEG)
         COMMENT TYPE 1: A51 / ASM51 Assembler
  C:\KEIL_V5\C51\LIB\C51S.LIB (?C?SLCMP)
         COMMENT TYPE 1: A51 / ASM51 Assembler
  C:\KEIL_V5\C51\LIB\C51S.LIB (?C?ULCMP)
         COMMENT TYPE 1: A51 / ASM51 Assembler
  C:\KEIL_V5\C51\LIB\C51S.LIB (?C?ULSHR)
         COMMENT TYPE 1: A51 / ASM51 Assembler
  C:\KEIL_V5\C51\LIB\C51S.LIB (?C?LLDCODE)
         COMMENT TYPE 1: A51 / ASM51 Assembler
  C:\KEIL_V5\C51\LIB\C51S.LIB (?C?LSTXDATA)
         COMMENT TYPE 1: A51 / ASM51 Assembler
  C:\KEIL_V5\C51\LIB\C51S.LIB (?C?LSTKXDATA)
         COMMENT TYPE 1: A51 / ASM51 Assembler
  C:\KEIL_V5\C51\LIB\C51S.LIB (?C?OFFXADD)
         COMMENT TYPE 1: A51 / ASM51 Assembler
  C:\KEIL_V5\C51\LIB\C51S.LIB (?C?UIDIV)
         COMMENT TYPE 1: A51 / ASM51 Assembler


ACTIVE MEMORY CLASSES OF MODULE:  .\Objects\XTRBoost (?C_STARTUP)

BASE        START       END         USED      MEMORY CLASS
==========================================================
X:000000H   X:000000H   X:0003FFH   000052H   XDATA
X:000000H   X:000000H   X:0003FFH             HDATA
C:000000H   C:000000H   C:003FFFH   003E1DH   CODE
C:000000H   C:000000H   C:003FFFH   0001DCH   CONST
C:000000H   C:000000H   C:003FFFH             ECODE
C:000000H   C:000000H   C:003FFFH             HCONST
I:000000H   I:000000H   I:0000FFH   000001H   IDATA
I:000020H.0 I:000020H.0 I:00002FH.7 000003H.7 BIT
LX51 LINKER/LOCATER V4.66.97.0                                                        05/18/2025  17:01:21  PAGE 3


I:000000H   I:000000H   I:00007FH   00005EH   DATA


MEMORY MAP OF MODULE:  .\Objects\XTRBoost (?C_STARTUP)


START     STOP      LENGTH    ALIGN  RELOC    MEMORY CLASS   SEGMENT NAME
=========================================================================

* * * * * * * * * * *   D A T A   M E M O R Y   * * * * * * * * * * * * *
000000H   000007H   000008H   ---    AT..     DATA           "REG BANK 0"
000008H   00001FH   000018H   BYTE   UNIT     DATA           ?DT?ADCCFG
000020H.0 000020H.5 000000H.6 BIT    UNIT     BIT            _BIT_GROUP_
000020H.6 000021H.2 000000H.5 BIT    UNIT     BIT            ?BI?TEMPCONTROL
000021H.3 000021H.6 000000H.4 BIT    UNIT     BIT            ?BI?DELAY
000021H.7 000022H.2 000000H.4 BIT    UNIT     BIT            ?BI?PWM
000022H.3 000022H.5 000000H.3 BIT    UNIT     BIT            ?BI?MODECONTROL
000022H.6 000022H.7 000000H.2 BIT    UNIT     BIT            ?BI?OUTPUTCHANNEL
000023H.0 000023H.1 000000H.2 BIT    UNIT     BIT            ?BI?BATTVOLTDISPLAY
000023H.2 000023H.2 000000H.1 BIT    UNIT     BIT            ?BI?SIDEKEY
000023H.3 000023H.3 000000H.1 BIT    UNIT     BIT            ?BI?LEDMGMT
000023H.4 000023H.4 000000H.1 BIT    UNIT     BIT            ?BI?SELFTEST
000023H.5 000023H.5 000000H.1 BIT    UNIT     BIT            ?BI?SPECIALMODE
000023H.6 000023H.6 000000H.1 BIT    UNIT     BIT            ?BI?STROBE
000023H.7 000023H   000000H.1 ---    ---      **GAP**
000024H   000043H   000020H   BYTE   UNIT     DATA           _DATA_GROUP_
000044H   00004FH   00000CH   BYTE   UNIT     DATA           ?DT?MODECONTROL
000050H   000055H   000006H   BYTE   UNIT     DATA           ?DT?SIDEKEY
000056H   000058H   000003H   BYTE   UNIT     DATA           ?DT?BATTVOLTDISPLAY
000059H   00005AH   000002H   BYTE   UNIT     DATA           ?DT?LEDMGMT
00005BH   00005CH   000002H   BYTE   UNIT     DATA           ?DT?TEMPCONTROL
00005DH   00005EH   000002H   BYTE   UNIT     DATA           ?DT?SLEEP
00005FH   00005FH   000001H   BYTE   UNIT     DATA           ?DT?LOWVOLTAGEPROT
000060H   000060H   000001H   BYTE   UNIT     DATA           ?DT?SPECIALMODE
000061H   000061H   000001H   BYTE   UNIT     DATA           ?DT?LOCATELED
000062H   000062H   000001H   BYTE   UNIT     IDATA          ?STACK

* * * * * * * * * * *   C O D E   M E M O R Y   * * * * * * * * * * * * *
000000H   000002H   000003H   ---    OFFS..   CODE           ?CO?STARTUP_CMS8S6990?3
000003H   000009H   000007H   BYTE   UNIT     CODE           ?PR?GETSIDEKEYHOLDEVENT?SIDEKEY
00000AH   00000AH   000001H   ---    ---      **GAP**
00000BH   00000DH   000003H   BYTE   OFFS..   CODE           ?DELAY?0000B
00000EH   000028H   00001BH   BYTE   UNIT     CODE           ?PR?GETSIDEKEYNCLICKANDHOLDEVENT?SIDEKEY
000029H   00002AH   000002H   ---    ---      **GAP**
00002BH   00002DH   000003H   BYTE   OFFS..   CODE           ?DELAY?0002B
00002EH   00003AH   00000DH   BYTE   UNIT     CODE           ?PR?TIMER2_IRQHANDLER?DELAY
00003BH   00003DH   000003H   BYTE   OFFS..   CODE           ?SIDEKEY?0003B
00003EH   00073FH   000702H   BYTE   UNIT     CODE           ?C?LIB_CODE
000740H   000A97H   000358H   BYTE   UNIT     CODE           ?PR?OUTPUTCHANNEL_CALC?OUTPUTCHANNEL
000A98H   000DD2H   00033BH   BYTE   UNIT     CODE           ?PR?MODESWITCHFSM?MODECONTROL
000DD3H   00109FH   0002CDH   BYTE   UNIT     CODE           ?PR?_GPIO_CONFIGGPIOMODE?GPIO
0010A0H   00122CH   00018DH   BYTE   UNIT     CODE           ?PR?THERMALPILOOPCALC?TEMPCONTROL
00122DH   001371H   000145H   BYTE   UNIT     CODE           ?PR?_ADC_WRITEOUTPUTBUF?ADCCFG
001372H   0014A6H   000135H   BYTE   UNIT     CODE           ?PR?BATVSHOWFSM?BATTVOLTDISPLAY
0014A7H   0015D1H   00012BH   BYTE   UNIT     CODE           ?PR?OUTPUTFAULTDETECT?SELFTEST
0015D2H   0016F8H   000127H   BYTE   UNIT     CODE           ?PR?BATTDISPLAYTIM?BATTVOLTDISPLAY
0016F9H   001803H   00010BH   BYTE   UNIT     CODE           ?PR?PWM_OUTPUTCTRLHANDLER?PWM
001804H   0018F4H   0000F1H   BYTE   UNIT     CODE           ?PR?RAMPLOWVOLTHANDLER?LOWVOLTAGEPROT
0018F5H   0019E4H   0000F0H   BYTE   UNIT     CODE           ?PR?ADCENGINEHANDLER?ADCCFG
0019E5H   001AD1H   0000EDH   BYTE   UNIT     CODE           ?PR?_CALCNTCTEMP?NTC
001AD2H   001BBDH   0000ECH   BYTE   UNIT     CODE           ?PR?RAMPADJHANDLER?MODECONTROL
001BBEH   001CA1H   0000E4H   BYTE   UNIT     CODE           ?PR?LEDCONTROLHANDLER?LEDMGMT
001CA2H   001D6CH   0000CBH   BYTE   UNIT     CODE           ?PR?PWM_INIT?PWM
001D6DH   001E2AH   0000BEH   BYTE   UNIT     CODE           ?PR?SAVESYSCONFIG?SYSCONFIG
001E2BH   001EE2H   0000B8H   BYTE   UNIT     CODE           ?PR?_GPIO_WRITEBIT?GPIO
LX51 LINKER/LOCATER V4.66.97.0                                                        05/18/2025  17:01:21  PAGE 4


001EE3H   001F98H   0000B6H   BYTE   UNIT     CODE           ?PR?_DELAY_MS?DELAY
001F99H   00204AH   0000B2H   BYTE   UNIT     CODE           ?PR?ADC_INIT?ADCCFG
00204BH   0020F3H   0000A9H   BYTE   UNIT     CODE           ?PR?_ADC_READBACKRESULT?ADCCFG
0020F4H   002198H   0000A5H   BYTE   UNIT     CODE           ?PR?GPIO
002199H   002238H   0000A0H   BYTE   UNIT     CODE           ?PR?BATTERYSTATEFSM?BATTVOLTDISPLAY
002239H   0022D4H   00009CH   BYTE   UNIT     CODE           ?PR?SIDEKEY_LOGICHANDLER?SIDEKEY
0022D5H   00236FH   00009BH   BYTE   UNIT     CODE           ?PR?_SEARCHSYSCONFIG?SYSCONFIG
002370H   002409H   00009AH   BYTE   UNIT     CODE           ?C_C51STARTUP
00240AH   0024A0H   000097H   BYTE   UNIT     CODE           ?PR?_GPIO_GETEXTINTMODE?GPIO
0024A1H   002534H   000094H   BYTE   UNIT     CODE           ?PR?MODEFSMINIT?MODECONTROL
002535H   0025C5H   000091H   BYTE   UNIT     CODE           ?PR?BATTERYTELEMHANDLER?BATTVOLTDISPLAY
0025C6H   002655H   000090H   BYTE   UNIT     CODE           ?PR?TURBOLVILIMPROCESS?LOWVOLTAGEPROT
002656H   0026E3H   00008EH   BYTE   UNIT     CODE           ?PR?READSYSCONFIG?SYSCONFIG
0026E4H   002770H   00008DH   BYTE   UNIT     CODE           ?PR?_SWITCHTOGEAR?MODECONTROL
002771H   0027FCH   00008CH   BYTE   UNIT     CODE           ?PR?ADC_DEINIT?ADCCFG
0027FDH   002884H   000088H   BYTE   UNIT     CODE           ?PR?THERMALMGMTPROCESS?TEMPCONTROL
002885H   002903H   00007FH   BYTE   UNIT     CODE           ?PR?OUTPUTCHANNEL_TESTRUN?OUTPUTCHANNEL
002904H   002982H   00007FH   BYTE   UNIT     CODE           ?PR?_SPECIALMODEOPERATION?SPECIALMODE
002983H   0029FEH   00007CH   BYTE   UNIT     CODE           ?PR?LED_INIT?LEDMGMT
0029FFH   002A77H   000079H   BYTE   UNIT     CODE           ?PR?MAIN?MAIN
002A78H   002AECH   000075H   BYTE   UNIT     CODE           ?PR?_LOCATELED_EDIT?LOCATELED
002AEDH   002B5FH   000073H   BYTE   UNIT     CODE           ?PR?SOSFSM?SOS
002B60H   002BD1H   000072H   BYTE   UNIT     CODE           ?PR?_GPIO_SETMUXMODE?GPIO
002BD2H   002C42H   000071H   BYTE   UNIT     CODE           ?PR?SHOWTHERMALSTEPDOWN?TEMPCONTROL
002C43H   002CB1H   00006FH   BYTE   UNIT     CODE           ?PR?DISPLAYERRORIDHANDLER?SELFTEST
002CB2H   002D1DH   00006CH   BYTE   UNIT     CODE           ?PR?BATTVOLTDISPLAY
002D1EH   002D88H   00006BH   BYTE   UNIT     CODE           ?PR?HOLDSWITCHGEARCMDHANDLER?MODECONTROL
002D89H   002DF1H   000069H   BYTE   UNIT     CODE           ?PR?THERMALILIMCALC?TEMPCONTROL
002DF2H   002E5AH   000069H   BYTE   UNIT     CODE           ?PR?SLEEPMGMT?SLEEP
002E5BH   002EC1H   000067H   BYTE   UNIT     CODE           ?PR?OUTPUTCHANNEL
002EC2H   002F25H   000064H   BYTE   UNIT     CODE           ?PR?SIDEKEY_INT_CALLBACK?SIDEKEY
002F26H   002F88H   000063H   BYTE   UNIT     CODE           ?PR?MODECONTROL
002F89H   002FE9H   000061H   BYTE   UNIT     CODE           ?PR?ADCCFG
002FEAH   003044H   00005BH   BYTE   UNIT     CODE           ?PR?_GPIO_SETEXTINTMODE?GPIO
003045H   00309CH   000058H   BYTE   UNIT     CODE           ?PR?_VSHOWGENERATESIDESTROBE?BATTVOLTDISPLAY
00309DH   0030F2H   000056H   BYTE   UNIT     CODE           ?PR?_BATTERYLOWALERTPROCESS?LOWVOLTAGEPROT
0030F3H   003143H   000051H   BYTE   UNIT     CODE           ?PR?_DUTY_CALC?OUTPUTCHANNEL
003144H   003194H   000051H   BYTE   UNIT     CODE           ?PR?BEACONFSM?BEACON
003195H   0031E3H   00004FH   BYTE   UNIT     CODE           ?PR?_RECALCPILOOP?TEMPCONTROL
0031E4H   003232H   00004FH   BYTE   UNIT     CODE           ?PR?TEMPCONTROL
003233H   00327FH   00004DH   BYTE   UNIT     CODE           ?PR?KEY_IRQHANDLER?SIDEKEY
003280H   0032CBH   00004CH   BYTE   UNIT     CODE           ?PR?_ADC_SUBMITMISSON?ADCCFG
0032CCH   003312H   000047H   BYTE   UNIT     CODE           ?PR?OCFSM_TIMHANDLER?OUTPUTCHANNEL
003313H   003358H   000046H   BYTE   UNIT     CODE           ?PR?_ENTERTURBOSTROBE?SPECIALMODE
003359H   00339CH   000044H   BYTE   UNIT     CODE           ?C?LDIV
00339DH   0033DFH   000043H   BYTE   UNIT     CODE           ?PR?OUTPUTCHANNEL_INIT?OUTPUTCHANNEL
0033E0H   003421H   000042H   BYTE   UNIT     CODE           ?PR?SIDEKEYINIT?SIDEKEY
003422H   003463H   000042H   BYTE   UNIT     CODE           ?PR?DISPLAYERRORTIMHANDLER?SELFTEST
003464H   0034A4H   000041H   BYTE   UNIT     CODE           ?PR?DISPLAYTACMODEENABLED?SPECIALMODE
0034A5H   0034E1H   00003DH   BYTE   UNIT     CODE           ?PR?SIDEKEY_TIM_CALLBACK?SIDEKEY
0034E2H   00351EH   00003DH   BYTE   UNIT     CODE           ?PR?DISPLAYVBATTATSTART?BATTVOLTDISPLAY
00351FH   003559H   00003BH   BYTE   UNIT     CODE           ?PR?BATTALERTTIMHANDLER?LOWVOLTAGEPROT
00355AH   003594H   00003BH   BYTE   UNIT     CODE           ?PR?LOCATELED_ENABLE?LOCATELED
003595H   0035CEH   00003AH   BYTE   UNIT     CODE           ?PR?_POWERTONORMALMODE?SPECIALMODE
0035CFH   003606H   000038H   BYTE   UNIT     CODE           ?PR?SETLEDBRIGHTNESS?LEDMGMT
003607H   00363CH   000036H   BYTE   UNIT     CODE           ?PR?PWM_FORCEENABLEOUT?PWM
00363DH   003672H   000036H   BYTE   UNIT     CODE           ?PR?LOCATELED_SHOWTYPE?LOCATELED
003673H   0036A7H   000035H   BYTE   UNIT     CODE           ?PR?ISERRORFATAL?SELFTEST
0036A8H   0036DAH   000033H   BYTE   UNIT     CODE           ?PR?RESTORETOMINIMUMSYSCURRENT?SYSCONFIG
0036DBH   00370DH   000033H   BYTE   UNIT     CODE           ?PR?RANDSTROBEHANDLER?STROBE
00370EH   00373EH   000031H   BYTE   UNIT     CODE           ?PR?_PEC8CHECK?SYSCONFIG
00373FH   00376DH   00002FH   BYTE   UNIT     CODE           ?PR?_FLASH_OPERATION?FLASH
00376EH   00379BH   00002EH   BYTE   UNIT     CODE           ?PR?_DETECTIFNEEDSOFF?MODECONTROL
00379CH   0037C8H   00002DH   BYTE   UNIT     CODE           ?PR?_VSHOWFSMGENTIMVALUE?BATTVOLTDISPLAY
0037C9H   0037F5H   00002DH   BYTE   UNIT     CODE           ?PR?LOWVOLTAGEPROT
LX51 LINKER/LOCATER V4.66.97.0                                                        05/18/2025  17:01:21  PAGE 5


0037F6H   003821H   00002CH   BYTE   UNIT     CODE           ?PR?_GPIO_CHECKIFINTENABLED?GPIO
003822H   00384BH   00002AH   BYTE   UNIT     CODE           ?PR?SETSYSTEMHBTIMER?DELAY
00384CH   003875H   00002AH   BYTE   UNIT     CODE           ?PR?NTC
003876H   00389FH   00002AH   BYTE   UNIT     CODE           ?PR?_MAKEFASTSTROBE?LEDMGMT
0038A0H   0038C9H   00002AH   BYTE   UNIT     CODE           ?PR?LOWPOWERSTROBE?BATTVOLTDISPLAY
0038CAH   0038F2H   000029H   BYTE   UNIT     CODE           ?PR?TEMPSCHMITTTRIGGER?TEMPCONTROL
0038F3H   00391BH   000029H   BYTE   UNIT     CODE           ?PR?MODEFSMTIMHANDLER?MODECONTROL
00391CH   003943H   000028H   BYTE   UNIT     CODE           ?PR?CALCTURBOILIM?LOWVOLTAGEPROT
003944H   00396AH   000027H   BYTE   UNIT     CODE           ?PR?_LEAVESPECIALMODE?SPECIALMODE
00396BH   003990H   000026H   BYTE   UNIT     CODE           ?PR?SELFTEST
003991H   0039B5H   000025H   BYTE   UNIT     CODE           ?PR?SPECIALMODE
0039B6H   0039DAH   000025H   BYTE   UNIT     CODE           ?PR?LOCATELED_TIMHANDLER?LOCATELED
0039DBH   0039FEH   000024H   BYTE   UNIT     CODE           ?PR?_SOSTIMDETECT?SOS
0039FFH   003A22H   000024H   BYTE   UNIT     CODE           ?PR?SYSCONFIG
003A23H   003A44H   000022H   BYTE   UNIT     CODE           ?PR?_GPIO_DISABLEINT?GPIO
003A45H   003A66H   000022H   BYTE   UNIT     CODE           ?PR?OUTPUTCHANNEL_DEINIT?OUTPUTCHANNEL
003A67H   003A88H   000022H   BYTE   UNIT     CODE           ?PR?RESETBATTAVG?BATTVOLTDISPLAY
003A89H   003AAAH   000022H   BYTE   UNIT     CODE           ?PR?QUERYISSYSTEMNOTALLOWTOSLEEP?SLEEP
003AABH   003ACBH   000021H   BYTE   UNIT     CODE           ?PR?SETLEDONOFF?LEDMGMT
003ACCH   003AECH   000021H   BYTE   UNIT     CODE           ?PR?SYSTEMPERIPHERALCTRL?SLEEP
003AEDH   003B0DH   000021H   BYTE   UNIT     CODE           ?C_INITSEG
003B0EH   003B2DH   000020H   BYTE   UNIT     CODE           ?PR?MARKASKEYPRESSED?SIDEKEY
003B2EH   003B4DH   000020H   BYTE   UNIT     CODE           ?PR?QUERYTURBOCURRENT?MODECONTROL
003B4EH   003B6CH   00001FH   BYTE   UNIT     CODE           ?PR?SETPOWERLEDBASEDONVBATT?BATTVOLTDISPLAY
003B6DH   003B8AH   00001EH   BYTE   UNIT     CODE           ?PR?_GPIO_ENABLEINT?GPIO
003B8BH   003BA5H   00001BH   BYTE   UNIT     CODE           ?PR?PWM_DEINIT?PWM
003BA6H   003BC0H   00001BH   BYTE   UNIT     CODE           ?PR?PWM
003BC1H   003BD9H   000019H   BYTE   UNIT     CODE           ?PR?TRIGGERVSHOWDISPLAY?BATTVOLTDISPLAY
003BDAH   003BF2H   000019H   BYTE   UNIT     CODE           ?PR?RETURNTOOFFSTATE?MODECONTROL
003BF3H   003C0AH   000018H   BYTE   UNIT     CODE           ?PR?GETSIDEKEYSHORTPRESSCOUNT?SIDEKEY
003C0BH   003C22H   000018H   BYTE   UNIT     CODE           ?PR?_REPORTERROR?SELFTEST
003C23H   003C3AH   000018H   BYTE   UNIT     CODE           ?PR?_ERRTIMCOUNTER?SELFTEST
003C3BH   003C50H   000016H   BYTE   UNIT     CODE           ?PR?GETIFOUTPUTENABLED?OUTPUTCHANNEL
003C51H   003C66H   000016H   BYTE   UNIT     CODE           ?PR?GETIFSYSTEMINPOFFSEQ?OUTPUTCHANNEL
003C67H   003C7CH   000016H   BYTE   UNIT     CODE           ?PR?_SIDEKEYSWITCHGEARHANDLER?MODECONTROL
003C7DH   003C91H   000015H   BYTE   UNIT     CODE           ?PR?ADC_SETVREF?ADCCFG
003C92H   003CA6H   000015H   BYTE   UNIT     CODE           ?PR?ENTEREXITLOCK?SPECIALMODE
003CA7H   003CBAH   000014H   BYTE   UNIT     CODE           ?PR?QUERYCONSTANTILED?TEMPCONTROL
003CBBH   003CCEH   000014H   BYTE   UNIT     CODE           ?PR?LOADSLEEPTIMER?SLEEP
003CCFH   003CE1H   000013H   BYTE   UNIT     CODE           ?PR?QUERYCONSTANTTEMP?TEMPCONTROL
003CE2H   003CF4H   000013H   BYTE   UNIT     CODE           ?PR?RAMPRESTORELVPROTTOMAX?LOWVOLTAGEPROT
003CF5H   003D07H   000013H   BYTE   UNIT     CODE           ?PR?BEACON
003D08H   003D19H   000012H   BYTE   UNIT     CODE           ?PR?DELAY_INIT?DELAY
003D1AH   003D2BH   000012H   BYTE   UNIT     CODE           ?PR?SOSTIMHANDLER?SOS
003D2CH   003D3DH   000012H   BYTE   UNIT     CODE           ?PR?BEACONFSM_RESET?BEACON
003D3EH   003D4EH   000011H   BYTE   UNIT     CODE           ?PR?SETFLASHSTATE?FLASH
003D4FH   003D5FH   000011H   BYTE   UNIT     CODE           ?PR?ENTEREXITTAC?SPECIALMODE
003D60H   003D6EH   00000FH   BYTE   UNIT     CODE           ?PR?UPLOADPWMVALUE?PWM
003D6FH   003D7CH   00000EH   BYTE   UNIT     CODE           ?PR?_CLICKANDHOLDEVENTHANDLER?SIDEKEY
003D7DH   003D8AH   00000EH   BYTE   UNIT     CODE           ?PR?_SIDEKEY1HREVGEARHANDLER?MODECONTROL
003D8BH   003D97H   00000DH   BYTE   UNIT     CODE           ?PR?ISKEYEVENTOCCURRED?SIDEKEY
003D98H   003DA4H   00000DH   BYTE   UNIT     CODE           ?PR?GETSIDEKEYLONGPRESSEVENT?SIDEKEY
003DA5H   003DB0H   00000CH   BYTE   UNIT     CODE           ?PR?_SOSFSM_JUMP?SOS
003DB1H   003DBBH   00000BH   BYTE   UNIT     CODE           ?PR?SIDEKEY
003DBCH   003DC5H   00000AH   BYTE   UNIT     CODE           ?PR?SLEEP
003DC6H   003DCFH   00000AH   BYTE   UNIT     CODE           ?PR?RESETSOSMODULE?SOS
003DD0H   003DD9H   00000AH   BYTE   UNIT     CODE           ?PR?SOS
003DDAH   003DE3H   00000AH   BYTE   UNIT     CODE           ?PR?RESETSTROBEMODULE?STROBE
003DE4H   003DECH   000009H   BYTE   UNIT     CODE           ?PR?GETSIDEKEY1HEVENT?SIDEKEY
003DEDH   003DF5H   000009H   BYTE   UNIT     CODE           ?PR?CLEARERROR?SELFTEST
003DF6H   003DFEH   000009H   BYTE   UNIT     CODE           ?PR?STARTBATTALERTTIMER?LOWVOLTAGEPROT
003DFFH   003E07H   000009H   BYTE   UNIT     CODE           ?PR?BEACONFSM_TIMHANDLER?BEACON
003E08H   003E10H   000009H   BYTE   UNIT     CODE           ?PR?STROBEOUTPUTHANDLER?STROBE
003E11H   003E16H   000006H   BYTE   UNIT     CODE           ?PR?TIMER0_IRQHANDLER?DELAY
003E17H   003E1CH   000006H   BYTE   UNIT     CODE           ?PR?GETIFKEYPRESSED?SIDEKEY
LX51 LINKER/LOCATER V4.66.97.0                                                        05/18/2025  17:01:21  PAGE 6


003E1DH   003E1FH   000003H   BYTE   UNIT     CODE           ?PR?SYSTEMTELEMHANDLER?ADCCFG
003E20H   003F75H   000156H   BYTE   UNIT     CONST          ?CO?NTC
003F76H   003FEAH   000075H   BYTE   UNIT     CONST          ?CO?MODECONTROL
003FEBH   003FF3H   000009H   BYTE   UNIT     CONST          ?CO?STROBE
003FF4H   003FF8H   000005H   BYTE   UNIT     CONST          ?CO?ADCCFG
003FF9H   003FFBH   000003H   BYTE   UNIT     CONST          ?CO?SELFTEST

* * * * * * * * * * *  X D A T A   M E M O R Y  * * * * * * * * * * * * *
000000H   000013H   000014H   BYTE   UNIT     XDATA          ?XD?BATTVOLTDISPLAY
000014H   000021H   00000EH   BYTE   UNIT     XDATA          ?XD?ADCCFG
000022H   000029H   000008H   BYTE   UNIT     XDATA          ?XD?LOWVOLTAGEPROT
00002AH   000030H   000007H   BYTE   UNIT     XDATA          ?XD?OUTPUTCHANNEL
000031H   000036H   000006H   BYTE   UNIT     XDATA          ?XD?PWM
000037H   00003BH   000005H   BYTE   UNIT     XDATA          ?XD?SELFTEST
00003CH   00003FH   000004H   BYTE   UNIT     XDATA          ?XD?TEMPCONTROL
000040H   000043H   000004H   BYTE   UNIT     XDATA          ?XD?MODECONTROL
000044H   000046H   000003H   BYTE   UNIT     XDATA          ?XD?BEACON
000047H   000049H   000003H   BYTE   UNIT     XDATA          ?XD?SYSCONFIG
00004AH   00004BH   000002H   BYTE   UNIT     XDATA          ?XD?SOS
00004CH   00004DH   000002H   BYTE   UNIT     XDATA          ?XD?LOCATELED
00004EH   00004FH   000002H   BYTE   UNIT     XDATA          ?XD?STROBE
000050H   000050H   000001H   BYTE   UNIT     XDATA          ?XD?SIDEKEY
000051H   000051H   000001H   BYTE   UNIT     XDATA          ?XD?SPECIALMODE



OVERLAY MAP OF MODULE:   .\Objects\XTRBoost (?C_STARTUP)


FUNCTION/MODULE                                BIT_GROUP   DATA_GROUP 
--> CALLED FUNCTION/MODULE                    START  STOP  START  STOP
======================================================================
?C_C51STARTUP                                 ----- -----  ----- -----
  +--> MAIN/MAIN
  +--> ?C_INITSEG

MAIN/MAIN                                     20H.0 20H.0  ----- -----
  +--> DELAY_INIT/DELAY
  +--> SETSYSTEMHBTIMER/DELAY
  +--> OUTPUTCHANNEL_INIT/OUTPUTCHANNEL
  +--> ADC_INIT/ADCCFG
  +--> PWM_INIT/PWM
  +--> LED_INIT/LEDMGMT
  +--> MODEFSMINIT/MODECONTROL
  +--> SIDEKEYINIT/SIDEKEY
  +--> OUTPUTCHANNEL_TESTRUN/OUTPUTCHANNEL
  +--> DISPLAYVBATTATSTART/BATTVOLTDISPLAY
  +--> SYSTEMTELEMHANDLER/ADCCFG
  +--> SIDEKEY_LOGICHANDLER/SIDEKEY
  +--> BATTERYTELEMHANDLER/BATTVOLTDISPLAY
  +--> MODESWITCHFSM/MODECONTROL
  +--> THERMALMGMTPROCESS/TEMPCONTROL
  +--> OUTPUTCHANNEL_CALC/OUTPUTCHANNEL
  +--> PWM_OUTPUTCTRLHANDLER/PWM
  +--> RANDSTROBEHANDLER/STROBE
  +--> THERMALPILOOPCALC/TEMPCONTROL
  +--> MODEFSMTIMHANDLER/MODECONTROL
  +--> BEACONFSM_TIMHANDLER/BEACON
  +--> LEDCONTROLHANDLER/LEDMGMT
  +--> OCFSM_TIMHANDLER/OUTPUTCHANNEL
  +--> HOLDSWITCHGEARCMDHANDLER/MODECONTROL
  +--> SIDEKEY_TIM_CALLBACK/SIDEKEY
  +--> OUTPUTFAULTDETECT/SELFTEST
  +--> BATTDISPLAYTIM/BATTVOLTDISPLAY
  +--> SOSTIMHANDLER/SOS
LX51 LINKER/LOCATER V4.66.97.0                                                        05/18/2025  17:01:21  PAGE 7


  +--> BATTALERTTIMHANDLER/LOWVOLTAGEPROT
  +--> DISPLAYERRORTIMHANDLER/SELFTEST
  +--> SLEEPMGMT/SLEEP
  +--> LOCATELED_TIMHANDLER/LOCATELED

DELAY_INIT/DELAY                              ----- -----  ----- -----

SETSYSTEMHBTIMER/DELAY                        20H.3 20H.3  ----- -----

OUTPUTCHANNEL_INIT/OUTPUTCHANNEL              ----- -----  0024H 0026H
  +--> OUTPUTCHANNEL_DEINIT/OUTPUTCHANNEL
  +--> _GPIO_CONFIGGPIOMODE/GPIO

OUTPUTCHANNEL_DEINIT/OUTPUTCHANNEL            ----- -----  ----- -----

_GPIO_CONFIGGPIOMODE/GPIO                     ----- -----  0027H 0031H
  +--> GPIO

GPIO                                          ----- -----  ----- -----

ADC_INIT/ADCCFG                               ----- -----  0024H 0026H
  +--> _GPIO_SETMUXMODE/GPIO
  +--> _GPIO_CONFIGGPIOMODE/GPIO
  +--> _GPIO_WRITEBIT/GPIO
  +--> ADCCFG

_GPIO_SETMUXMODE/GPIO                         ----- -----  0027H 0028H
  +--> GPIO

_GPIO_WRITEBIT/GPIO                           20H.3 20H.3  ----- -----
  +--> GPIO

ADCCFG                                        ----- -----  ----- -----

PWM_INIT/PWM                                  ----- -----  0024H 0026H
  +--> _GPIO_WRITEBIT/GPIO
  +--> _GPIO_CONFIGGPIOMODE/GPIO
  +--> _GPIO_SETMUXMODE/GPIO
  +--> UPLOADPWMVALUE/PWM

UPLOADPWMVALUE/PWM                            ----- -----  ----- -----

LED_INIT/LEDMGMT                              ----- -----  0024H 0026H
  +--> SETLEDBRIGHTNESS/LEDMGMT
  +--> _GPIO_WRITEBIT/GPIO
  +--> _GPIO_SETMUXMODE/GPIO
  +--> _GPIO_CONFIGGPIOMODE/GPIO

SETLEDBRIGHTNESS/LEDMGMT                      ----- -----  ----- -----

MODEFSMINIT/MODECONTROL                       ----- -----  ----- -----
  +--> READSYSCONFIG/SYSCONFIG
  +--> MODECONTROL
  +--> RESETSOSMODULE/SOS

READSYSCONFIG/SYSCONFIG                       20H.1 20H.1  0024H 0029H
  +--> GETIFKEYPRESSED/SIDEKEY
  +--> _SEARCHSYSCONFIG/SYSCONFIG
  +--> _PEC8CHECK/SYSCONFIG
  +--> RESTORETOMINIMUMSYSCURRENT/SYSCONFIG
  +--> SAVESYSCONFIG/SYSCONFIG
  +--> _MAKEFASTSTROBE/LEDMGMT
  +--> _DELAY_MS/DELAY
  +--> SETFLASHSTATE/FLASH

LX51 LINKER/LOCATER V4.66.97.0                                                        05/18/2025  17:01:21  PAGE 8


GETIFKEYPRESSED/SIDEKEY                       ----- -----  ----- -----

_SEARCHSYSCONFIG/SYSCONFIG                    ----- -----  002AH 002FH
  +--> SETFLASHSTATE/FLASH
  +--> SYSCONFIG
  +--> _PEC8CHECK/SYSCONFIG
  +--> _FLASH_OPERATION/FLASH

SETFLASHSTATE/FLASH                           20H.3 20H.3  ----- -----

SYSCONFIG                                     ----- -----  ----- -----

_PEC8CHECK/SYSCONFIG                          ----- -----  0031H 0033H

_FLASH_OPERATION/FLASH                        ----- -----  0031H 0031H

RESTORETOMINIMUMSYSCURRENT/SYSCONFIG          ----- -----  ----- -----
  +--> SYSCONFIG

SAVESYSCONFIG/SYSCONFIG                       20H.2 20H.2  002AH 0030H
  +--> SETFLASHSTATE/FLASH
  +--> _PEC8CHECK/SYSCONFIG
  +--> _FLASH_OPERATION/FLASH
  +--> SYSCONFIG

_MAKEFASTSTROBE/LEDMGMT                       ----- -----  ----- -----
  +--> SETLEDONOFF/LEDMGMT
  +--> _DELAY_MS/DELAY

SETLEDONOFF/LEDMGMT                           20H.4 20H.5  ----- -----

_DELAY_MS/DELAY                               ----- -----  002AH 0031H

MODECONTROL                                   ----- -----  ----- -----

RESETSOSMODULE/SOS                            ----- -----  ----- -----

SIDEKEYINIT/SIDEKEY                           ----- -----  0024H 0026H
  +--> _GPIO_SETMUXMODE/GPIO
  +--> _GPIO_CONFIGGPIOMODE/GPIO
  +--> _GPIO_ENABLEINT/GPIO
  +--> _GPIO_SETEXTINTMODE/GPIO
  +--> LOADSLEEPTIMER/SLEEP

_GPIO_ENABLEINT/GPIO                          ----- -----  ----- -----

_GPIO_SETEXTINTMODE/GPIO                      ----- -----  0027H 0028H
  +--> GPIO

LOADSLEEPTIMER/SLEEP                          ----- -----  ----- -----
  +--> SLEEP

SLEEP                                         ----- -----  ----- -----

OUTPUTCHANNEL_TESTRUN/OUTPUTCHANNEL           20H.1 20H.1  0024H 0024H
  +--> PWM_FORCEENABLEOUT/PWM
  +--> _DELAY_MS/DELAY
  +--> SYSTEMTELEMHANDLER/ADCCFG
  +--> OUTPUTCHANNEL_DEINIT/OUTPUTCHANNEL
  +--> OUTPUTCHANNEL
  +--> _REPORTERROR/SELFTEST

PWM_FORCEENABLEOUT/PWM                        20H.2 20H.2  ----- -----
  +--> UPLOADPWMVALUE/PWM

LX51 LINKER/LOCATER V4.66.97.0                                                        05/18/2025  17:01:21  PAGE 9


SYSTEMTELEMHANDLER/ADCCFG                     ----- -----  ----- -----
  +--> ADCENGINEHANDLER/ADCCFG

ADCENGINEHANDLER/ADCCFG                       ----- -----  0025H 0028H
  +--> ADC_SETVREF/ADCCFG
  +--> ADCCFG
  +--> _ADC_SUBMITMISSON/ADCCFG
  +--> _ADC_READBACKRESULT/ADCCFG
  +--> _ADC_WRITEOUTPUTBUF/ADCCFG

ADC_SETVREF/ADCCFG                            20H.2 20H.2  ----- -----

_ADC_SUBMITMISSON/ADCCFG                      ----- -----  ----- -----
  +--> ADCCFG

_ADC_READBACKRESULT/ADCCFG                    ----- -----  0029H 002EH

_ADC_WRITEOUTPUTBUF/ADCCFG                    ----- -----  0029H 0037H
  +--> ADCCFG
  +--> _CALCNTCTEMP/NTC

_CALCNTCTEMP/NTC                              ----- -----  0038H 0043H
  +--> NTC

NTC                                           ----- -----  ----- -----

OUTPUTCHANNEL                                 ----- -----  ----- -----

_REPORTERROR/SELFTEST                         ----- -----  ----- -----
  +--> _SWITCHTOGEAR/MODECONTROL

_SWITCHTOGEAR/MODECONTROL                     ----- -----  0028H 002DH
  +--> MODECONTROL
  +--> QUERYTURBOCURRENT/MODECONTROL
  +--> RESETSOSMODULE/SOS
  +--> BEACONFSM_RESET/BEACON
  +--> RESETSTROBEMODULE/STROBE
  +--> CALCTURBOILIM/LOWVOLTAGEPROT
  +--> _RECALCPILOOP/TEMPCONTROL

QUERYTURBOCURRENT/MODECONTROL                 ----- -----  ----- -----
  +--> MODECONTROL

BEACONFSM_RESET/BEACON                        ----- -----  ----- -----

RESETSTROBEMODULE/STROBE                      ----- -----  ----- -----

CALCTURBOILIM/LOWVOLTAGEPROT                  ----- -----  ----- -----
  +--> LOWVOLTAGEPROT

LOWVOLTAGEPROT                                ----- -----  ----- -----

_RECALCPILOOP/TEMPCONTROL                     ----- -----  002EH 002FH
  +--> TEMPCONTROL

TEMPCONTROL                                   ----- -----  ----- -----

DISPLAYVBATTATSTART/BATTVOLTDISPLAY           ----- -----  0024H 0024H
  +--> RESETBATTAVG/BATTVOLTDISPLAY
  +--> SYSTEMTELEMHANDLER/ADCCFG
  +--> BATTERYSTATEFSM/BATTVOLTDISPLAY
  +--> BATTVOLTDISPLAY

RESETBATTAVG/BATTVOLTDISPLAY                  ----- -----  ----- -----

LX51 LINKER/LOCATER V4.66.97.0                                                        05/18/2025  17:01:21  PAGE 10


BATTERYSTATEFSM/BATTVOLTDISPLAY               ----- -----  0026H 0029H
  +--> BATTVOLTDISPLAY

BATTVOLTDISPLAY                               ----- -----  ----- -----

SIDEKEY_LOGICHANDLER/SIDEKEY                  ----- -----  0024H 0024H
  +--> _GPIO_CHECKIFINTENABLED/GPIO
  +--> LOADSLEEPTIMER/SLEEP
  +--> _GPIO_SETEXTINTMODE/GPIO
  +--> _GPIO_ENABLEINT/GPIO
  +--> SIDEKEY
  +--> _CLICKANDHOLDEVENTHANDLER/SIDEKEY

_GPIO_CHECKIFINTENABLED/GPIO                  ----- -----  ----- -----

SIDEKEY                                       ----- -----  ----- -----

_CLICKANDHOLDEVENTHANDLER/SIDEKEY             ----- -----  ----- -----

BATTERYTELEMHANDLER/BATTVOLTDISPLAY           ----- -----  0024H 0025H
  +--> BATTVOLTDISPLAY
  +--> BATTERYSTATEFSM/BATTVOLTDISPLAY
  +--> DISPLAYERRORIDHANDLER/SELFTEST
  +--> BATVSHOWFSM/BATTVOLTDISPLAY
  +--> LOCATELED_SHOWTYPE/LOCATELED
  +--> SETPOWERLEDBASEDONVBATT/BATTVOLTDISPLAY

DISPLAYERRORIDHANDLER/SELFTEST                ----- -----  ----- -----

BATVSHOWFSM/BATTVOLTDISPLAY                   ----- -----  ----- -----
  +--> BATTVOLTDISPLAY
  +--> _VSHOWFSMGENTIMVALUE/BATTVOLTDISPLAY
  +--> _VSHOWGENERATESIDESTROBE/BATTVOLTDISPLAY
  +--> SETPOWERLEDBASEDONVBATT/BATTVOLTDISPLAY
  +--> GETSIDEKEYNCLICKANDHOLDEVENT/SIDEKEY

_VSHOWFSMGENTIMVALUE/BATTVOLTDISPLAY          ----- -----  ----- -----
  +--> BATTVOLTDISPLAY

_VSHOWGENERATESIDESTROBE/BATTVOLTDISPLAY      ----- -----  0026H 0027H
  +--> _MAKEFASTSTROBE/LEDMGMT

SETPOWERLEDBASEDONVBATT/BATTVOLTDISPLAY       ----- -----  ----- -----

GETSIDEKEYNCLICKANDHOLDEVENT/SIDEKEY          ----- -----  ----- -----
  +--> SIDEKEY

LOCATELED_SHOWTYPE/LOCATELED                  ----- -----  ----- -----
  +--> _MAKEFASTSTROBE/LEDMGMT

MODESWITCHFSM/MODECONTROL                     ----- -----  0024H 0024H
  +--> GETIFSYSTEMINPOFFSEQ/OUTPUTCHANNEL
  +--> GETSIDEKEYSHORTPRESSCOUNT/SIDEKEY
  +--> MODECONTROL
  +--> GETSIDEKEYLONGPRESSEVENT/SIDEKEY
  +--> ISERRORFATAL/SELFTEST
  +--> CLEARERROR/SELFTEST
  +--> _SPECIALMODEOPERATION/SPECIALMODE
  +--> _LOCATELED_EDIT/LOCATELED
  +--> _POWERTONORMALMODE/SPECIALMODE
  +--> _ENTERTURBOSTROBE/SPECIALMODE
  +--> _SWITCHTOGEAR/MODECONTROL
  +--> SAVESYSCONFIG/SYSCONFIG
  +--> GETSIDEKEYNCLICKANDHOLDEVENT/SIDEKEY
  +--> TRIGGERVSHOWDISPLAY/BATTVOLTDISPLAY
LX51 LINKER/LOCATER V4.66.97.0                                                        05/18/2025  17:01:21  PAGE 11


  +--> RESTORETOMINIMUMSYSCURRENT/SYSCONFIG
  +--> RAMPLOWVOLTHANDLER/LOWVOLTAGEPROT
  +--> RAMPADJHANDLER/MODECONTROL
  +--> _SIDEKEY1HREVGEARHANDLER/MODECONTROL
  +--> _SIDEKEYSWITCHGEARHANDLER/MODECONTROL
  +--> _DETECTIFNEEDSOFF/MODECONTROL
  +--> TURBOLVILIMPROCESS/LOWVOLTAGEPROT
  +--> _LEAVESPECIALMODE/SPECIALMODE
  +--> _BATTERYLOWALERTPROCESS/LOWVOLTAGEPROT
  +--> QUERYTURBOCURRENT/MODECONTROL
  +--> STROBEOUTPUTHANDLER/STROBE
  +--> SOSFSM/SOS
  +--> BEACONFSM/BEACON
  +--> LOWPOWERSTROBE/BATTVOLTDISPLAY

GETIFSYSTEMINPOFFSEQ/OUTPUTCHANNEL            ----- -----  ----- -----

GETSIDEKEYSHORTPRESSCOUNT/SIDEKEY             20H.1 20H.1  ----- -----

GETSIDEKEYLONGPRESSEVENT/SIDEKEY              ----- -----  ----- -----

ISERRORFATAL/SELFTEST                         ----- -----  ----- -----

CLEARERROR/SELFTEST                           ----- -----  ----- -----
  +--> _SWITCHTOGEAR/MODECONTROL

_SPECIALMODEOPERATION/SPECIALMODE             ----- -----  0025H 0025H
  +--> SPECIALMODE
  +--> ENTEREXITLOCK/SPECIALMODE
  +--> ENTEREXITTAC/SPECIALMODE
  +--> GETSIDEKEYHOLDEVENT/SIDEKEY
  +--> ISKEYEVENTOCCURRED/SIDEKEY
  +--> _ENTERTURBOSTROBE/SPECIALMODE

SPECIALMODE                                   ----- -----  ----- -----

ENTEREXITLOCK/SPECIALMODE                     ----- -----  ----- -----
  +--> SAVESYSCONFIG/SYSCONFIG

ENTEREXITTAC/SPECIALMODE                      ----- -----  ----- -----

GETSIDEKEYHOLDEVENT/SIDEKEY                   ----- -----  ----- -----

ISKEYEVENTOCCURRED/SIDEKEY                    ----- -----  ----- -----

_ENTERTURBOSTROBE/SPECIALMODE                 ----- -----  0026H 0026H
  +--> SPECIALMODE
  +--> _SWITCHTOGEAR/MODECONTROL
  +--> _POWERTONORMALMODE/SPECIALMODE

_POWERTONORMALMODE/SPECIALMODE                ----- -----  0027H 0027H
  +--> SPECIALMODE
  +--> _SWITCHTOGEAR/MODECONTROL
  +--> RAMPRESTORELVPROTTOMAX/LOWVOLTAGEPROT

RAMPRESTORELVPROTTOMAX/LOWVOLTAGEPROT         ----- -----  ----- -----
  +--> LOWVOLTAGEPROT

_LOCATELED_EDIT/LOCATELED                     ----- -----  ----- -----
  +--> GETSIDEKEYHOLDEVENT/SIDEKEY
  +--> SAVESYSCONFIG/SYSCONFIG
  +--> GETSIDEKEYLONGPRESSEVENT/SIDEKEY

TRIGGERVSHOWDISPLAY/BATTVOLTDISPLAY           ----- -----  ----- -----
  +--> BATTVOLTDISPLAY
LX51 LINKER/LOCATER V4.66.97.0                                                        05/18/2025  17:01:21  PAGE 12



RAMPLOWVOLTHANDLER/LOWVOLTAGEPROT             ----- -----  ----- -----
  +--> LOWVOLTAGEPROT
  +--> STARTBATTALERTTIMER/LOWVOLTAGEPROT
  +--> RETURNTOOFFSTATE/MODECONTROL

STARTBATTALERTTIMER/LOWVOLTAGEPROT            ----- -----  ----- -----

RETURNTOOFFSTATE/MODECONTROL                  ----- -----  ----- -----
  +--> MODECONTROL
  +--> _SWITCHTOGEAR/MODECONTROL

RAMPADJHANDLER/MODECONTROL                    20H.1 20H.1  0025H 0026H
  +--> GETSIDEKEY1HEVENT/SIDEKEY
  +--> GETSIDEKEYHOLDEVENT/SIDEKEY
  +--> MODECONTROL
  +--> SAVESYSCONFIG/SYSCONFIG

GETSIDEKEY1HEVENT/SIDEKEY                     ----- -----  ----- -----

_SIDEKEY1HREVGEARHANDLER/MODECONTROL          ----- -----  ----- -----
  +--> _SWITCHTOGEAR/MODECONTROL

_SIDEKEYSWITCHGEARHANDLER/MODECONTROL         ----- -----  ----- -----
  +--> _SWITCHTOGEAR/MODECONTROL

_DETECTIFNEEDSOFF/MODECONTROL                 ----- -----  0025H 0026H
  +--> GETSIDEKEYNCLICKANDHOLDEVENT/SIDEKEY
  +--> TRIGGERVSHOWDISPLAY/BATTVOLTDISPLAY
  +--> GETSIDEKEYHOLDEVENT/SIDEKEY
  +--> RETURNTOOFFSTATE/MODECONTROL

TURBOLVILIMPROCESS/LOWVOLTAGEPROT             ----- -----  ----- -----
  +--> STARTBATTALERTTIMER/LOWVOLTAGEPROT
  +--> _SWITCHTOGEAR/MODECONTROL
  +--> LOWVOLTAGEPROT

_LEAVESPECIALMODE/SPECIALMODE                 ----- -----  0025H 0025H
  +--> SPECIALMODE
  +--> _SWITCHTOGEAR/MODECONTROL

_BATTERYLOWALERTPROCESS/LOWVOLTAGEPROT        20H.1 20H.1  0025H 0027H
  +--> GETSIDEKEY1HEVENT/SIDEKEY
  +--> GETSIDEKEYHOLDEVENT/SIDEKEY
  +--> STARTBATTALERTTIMER/LOWVOLTAGEPROT
  +--> RETURNTOOFFSTATE/MODECONTROL
  +--> _SWITCHTOGEAR/MODECONTROL

STROBEOUTPUTHANDLER/STROBE                    ----- -----  ----- -----

SOSFSM/SOS                                    ----- -----  ----- -----
  +--> _SOSTIMDETECT/SOS
  +--> _SOSFSM_JUMP/SOS

_SOSTIMDETECT/SOS                             ----- -----  ----- -----
  +--> SOS

SOS                                           ----- -----  ----- -----

_SOSFSM_JUMP/SOS                              ----- -----  ----- -----

BEACONFSM/BEACON                              ----- -----  ----- -----
  +--> BEACON

BEACON                                        ----- -----  ----- -----
LX51 LINKER/LOCATER V4.66.97.0                                                        05/18/2025  17:01:21  PAGE 13



LOWPOWERSTROBE/BATTVOLTDISPLAY                ----- -----  ----- -----

THERMALMGMTPROCESS/TEMPCONTROL                20H.1 20H.1  ----- -----
  +--> _REPORTERROR/SELFTEST
  +--> TEMPSCHMITTTRIGGER/TEMPCONTROL
  +--> CLEARERROR/SELFTEST
  +--> TEMPCONTROL
  +--> QUERYCONSTANTTEMP/TEMPCONTROL

TEMPSCHMITTTRIGGER/TEMPCONTROL                20H.2 20H.2  0024H 0025H
  +--> TEMPCONTROL

QUERYCONSTANTTEMP/TEMPCONTROL                 ----- -----  ----- -----
  +--> TEMPCONTROL

OUTPUTCHANNEL_CALC/OUTPUTCHANNEL              ----- -----  0024H 0027H
  +--> THERMALILIMCALC/TEMPCONTROL
  +--> OUTPUTCHANNEL_DEINIT/OUTPUTCHANNEL
  +--> OUTPUTCHANNEL
  +--> _DELAY_MS/DELAY
  +--> _REPORTERROR/SELFTEST
  +--> _DUTY_CALC/OUTPUTCHANNEL

THERMALILIMCALC/TEMPCONTROL                   ----- -----  ----- -----
  +--> TEMPCONTROL

_DUTY_CALC/OUTPUTCHANNEL                      ----- -----  0028H 002BH
  +--> OUTPUTCHANNEL

PWM_OUTPUTCTRLHANDLER/PWM                     ----- -----  0024H 0027H
  +--> PWM

PWM                                           ----- -----  ----- -----

RANDSTROBEHANDLER/STROBE                      ----- -----  ----- -----

THERMALPILOOPCALC/TEMPCONTROL                 ----- -----  0024H 0027H
  +--> TEMPCONTROL
  +--> GETIFOUTPUTENABLED/OUTPUTCHANNEL
  +--> QUERYCONSTANTTEMP/TEMPCONTROL
  +--> QUERYCONSTANTILED/TEMPCONTROL

GETIFOUTPUTENABLED/OUTPUTCHANNEL              ----- -----  ----- -----

QUERYCONSTANTILED/TEMPCONTROL                 ----- -----  ----- -----
  +--> TEMPCONTROL

MODEFSMTIMHANDLER/MODECONTROL                 ----- -----  ----- -----
  +--> MODECONTROL

BEACONFSM_TIMHANDLER/BEACON                   ----- -----  ----- -----
  +--> BEACON

LEDCONTROLHANDLER/LEDMGMT                     20H.1 20H.3  ----- -----
  +--> DISPLAYTACMODEENABLED/SPECIALMODE
  +--> SHOWTHERMALSTEPDOWN/TEMPCONTROL
  +--> SETLEDBRIGHTNESS/LEDMGMT
  +--> SETLEDONOFF/LEDMGMT

DISPLAYTACMODEENABLED/SPECIALMODE             ----- -----  ----- -----
  +--> SPECIALMODE

SHOWTHERMALSTEPDOWN/TEMPCONTROL               ----- -----  0024H 0024H
  +--> TEMPCONTROL
LX51 LINKER/LOCATER V4.66.97.0                                                        05/18/2025  17:01:21  PAGE 14



OCFSM_TIMHANDLER/OUTPUTCHANNEL                ----- -----  ----- -----
  +--> OUTPUTCHANNEL
  +--> GETIFOUTPUTENABLED/OUTPUTCHANNEL

HOLDSWITCHGEARCMDHANDLER/MODECONTROL          ----- -----  0024H 0024H
  +--> MODECONTROL
  +--> GETSIDEKEYHOLDEVENT/SIDEKEY
  +--> GETSIDEKEY1HEVENT/SIDEKEY

SIDEKEY_TIM_CALLBACK/SIDEKEY                  ----- -----  ----- -----

OUTPUTFAULTDETECT/SELFTEST                    ----- -----  0024H 0025H
  +--> SELFTEST
  +--> GETIFOUTPUTENABLED/OUTPUTCHANNEL
  +--> _REPORTERROR/SELFTEST
  +--> _ERRTIMCOUNTER/SELFTEST

SELFTEST                                      ----- -----  ----- -----

_ERRTIMCOUNTER/SELFTEST                       ----- -----  ----- -----

BATTDISPLAYTIM/BATTVOLTDISPLAY                ----- -----  0024H 0027H
  +--> BATTVOLTDISPLAY
  +--> RESETBATTAVG/BATTVOLTDISPLAY

SOSTIMHANDLER/SOS                             ----- -----  ----- -----
  +--> SOS

BATTALERTTIMHANDLER/LOWVOLTAGEPROT            ----- -----  ----- -----
  +--> LOWVOLTAGEPROT

DISPLAYERRORTIMHANDLER/SELFTEST               ----- -----  ----- -----

SLEEPMGMT/SLEEP                               20H.1 20H.1  ----- -----
  +--> QUERYISSYSTEMNOTALLOWTOSLEEP/SLEEP
  +--> LOADSLEEPTIMER/SLEEP
  +--> SLEEP
  +--> SYSTEMPERIPHERALCTRL/SLEEP
  +--> DELAY_INIT/DELAY
  +--> SETSYSTEMHBTIMER/DELAY
  +--> MARKASKEYPRESSED/SIDEKEY
  +--> _DELAY_MS/DELAY
  +--> SIDEKEY_LOGICHANDLER/SIDEKEY
  +--> SIDEKEY_TIM_CALLBACK/SIDEKEY
  +--> ISKEYEVENTOCCURRED/SIDEKEY

QUERYISSYSTEMNOTALLOWTOSLEEP/SLEEP            ----- -----  ----- -----

SYSTEMPERIPHERALCTRL/SLEEP                    20H.2 20H.2  ----- -----
  +--> ADC_INIT/ADCCFG
  +--> PWM_INIT/PWM
  +--> LED_INIT/LEDMGMT
  +--> OUTPUTCHANNEL_INIT/OUTPUTCHANNEL
  +--> SETSYSTEMHBTIMER/DELAY
  +--> PWM_DEINIT/PWM
  +--> ADC_DEINIT/ADCCFG
  +--> LOCATELED_ENABLE/LOCATELED
  +--> OUTPUTCHANNEL_DEINIT/OUTPUTCHANNEL

PWM_DEINIT/PWM                                ----- -----  ----- -----
  +--> _GPIO_SETMUXMODE/GPIO

ADC_DEINIT/ADCCFG                             ----- -----  0024H 0026H
  +--> ADCCFG
LX51 LINKER/LOCATER V4.66.97.0                                                        05/18/2025  17:01:21  PAGE 15


  +--> _GPIO_SETMUXMODE/GPIO
  +--> _GPIO_CONFIGGPIOMODE/GPIO
  +--> _GPIO_WRITEBIT/GPIO

LOCATELED_ENABLE/LOCATELED                    ----- -----  0024H 0026H
  +--> _GPIO_SETMUXMODE/GPIO
  +--> _GPIO_CONFIGGPIOMODE/GPIO

MARKASKEYPRESSED/SIDEKEY                      ----- -----  ----- -----
  +--> _GPIO_DISABLEINT/GPIO

_GPIO_DISABLEINT/GPIO                         ----- -----  ----- -----

LOCATELED_TIMHANDLER/LOCATELED                ----- -----  ----- -----

?C_INITSEG                                    ----- -----  ----- -----

*** NEW ROOT ********************************

TIMER2_IRQHANDLER/DELAY                       ----- -----  ----- -----

*** NEW ROOT ********************************

TIMER0_IRQHANDLER/DELAY                       ----- -----  ----- -----

*** NEW ROOT ********************************

KEY_IRQHANDLER/SIDEKEY                        ----- -----  ----- -----
  +--> SIDEKEY_INT_CALLBACK/SIDEKEY

SIDEKEY_INT_CALLBACK/SIDEKEY                  ----- -----  ----- -----
  +--> _GPIO_GETEXTINTMODE/GPIO
  +--> _GPIO_DISABLEINT/GPIO

_GPIO_GETEXTINTMODE/GPIO                      ----- -----  ----- -----
  +--> GPIO



PUBLIC SYMBOLS OF MODULE:  .\Objects\XTRBoost (?C_STARTUP)


      VALUE       CLASS    TYPE      PUBLIC SYMBOL NAME
      =================================================
      00000020H.3 BIT      BIT       ?_GPIO_WriteBit?BIT
      01000393H   CODE     ---       ?C?CASTF
      0100044FH   CODE     ---       ?C?CLDOPTR
      01000436H   CODE     ---       ?C?CLDPTR
      00000000H   NUMBER   ---       ?C?CODESEG
      0100047CH   CODE     ---       ?C?CSTPTR
      0100035FH   CODE     ---       ?C?FCASTC
      0100035AH   CODE     ---       ?C?FCASTI
      01000355H   CODE     ---       ?C?FCASTL
      01000045H   CODE     ---       ?C?FPADD
      010002DEH   CODE     ---       ?C?FPCMP
      010002DCH   CODE     ---       ?C?FPCMP3
      0100023FH   CODE     ---       ?C?FPDIV
      010003CAH   CODE     ---       ?C?FPGETOPN2
      01000136H   CODE     ---       ?C?FPMUL
      010003FFH   CODE     ---       ?C?FPNANRESULT
      01000409H   CODE     ---       ?C?FPOVERFLOW
      010003E1H   CODE     ---       ?C?FPRESULT
      010003F5H   CODE     ---       ?C?FPRESULT2
      01000041H   CODE     ---       ?C?FPSUB
      01000406H   CODE     ---       ?C?FPUNDERFLOW
LX51 LINKER/LOCATER V4.66.97.0                                                        05/18/2025  17:01:21  PAGE 16


      010004D6H   CODE     ---       ?C?ILDOPTR
      0100048EH   CODE     ---       ?C?IMUL
      0100050EH   CODE     ---       ?C?ISTPTR
      01000692H   CODE     ---       ?C?LLDCODE
      0100052DH   CODE     ---       ?C?LMUL
      0100064AH   CODE     ---       ?C?LNEG
      010006AEH   CODE     ---       ?C?LSTKXDATA
      010006A2H   CODE     ---       ?C?LSTXDATA
      010006DFH   CODE     ---       ?C?OFFXADD
      01000414H   CODE     ---       ?C?SCDIV
      010004A0H   CODE     ---       ?C?SIDIV
      01000658H   CODE     ---       ?C?SLCMP
      01003359H   CODE     ---       ?C?SLDIV
      010006EBH   CODE     ---       ?C?UIDIV
      0100066EH   CODE     ---       ?C?ULCMP
      010005B8H   CODE     ---       ?C?ULDIV
      0100067FH   CODE     ---       ?C?ULSHR
      00000000H   NUMBER   ---       ?C?XDATASEG
      010023C5H   CODE     ---       ?C_START
      01000000H   CODE     NEAR LAB  ?C_STARTUP
      00000020H.1 BIT      BIT       ?getSideKeyShortPressCount?BIT
      00000020H.2 BIT      BIT       ?PWM_ForceEnableOut?BIT
      00000020H.2 BIT      BIT       ?SaveSysConfig?BIT
      00000020H.3 BIT      BIT       ?SetFlashState?BIT
      00000020H.3 BIT      BIT       ?SetSystemHBTimer?BIT
      00000020H.2 BIT      BIT       ?SystemPeripheralCTRL?BIT
      0100309DH   CODE     ---       _BatteryLowAlertProcess
      010019E5H   CODE     ---       _CalcNTCTemp
      01001EE3H   CODE     ---       _delay_ms
      01003313H   CODE     ---       _EnterTurboStrobe
      0100373FH   CODE     ---       _Flash_Operation
      010037F6H   CODE     ---       _GPIO_CheckIfIntEnabled
      01000DD3H   CODE     ---       _GPIO_ConfigGPIOMode
      01003A23H   CODE     ---       _GPIO_DisableInt
      01003B6DH   CODE     ---       _GPIO_EnableInt
      0100240AH   CODE     ---       _GPIO_GetExtIntMode
      01002FEAH   CODE     ---       _GPIO_SetExtIntMode
      01002B60H   CODE     ---       _GPIO_SetMUXMode
      01001E2BH   CODE     ---       _GPIO_WriteBit
      01003944H   CODE     ---       _LeaveSpecialMode
      01002A78H   CODE     ---       _LocateLED_Edit
      01003876H   CODE     ---       _MakeFastStrobe
      01003595H   CODE     ---       _PowerToNormalMode
      01003195H   CODE     ---       _RecalcPILoop
      01003C0BH   CODE     ---       _ReportError
      01002904H   CODE     ---       _SpecialModeOperation
      010026E4H   CODE     ---       _SwitchToGear
*SFR* 000000D0H.6 DATA     BIT       AC
*SFR* 000000E0H   DATA     BYTE      ACC
      01002771H   CODE     ---       ADC_DeInit
      01001F99H   CODE     ---       ADC_Init
      01003FF4H   CONST    ---       ADCChQueue
*SFR* 000000D1H   DATA     BYTE      ADCMPC
*SFR* 000000D5H   DATA     BYTE      ADCMPH
*SFR* 000000D4H   DATA     BYTE      ADCMPL
*SFR* 000000DFH   DATA     BYTE      ADCON0
*SFR* 000000DEH   DATA     BYTE      ADCON1
*SFR* 000000E9H   DATA     BYTE      ADCON2
*SFR* 000000D3H   DATA     BYTE      ADDLYL
*SFR* 000000DDH   DATA     BYTE      ADRESH
*SFR* 000000DCH   DATA     BYTE      ADRESL
*SFR* 000000A0H.6 DATA     BIT       AUXEN
*SFR* 000000F0H   DATA     BYTE      B
      0100351FH   CODE     ---       BattAlertTIMHandler
      010015D2H   CODE     ---       BattDisplayTIM
LX51 LINKER/LOCATER V4.66.97.0                                                        05/18/2025  17:01:21  PAGE 17


      0200000CH   XDATA    FLOAT     Battery
      01002535H   CODE     ---       BatteryTelemHandler
      00000056H   DATA     BYTE      BattState
      01003144H   CODE     ---       BeaconFSM
      01003D2CH   CODE     ---       BeaconFSM_Reset
      01003DFFH   CODE     ---       BeaconFSM_TIMHandler
      02000024H   XDATA    FLOAT     BeforeRawBattVolt
*SFR* 000000B0H.2 DATA     BIT       BOOSTRUN
*SFR* 000000BFH   DATA     BYTE      BUZCON
*SFR* 000000BEH   DATA     BYTE      BUZDIV
      0100391CH   CODE     ---       CalcTurboILIM
*SFR* 000000C8H.5 DATA     BIT       CAPES
*SFR* 000000CEH   DATA     BYTE      CCEN
*SFR* 000000C3H   DATA     BYTE      CCH1
*SFR* 000000C5H   DATA     BYTE      CCH2
*SFR* 000000C7H   DATA     BYTE      CCH3
*SFR* 000000C2H   DATA     BYTE      CCL1
*SFR* 000000C4H   DATA     BYTE      CCL2
*SFR* 000000C6H   DATA     BYTE      CCL3
*SFR* 0000008EH   DATA     BYTE      CKCON
      01003DEDH   CODE     ---       ClearError
*SFR* 0000008FH   DATA     BYTE      CLKDIV
      0200002FH   XDATA    INT       Current
      0200002BH   XDATA    INT       CurrentBuf
      0000004DH   DATA     ---       CurrentMode
*SFR* 000000D0H.7 DATA     BIT       CY
      00000009H   DATA     ---       Data
      01003D08H   CODE     ---       delay_init
      01002C43H   CODE     ---       DisplayErrorIDHandler
      01003422H   CODE     ---       DisplayErrorTIMHandler
      02000040H   XDATA    CHAR      DisplayLockedTIM
      01003464H   CODE     ---       DisplayTacModeEnabled
      010034E2H   CODE     ---       DisplayVBattAtStart
*SFR* 00000083H   DATA     BYTE      DPH
*SFR* 00000083H   DATA     BYTE      DPH0
*SFR* 00000085H   DATA     BYTE      DPH1
*SFR* 00000082H   DATA     BYTE      DPL
*SFR* 00000082H   DATA     BYTE      DPL0
*SFR* 00000084H   DATA     BYTE      DPL1
*SFR* 00000086H   DATA     BYTE      DPS
*SFR* 00000093H   DATA     BYTE      DPX0
*SFR* 00000095H   DATA     BYTE      DPX1
*SFR* 000000A8H.7 DATA     BIT       EA
*SFR* 000000AAH   DATA     BYTE      EIE2
*SFR* 000000B2H   DATA     BYTE      EIF2
*SFR* 000000B9H   DATA     BYTE      EIP1
*SFR* 000000BAH   DATA     BYTE      EIP2
      02000039H   XDATA    BYTE      ErrCode
*SFR* 000000A8H.4 DATA     BIT       ES0
*SFR* 000000A8H.6 DATA     BIT       ES1
*SFR* 000000A8H.1 DATA     BIT       ET0
*SFR* 000000A8H.3 DATA     BIT       ET1
*SFR* 000000A8H.5 DATA     BIT       ET2
*SFR* 000000A8H.0 DATA     BIT       EX0
*SFR* 000000A8H.2 DATA     BIT       EX1
*SFR* 000000D0H.5 DATA     BIT       F0
*SFR* 00000091H   DATA     BYTE      FUNCCR
      01003E17H   CODE     ---       GetIfKeyPressed
      01003C3BH   CODE     ---       GetIfOutputEnabled
      01003C51H   CODE     ---       GetIfSystemInPOFFSeq
      01003DE4H   CODE     ---       getSideKey1HEvent
      01000003H   CODE     ---       getSideKeyHoldEvent
      01003D98H   CODE     ---       getSideKeyLongPressEvent
      0100000EH   CODE     ---       getSideKeyNClickAndHoldEvent
      01003BF3H   CODE     ---       getSideKeyShortPressCount
LX51 LINKER/LOCATER V4.66.97.0                                                        05/18/2025  17:01:21  PAGE 18


      02000042H   XDATA    CHAR      HoldChangeGearTIM
      01002D1EH   CODE     ---       HoldSwitchGearCmdHandler
*SFR* 000000F6H   DATA     BYTE      I2CMBUF
*SFR* 000000F5H   DATA     BYTE      I2CMCR
*SFR* 000000F4H   DATA     BYTE      I2CMSA
*SFR* 000000F5H   DATA     BYTE      I2CMSR
*SFR* 000000F7H   DATA     BYTE      I2CMTP
*SFR* 000000F1H   DATA     BYTE      I2CSADR
*SFR* 000000F3H   DATA     BYTE      I2CSBUF
*SFR* 000000F2H   DATA     BYTE      I2CSCR
*SFR* 000000F2H   DATA     BYTE      I2CSSR
*SFR* 000000C8H.6 DATA     BIT       I3FR
*SFR* 000000A8H   DATA     BYTE      IE
*SFR* 00000088H.1 DATA     BIT       IE0
*SFR* 00000088H.3 DATA     BIT       IE1
*SFR* 000000B8H   DATA     BYTE      IP
      00000023H.0 BIT      BIT       IsBatteryAlert
      00000023H.1 BIT      BIT       IsBatteryFault
      00000022H.6 BIT      BIT       IsCurrentRampUp
      00000020H.6 BIT      BIT       IsDisableTurbo
      00000023H.5 BIT      BIT       IsDisplayLocked
      01003673H   CODE     ---       IsErrorFatal
      00000021H.1 BIT      BIT       IsForceLeaveTurbo
      00000023H.3 BIT      BIT       IsHalfBrightness
      00000023H.4 BIT      BIT       IsInputLimited
      01003D8BH   CODE     ---       IsKeyEventOccurred
      00000022H.0 BIT      BIT       IsNeedToUploadPWM
      02000021H   XDATA    BYTE      IsNotAllowAsync
      00000022H.4 BIT      BIT       IsRampEnabled
      00000021H.4 BIT      BIT       IsT0OVF
*SFR* 00000088H.0 DATA     BIT       IT0
*SFR* 00000088H.2 DATA     BIT       IT1
      01003233H   CODE     ---       Key_IRQHandler
*SFR* 00000080H.0 DATA     BIT       KeyPress
      02000050H   XDATA    BYTE      KeyState
      02000041H   XDATA    BYTE      LastMode
      01002983H   CODE     ---       LED_Init
      01001BBEH   CODE     ---       LEDControlHandler
      0000005AH   DATA     BYTE      LEDMode
*SFR* 000000A0H.5 DATA     BIT       LEDMOS
      00000021H.3 BIT      BIT       LFStrobeFlag
      01003CBBH   CODE     ---       LoadSleepTimer
      0100355AH   CODE     ---       LocateLED_Enable
      0100363DH   CODE     ---       LocateLED_ShowType
      010039B6H   CODE     ---       LocateLED_TIMHandler
      0200004DH   XDATA    BYTE      LocLEDState
      010038A0H   CODE     ---       LowPowerStrobe
*SFR* 000000FDH   DATA     BYTE      MADRH
*SFR* 000000FCH   DATA     BYTE      MADRL
      010029FFH   CODE     ---       main
      01003B0EH   CODE     ---       MarkAsKeyPressed
*SFR* 000000FFH   DATA     BYTE      MCTRL
*SFR* 000000FEH   DATA     BYTE      MDATA
*SFR* 000000FBH   DATA     BYTE      MLOCK
      010024A1H   CODE     ---       ModeFSMInit
      010038F3H   CODE     ---       ModeFSMTIMHandler
      01003F76H   CONST    ---       ModeSettings
      01000A98H   CODE     ---       ModeSwitchFSM
      01003EFCH   CONST    ---       NTCTableBottom
      01003E20H   CONST    ---       NTCTableTop
      010032CCH   CODE     ---       OCFSM_TIMHandler
      01000740H   CODE     ---       OutputChannel_Calc
      01003A45H   CODE     ---       OutputChannel_DeInit
      0100339DH   CODE     ---       OutputChannel_Init
      01002885H   CODE     ---       OutputChannel_TestRun
LX51 LINKER/LOCATER V4.66.97.0                                                        05/18/2025  17:01:21  PAGE 19


      010014A7H   CODE     ---       OutputFaultDetect
*SFR* 000000D0H.2 DATA     BIT       OV
*SFR* 000000D0H.0 DATA     BIT       P
*SFR* 00000080H   DATA     BYTE      P0
*SFR* 00000080H.0 DATA     BIT       P00
*SFR* 00000080H.1 DATA     BIT       P01
*SFR* 00000080H.2 DATA     BIT       P02
*SFR* 00000080H.3 DATA     BIT       P03
*SFR* 00000080H.4 DATA     BIT       P04
*SFR* 00000080H.5 DATA     BIT       P05
*SFR* 00000080H.6 DATA     BIT       P06
*SFR* 00000080H.7 DATA     BIT       P07
*SFR* 000000ACH   DATA     BYTE      P0EXTIE
*SFR* 000000B4H   DATA     BYTE      P0EXTIF
*SFR* 0000009AH   DATA     BYTE      P0TRIS
*SFR* 00000090H   DATA     BYTE      P1
*SFR* 00000090H.0 DATA     BIT       P10
*SFR* 00000090H.1 DATA     BIT       P11
*SFR* 00000090H.2 DATA     BIT       P12
*SFR* 00000090H.3 DATA     BIT       P13
*SFR* 00000090H.4 DATA     BIT       P14
*SFR* 00000090H.5 DATA     BIT       P15
*SFR* 00000090H.6 DATA     BIT       P16
*SFR* 00000090H.7 DATA     BIT       P17
*SFR* 000000ADH   DATA     BYTE      P1EXTIE
*SFR* 000000B5H   DATA     BYTE      P1EXTIF
*SFR* 000000A1H   DATA     BYTE      P1TRIS
*SFR* 000000A0H   DATA     BYTE      P2
*SFR* 000000A0H.0 DATA     BIT       P20
*SFR* 000000A0H.1 DATA     BIT       P21
*SFR* 000000A0H.2 DATA     BIT       P22
*SFR* 000000A0H.3 DATA     BIT       P23
*SFR* 000000A0H.4 DATA     BIT       P24
*SFR* 000000A0H.5 DATA     BIT       P25
*SFR* 000000A0H.6 DATA     BIT       P26
*SFR* 000000A0H.7 DATA     BIT       P27
*SFR* 000000AEH   DATA     BYTE      P2EXTIE
*SFR* 000000B6H   DATA     BYTE      P2EXTIF
*SFR* 000000A2H   DATA     BYTE      P2TRIS
*SFR* 000000B0H   DATA     BYTE      P3
*SFR* 000000B0H.0 DATA     BIT       P30
*SFR* 000000B0H.1 DATA     BIT       P31
*SFR* 000000B0H.2 DATA     BIT       P32
*SFR* 000000B0H.3 DATA     BIT       P33
*SFR* 000000B0H.4 DATA     BIT       P34
*SFR* 000000B0H.5 DATA     BIT       P35
*SFR* 000000B0H.6 DATA     BIT       P36
*SFR* 000000B0H.7 DATA     BIT       P37
*SFR* 000000AFH   DATA     BYTE      P3EXTIE
*SFR* 000000B7H   DATA     BYTE      P3EXTIF
*SFR* 000000A3H   DATA     BYTE      P3TRIS
*SFR* 00000087H   DATA     BYTE      PCON
*SFR* 000000A0H   DATA     BYTE      PPAGE_SFR
      02000035H   XDATA    INT       PreChargeDACDuty
*SFR* 000000B8H.4 DATA     BIT       PS0
*SFR* 000000B8H.6 DATA     BIT       PS1
*SFR* 000000D0H   DATA     BYTE      PSW
*SFR* 000000B8H.1 DATA     BIT       PT0
*SFR* 000000B8H.3 DATA     BIT       PT1
*SFR* 000000B8H.5 DATA     BIT       PT2
      01003B8BH   CODE     ---       PWM_DeInit
      01003607H   CODE     ---       PWM_ForceEnableOut
      01001CA2H   CODE     ---       PWM_Init
      010016F9H   CODE     ---       PWM_OutputCtrlHandler
*SFR* 000000A0H.3 DATA     BIT       PWMDACEN
LX51 LINKER/LOCATER V4.66.97.0                                                        05/18/2025  17:01:21  PAGE 20


      02000031H   XDATA    FLOAT     PWMDuty
*SFR* 000000B8H.0 DATA     BIT       PX0
*SFR* 000000B8H.2 DATA     BIT       PX1
      01001804H   CODE     ---       RampLowVoltHandler
      01003CE2H   CODE     ---       RampRestoreLVProtToMax
      010036DBH   CODE     ---       RandStrobeHandler
      01002656H   CODE     ---       ReadSysConfig
      01003DC6H   CODE     ---       ResetSOSModule
      01003DDAH   CODE     ---       ResetStrobeModule
      010036A8H   CODE     ---       RestoreToMinimumSysCurrent
      01003BDAH   CODE     ---       ReturnToOFFState
*SFR* 00000098H.0 DATA     BIT       RI0
*SFR* 000000CBH   DATA     BYTE      RLDH
*SFR* 000000CAH   DATA     BYTE      RLDL
*SFR* 000000D0H.3 DATA     BIT       RS0
*SFR* 000000D0H.4 DATA     BIT       RS1
      01001D6DH   CODE     ---       SaveSysConfig
*SFR* 00000099H   DATA     BYTE      SBUF
*SFR* 00000099H   DATA     BYTE      SBUF0
*SFR* 000000EBH   DATA     BYTE      SBUF1
*SFR* 00000098H   DATA     BYTE      SCON0
*SFR* 000000EAH   DATA     BYTE      SCON1
      01003D3EH   CODE     ---       SetFlashState
      01003822H   CODE     ---       SetSystemHBTimer
      01002BD2H   CODE     ---       ShowThermalStepDown
      01002EC2H   CODE     ---       SideKey_Int_Callback
      01002239H   CODE     ---       SideKey_LogicHandler
      010034A5H   CODE     ---       SideKey_TIM_Callback
      010033E0H   CODE     ---       SideKeyInit
      01002DF2H   CODE     ---       SleepMgmt
      0000005DH   DATA     INT       SleepTimer
      01002AEDH   CODE     ---       SOSFSM
      01003D1AH   CODE     ---       SOSTIMHandler
*SFR* 00000081H   DATA     BYTE      SP
*SFR* 000000ECH   DATA     BYTE      SPCR
*SFR* 000000EEH   DATA     BYTE      SPDR
*SFR* 000000EDH   DATA     BYTE      SPSR
*SFR* 000000EFH   DATA     BYTE      SSCR
      00000021H.6 BIT      BIT       StrobeFlag
      01003E08H   CODE     ---       StrobeOutputHandler
      00000044H   DATA     ---       SysCfg
*SFR* 00000080H.4 DATA     BIT       SYSHBLED
      00000021H.5 BIT      BIT       SysHFBitFlag
      00000060H   DATA     BYTE      SysMode
      01003ACCH   CODE     ---       SystemPeripheralCTRL
      01003E1DH   CODE     ---       SystemTelemHandler
*SFR* 000000C8H.2 DATA     BIT       T2CM
*SFR* 000000C8H   DATA     BYTE      T2CON
*SFR* 000000C8H.0 DATA     BIT       T2I0
*SFR* 000000C8H.1 DATA     BIT       T2I1
*SFR* 000000CFH   DATA     BYTE      T2IE
*SFR* 000000C9H   DATA     BYTE      T2IF
*SFR* 000000C8H.7 DATA     BIT       T2PS
*SFR* 000000C8H.3 DATA     BIT       T2R0
*SFR* 000000C8H.4 DATA     BIT       T2R1
*SFR* 000000D2H   DATA     BYTE      T34MOD
*SFR* 00000096H   DATA     BYTE      TA
*SFR* 00000088H   DATA     BYTE      TCON
*SFR* 00000088H.5 DATA     BIT       TF0
*SFR* 00000088H.7 DATA     BIT       TF1
*SFR* 0000008CH   DATA     BYTE      TH0
*SFR* 0000008DH   DATA     BYTE      TH1
*SFR* 000000CDH   DATA     BYTE      TH2
*SFR* 000000DBH   DATA     BYTE      TH3
*SFR* 000000E3H   DATA     BYTE      TH4
LX51 LINKER/LOCATER V4.66.97.0                                                        05/18/2025  17:01:21  PAGE 21


      01002D89H   CODE     ---       ThermalILIMCalc
      010027FDH   CODE     ---       ThermalMgmtProcess
      010010A0H   CODE     ---       ThermalPILoopCalc
*SFR* 00000098H.1 DATA     BIT       TI0
      01003E11H   CODE     ---       Timer0_IRQHandler
      0100002EH   CODE     ---       Timer2_IRQHandler
*SFR* 0000008AH   DATA     BYTE      TL0
*SFR* 0000008BH   DATA     BYTE      TL1
*SFR* 000000CCH   DATA     BYTE      TL2
*SFR* 000000DAH   DATA     BYTE      TL3
*SFR* 000000E2H   DATA     BYTE      TL4
*SFR* 00000089H   DATA     BYTE      TMOD
*SFR* 00000088H.4 DATA     BIT       TR0
*SFR* 00000088H.6 DATA     BIT       TR1
      01003BC1H   CODE     ---       TriggerVshowDisplay
      02000028H   XDATA    INT       TurboILIM
      010025C6H   CODE     ---       TurboLVILIMProcess
*SFR* 00000098H.2 DATA     BIT       U0RB8
*SFR* 00000098H.4 DATA     BIT       U0REN
*SFR* 00000098H.7 DATA     BIT       U0SM0
*SFR* 00000098H.6 DATA     BIT       U0SM1
*SFR* 00000098H.5 DATA     BIT       U0SM2
*SFR* 00000098H.3 DATA     BIT       U0TB8
      02000002H   XDATA    BYTE      VshowFSMState
*SFR* 00000097H   DATA     BYTE      WDCON
*SFR* 000000BDH   DATA     BYTE      WUTCRH
*SFR* 000000BCH   DATA     BYTE      WUTCRL



SYMBOL TABLE OF MODULE:  .\Objects\XTRBoost (?C_STARTUP)

      VALUE       REP       CLASS    TYPE      SYMBOL NAME
      ====================================================
      ---         MODULE    ---      ---       ?C_STARTUP
      01000000H   PUBLIC    CODE     NEAR LAB  ?C_STARTUP
      000000E0H   SFRSYM    DATA     BYTE      ACC
      000000F0H   SFRSYM    DATA     BYTE      B
      00000083H   SFRSYM    DATA     BYTE      DPH
      00000082H   SFRSYM    DATA     BYTE      DPL
      000000A0H   SFRSYM    DATA     BYTE      PPAGE_SFR
      00000081H   SFRSYM    DATA     BYTE      SP
      00000000H   SYMBOL    NUMBER   ---       IBPSTACK
      00000100H   SYMBOL    NUMBER   ---       IBPSTACKTOP
      00000100H   SYMBOL    NUMBER   ---       IDATALEN
      01002373H   SYMBOL    CODE     NEAR LAB  IDATALOOP
      00000000H   SYMBOL    NUMBER   ---       PBPSTACK
      00000100H   SYMBOL    NUMBER   ---       PBPSTACKTOP
      00000000H   SYMBOL    NUMBER   ---       PDATALEN
      00000000H   SYMBOL    NUMBER   ---       PDATASTART
      00000000H   SYMBOL    NUMBER   ---       PPAGE
      00000000H   SYMBOL    NUMBER   ---       PPAGEENABLE
      01002370H   SYMBOL    CODE     NEAR LAB  STARTUP1
      00000000H   SYMBOL    NUMBER   ---       XBPSTACK
      00010000H   SYMBOL    NUMBER   ---       XBPSTACKTOP
      00000400H   SYMBOL    NUMBER   ---       XDATALEN
      0100237EH   SYMBOL    CODE     NEAR LAB  XDATALOOP
      00000000H   SYMBOL    NUMBER   ---       XDATASTART

      01000000H   BLOCK     CODE     NEAR LAB  LVL=0
      01000000H   LINE      CODE     ---       #126
      ---         BLOCKEND  ---      ---       LVL=0

      01002370H   BLOCK     CODE     NEAR LAB  LVL=0
      01002370H   LINE      CODE     ---       #133
LX51 LINKER/LOCATER V4.66.97.0                                                        05/18/2025  17:01:21  PAGE 22


      01002372H   LINE      CODE     ---       #134
      01002373H   LINE      CODE     ---       #135
      01002374H   LINE      CODE     ---       #136
      01002376H   LINE      CODE     ---       #140
      01002379H   LINE      CODE     ---       #141
      0100237BH   LINE      CODE     ---       #145
      0100237DH   LINE      CODE     ---       #147
      0100237EH   LINE      CODE     ---       #148
      0100237FH   LINE      CODE     ---       #149
      01002380H   LINE      CODE     ---       #150
      01002382H   LINE      CODE     ---       #151
      01002384H   LINE      CODE     ---       #185
      01002387H   LINE      CODE     ---       #196
      ---         BLOCKEND  ---      ---       LVL=0

      ---         MODULE    ---      ---       MAIN
      010029FFH   PUBLIC    CODE     ---       main
      000000C8H.0 SFRSYM    DATA     BIT       T2I0
      000000C3H   SFRSYM    DATA     BYTE      CCH1
      00000080H   SFRSYM    DATA     BYTE      P0
      000000C8H.1 SFRSYM    DATA     BIT       T2I1
      000000C5H   SFRSYM    DATA     BYTE      CCH2
      00000090H   SFRSYM    DATA     BYTE      P1
      000000C7H   SFRSYM    DATA     BYTE      CCH3
      000000ACH   SFRSYM    DATA     BYTE      P0EXTIE
      000000A0H   SFRSYM    DATA     BYTE      P2
      000000B4H   SFRSYM    DATA     BYTE      P0EXTIF
      000000B0H   SFRSYM    DATA     BYTE      P3
      000000ADH   SFRSYM    DATA     BYTE      P1EXTIE
      000000D0H.6 SFRSYM    DATA     BIT       AC
      000000FFH   SFRSYM    DATA     BYTE      MCTRL
      000000C2H   SFRSYM    DATA     BYTE      CCL1
      000000B5H   SFRSYM    DATA     BYTE      P1EXTIF
      000000AEH   SFRSYM    DATA     BYTE      P2EXTIE
      000000C4H   SFRSYM    DATA     BYTE      CCL2
      000000B6H   SFRSYM    DATA     BYTE      P2EXTIF
      000000AFH   SFRSYM    DATA     BYTE      P3EXTIE
      000000A8H.7 SFRSYM    DATA     BIT       EA
      000000C6H   SFRSYM    DATA     BYTE      CCL3
      000000B7H   SFRSYM    DATA     BYTE      P3EXTIF
      000000AAH   SFRSYM    DATA     BYTE      EIE2
      000000B2H   SFRSYM    DATA     BYTE      EIF2
      000000C8H.3 SFRSYM    DATA     BIT       T2R0
      000000C8H.4 SFRSYM    DATA     BIT       T2R1
      00000083H   SFRSYM    DATA     BYTE      DPH0
      000000A8H   SFRSYM    DATA     BYTE      IE
      00000085H   SFRSYM    DATA     BYTE      DPH1
      000000B9H   SFRSYM    DATA     BYTE      EIP1
      000000BAH   SFRSYM    DATA     BYTE      EIP2
      00000082H   SFRSYM    DATA     BYTE      DPL0
      00000084H   SFRSYM    DATA     BYTE      DPL1
      000000C8H.6 SFRSYM    DATA     BIT       I3FR
      000000CFH   SFRSYM    DATA     BYTE      T2IE
      00000096H   SFRSYM    DATA     BYTE      TA
      000000C9H   SFRSYM    DATA     BYTE      T2IF
      000000C8H.2 SFRSYM    DATA     BIT       T2CM
      000000DFH   SFRSYM    DATA     BYTE      ADCON0
      000000DEH   SFRSYM    DATA     BYTE      ADCON1
      000000E9H   SFRSYM    DATA     BYTE      ADCON2
      000000B8H   SFRSYM    DATA     BYTE      IP
      000000CEH   SFRSYM    DATA     BYTE      CCEN
      000000D0H.7 SFRSYM    DATA     BIT       CY
      000000D2H   SFRSYM    DATA     BYTE      T34MOD
      00000093H   SFRSYM    DATA     BYTE      DPX0
      00000095H   SFRSYM    DATA     BYTE      DPX1
LX51 LINKER/LOCATER V4.66.97.0                                                        05/18/2025  17:01:21  PAGE 23


      000000F4H   SFRSYM    DATA     BYTE      I2CMSA
      000000F5H   SFRSYM    DATA     BYTE      I2CMCR
      00000081H   SFRSYM    DATA     BYTE      SP
      000000D0H.2 SFRSYM    DATA     BIT       OV
      000000F2H   SFRSYM    DATA     BYTE      I2CSCR
      000000C8H.7 SFRSYM    DATA     BIT       T2PS
      000000D1H   SFRSYM    DATA     BYTE      ADCMPC
      000000CBH   SFRSYM    DATA     BYTE      RLDH
      000000D5H   SFRSYM    DATA     BYTE      ADCMPH
      000000CAH   SFRSYM    DATA     BYTE      RLDL
      00000080H.0 SFRSYM    DATA     BIT       P00
      00000090H.0 SFRSYM    DATA     BIT       P10
      00000080H.1 SFRSYM    DATA     BIT       P01
      000000F7H   SFRSYM    DATA     BYTE      I2CMTP
      00000099H   SFRSYM    DATA     BYTE      SBUF
      00000087H   SFRSYM    DATA     BYTE      PCON
      000000A0H.0 SFRSYM    DATA     BIT       P20
      00000090H.1 SFRSYM    DATA     BIT       P11
      00000080H.2 SFRSYM    DATA     BIT       P02
      000000F5H   SFRSYM    DATA     BYTE      I2CMSR
      000000B0H.0 SFRSYM    DATA     BIT       P30
      000000A0H.1 SFRSYM    DATA     BIT       P21
      00000090H.2 SFRSYM    DATA     BIT       P12
      00000080H.3 SFRSYM    DATA     BIT       P03
      000000D4H   SFRSYM    DATA     BYTE      ADCMPL
      000000B0H.1 SFRSYM    DATA     BIT       P31
      000000A0H.2 SFRSYM    DATA     BIT       P22
      00000090H.3 SFRSYM    DATA     BIT       P13
      00000080H.4 SFRSYM    DATA     BIT       P04
      000000B0H.2 SFRSYM    DATA     BIT       P32
      000000A0H.3 SFRSYM    DATA     BIT       P23
      00000090H.4 SFRSYM    DATA     BIT       P14
      00000080H.5 SFRSYM    DATA     BIT       P05
      00000089H   SFRSYM    DATA     BYTE      TMOD
      00000088H   SFRSYM    DATA     BYTE      TCON
      000000B0H.3 SFRSYM    DATA     BIT       P33
      000000A0H.4 SFRSYM    DATA     BIT       P24
      00000090H.5 SFRSYM    DATA     BIT       P15
      00000080H.6 SFRSYM    DATA     BIT       P06
      000000B0H.4 SFRSYM    DATA     BIT       P34
      000000A0H.5 SFRSYM    DATA     BIT       P25
      00000090H.6 SFRSYM    DATA     BIT       P16
      00000080H.7 SFRSYM    DATA     BIT       P07
      000000B0H.5 SFRSYM    DATA     BIT       P35
      000000A0H.6 SFRSYM    DATA     BIT       P26
      00000090H.7 SFRSYM    DATA     BIT       P17
      000000F2H   SFRSYM    DATA     BYTE      I2CSSR
      000000B0H.6 SFRSYM    DATA     BIT       P36
      000000A0H.7 SFRSYM    DATA     BIT       P27
      000000ECH   SFRSYM    DATA     BYTE      SPCR
      000000DDH   SFRSYM    DATA     BYTE      ADRESH
      000000B0H.7 SFRSYM    DATA     BIT       P37
      000000EEH   SFRSYM    DATA     BYTE      SPDR
      000000EFH   SFRSYM    DATA     BYTE      SSCR
      000000D3H   SFRSYM    DATA     BYTE      ADDLYL
      000000DCH   SFRSYM    DATA     BYTE      ADRESL
      00000088H.1 SFRSYM    DATA     BIT       IE0
      00000088H.3 SFRSYM    DATA     BIT       IE1
      0000008FH   SFRSYM    DATA     BYTE      CLKDIV
      000000F0H   SFRSYM    DATA     BYTE      B
      00000091H   SFRSYM    DATA     BYTE      FUNCCR
      0000009AH   SFRSYM    DATA     BYTE      P0TRIS
      000000A1H   SFRSYM    DATA     BYTE      P1TRIS
      000000A2H   SFRSYM    DATA     BYTE      P2TRIS
      000000E0H   SFRSYM    DATA     BYTE      ACC
LX51 LINKER/LOCATER V4.66.97.0                                                        05/18/2025  17:01:21  PAGE 24


      000000A3H   SFRSYM    DATA     BYTE      P3TRIS
      000000A8H.4 SFRSYM    DATA     BIT       ES0
      000000A8H.6 SFRSYM    DATA     BIT       ES1
      000000A8H.1 SFRSYM    DATA     BIT       ET0
      000000EDH   SFRSYM    DATA     BYTE      SPSR
      000000A8H.3 SFRSYM    DATA     BIT       ET1
      00000088H.5 SFRSYM    DATA     BIT       TF0
      000000A8H.5 SFRSYM    DATA     BIT       ET2
      00000098H.0 SFRSYM    DATA     BIT       RI0
      00000088H.7 SFRSYM    DATA     BIT       TF1
      0000008CH   SFRSYM    DATA     BYTE      TH0
      000000A8H.0 SFRSYM    DATA     BIT       EX0
      00000098H.1 SFRSYM    DATA     BIT       TI0
      00000088H.0 SFRSYM    DATA     BIT       IT0
      0000008DH   SFRSYM    DATA     BYTE      TH1
      000000A8H.2 SFRSYM    DATA     BIT       EX1
      00000088H.2 SFRSYM    DATA     BIT       IT1
      000000CDH   SFRSYM    DATA     BYTE      TH2
      000000D0H.0 SFRSYM    DATA     BIT       P
      000000DBH   SFRSYM    DATA     BYTE      TH3
      000000E3H   SFRSYM    DATA     BYTE      TH4
      0000008AH   SFRSYM    DATA     BYTE      TL0
      0000008BH   SFRSYM    DATA     BYTE      TL1
      00000098H.2 SFRSYM    DATA     BIT       U0RB8
      000000CCH   SFRSYM    DATA     BYTE      TL2
      000000B8H.4 SFRSYM    DATA     BIT       PS0
      000000DAH   SFRSYM    DATA     BYTE      TL3
      000000BFH   SFRSYM    DATA     BYTE      BUZCON
      000000B8H.6 SFRSYM    DATA     BIT       PS1
      000000B8H.1 SFRSYM    DATA     BIT       PT0
      00000098H.3 SFRSYM    DATA     BIT       U0TB8
      000000E2H   SFRSYM    DATA     BYTE      TL4
      000000D0H.3 SFRSYM    DATA     BIT       RS0
      000000B8H.3 SFRSYM    DATA     BIT       PT1
      000000D0H.4 SFRSYM    DATA     BIT       RS1
      000000B8H.5 SFRSYM    DATA     BIT       PT2
      00000098H.7 SFRSYM    DATA     BIT       U0SM0
      00000088H.4 SFRSYM    DATA     BIT       TR0
      000000BEH   SFRSYM    DATA     BYTE      BUZDIV
      00000098H.6 SFRSYM    DATA     BIT       U0SM1
      00000088H.6 SFRSYM    DATA     BIT       TR1
      000000B8H.0 SFRSYM    DATA     BIT       PX0
      00000098H.5 SFRSYM    DATA     BIT       U0SM2
      000000B8H.2 SFRSYM    DATA     BIT       PX1
      000000BDH   SFRSYM    DATA     BYTE      WUTCRH
      00000099H   SFRSYM    DATA     BYTE      SBUF0
      000000EBH   SFRSYM    DATA     BYTE      SBUF1
      000000BCH   SFRSYM    DATA     BYTE      WUTCRL
      00000098H   SFRSYM    DATA     BYTE      SCON0
      000000EAH   SFRSYM    DATA     BYTE      SCON1
      000000C8H   SFRSYM    DATA     BYTE      T2CON
      00000086H   SFRSYM    DATA     BYTE      DPS
      000000FEH   SFRSYM    DATA     BYTE      MDATA
      000000F6H   SFRSYM    DATA     BYTE      I2CMBUF
      000000F1H   SFRSYM    DATA     BYTE      I2CSADR
      00000098H.4 SFRSYM    DATA     BIT       U0REN
      000000C8H.5 SFRSYM    DATA     BIT       CAPES
      000000FDH   SFRSYM    DATA     BYTE      MADRH
      0000008EH   SFRSYM    DATA     BYTE      CKCON
      000000F3H   SFRSYM    DATA     BYTE      I2CSBUF
      000000FCH   SFRSYM    DATA     BYTE      MADRL
      000000D0H.5 SFRSYM    DATA     BIT       F0
      000000FBH   SFRSYM    DATA     BYTE      MLOCK
      000000D0H   SFRSYM    DATA     BYTE      PSW
      00000097H   SFRSYM    DATA     BYTE      WDCON
LX51 LINKER/LOCATER V4.66.97.0                                                        05/18/2025  17:01:21  PAGE 25



      010029FFH   BLOCK     CODE     ---       LVL=0
      010029FFH   BLOCK     CODE     NEAR LAB  LVL=1
      00000020H.0 SYMBOL    BIT      BIT       TaskSel
      ---         BLOCKEND  ---      ---       LVL=1
      010029FFH   LINE      CODE     ---       #23
      010029FFH   LINE      CODE     ---       #24
      010029FFH   LINE      CODE     ---       #25
      01002A01H   LINE      CODE     ---       #27
      01002A04H   LINE      CODE     ---       #28
      01002A09H   LINE      CODE     ---       #30
      01002A0CH   LINE      CODE     ---       #31
      01002A0FH   LINE      CODE     ---       #32
      01002A12H   LINE      CODE     ---       #33
      01002A15H   LINE      CODE     ---       #34
      01002A18H   LINE      CODE     ---       #35
      01002A1BH   LINE      CODE     ---       #36
      01002A1EH   LINE      CODE     ---       #37
      01002A21H   LINE      CODE     ---       #38
      01002A26H   LINE      CODE     ---       #40
      01002A26H   LINE      CODE     ---       #41
      01002A26H   LINE      CODE     ---       #43
      01002A29H   LINE      CODE     ---       #44
      01002A2CH   LINE      CODE     ---       #45
      01002A2FH   LINE      CODE     ---       #46
      01002A32H   LINE      CODE     ---       #47
      01002A35H   LINE      CODE     ---       #48
      01002A38H   LINE      CODE     ---       #49
      01002A3BH   LINE      CODE     ---       #51
      01002A3EH   LINE      CODE     ---       #52
      01002A40H   LINE      CODE     ---       #54
      01002A43H   LINE      CODE     ---       #55
      01002A43H   LINE      CODE     ---       #56
      01002A46H   LINE      CODE     ---       #57
      01002A49H   LINE      CODE     ---       #58
      01002A4CH   LINE      CODE     ---       #59
      01002A4FH   LINE      CODE     ---       #60
      01002A52H   LINE      CODE     ---       #61
      01002A55H   LINE      CODE     ---       #62
      01002A58H   LINE      CODE     ---       #63
      01002A5BH   LINE      CODE     ---       #65
      01002A5DH   LINE      CODE     ---       #66
      01002A5FH   LINE      CODE     ---       #69
      01002A5FH   LINE      CODE     ---       #70
      01002A62H   LINE      CODE     ---       #71
      01002A65H   LINE      CODE     ---       #72
      01002A68H   LINE      CODE     ---       #73
      01002A6BH   LINE      CODE     ---       #74
      01002A6EH   LINE      CODE     ---       #75
      01002A71H   LINE      CODE     ---       #76
      01002A74H   LINE      CODE     ---       #78
      01002A76H   LINE      CODE     ---       #79
      01002A76H   LINE      CODE     ---       #80
      ---         BLOCKEND  ---      ---       LVL=0

      ---         MODULE    ---      ---       GPIO
      01002B60H   PUBLIC    CODE     ---       _GPIO_SetMUXMode
      0100240AH   PUBLIC    CODE     ---       _GPIO_GetExtIntMode
      01002FEAH   PUBLIC    CODE     ---       _GPIO_SetExtIntMode
      00000020H.3 PUBLIC    BIT      BIT       ?_GPIO_WriteBit?BIT
      01001E2BH   PUBLIC    CODE     ---       _GPIO_WriteBit
      01003A23H   PUBLIC    CODE     ---       _GPIO_DisableInt
      010037F6H   PUBLIC    CODE     ---       _GPIO_CheckIfIntEnabled
      01003B6DH   PUBLIC    CODE     ---       _GPIO_EnableInt
      01000DD3H   PUBLIC    CODE     ---       _GPIO_ConfigGPIOMode
LX51 LINKER/LOCATER V4.66.97.0                                                        05/18/2025  17:01:21  PAGE 26


      000000C8H.0 SFRSYM    DATA     BIT       T2I0
      000000C3H   SFRSYM    DATA     BYTE      CCH1
      00000080H   SFRSYM    DATA     BYTE      P0
      000000C8H.1 SFRSYM    DATA     BIT       T2I1
      000000C5H   SFRSYM    DATA     BYTE      CCH2
      00000090H   SFRSYM    DATA     BYTE      P1
      000000C7H   SFRSYM    DATA     BYTE      CCH3
      000000ACH   SFRSYM    DATA     BYTE      P0EXTIE
      000000A0H   SFRSYM    DATA     BYTE      P2
      000000B4H   SFRSYM    DATA     BYTE      P0EXTIF
      000000B0H   SFRSYM    DATA     BYTE      P3
      000000ADH   SFRSYM    DATA     BYTE      P1EXTIE
      000000D0H.6 SFRSYM    DATA     BIT       AC
      000000FFH   SFRSYM    DATA     BYTE      MCTRL
      000000C2H   SFRSYM    DATA     BYTE      CCL1
      000000B5H   SFRSYM    DATA     BYTE      P1EXTIF
      000000AEH   SFRSYM    DATA     BYTE      P2EXTIE
      000000C4H   SFRSYM    DATA     BYTE      CCL2
      000000B6H   SFRSYM    DATA     BYTE      P2EXTIF
      000000AFH   SFRSYM    DATA     BYTE      P3EXTIE
      000000A8H.7 SFRSYM    DATA     BIT       EA
      000000C6H   SFRSYM    DATA     BYTE      CCL3
      000000B7H   SFRSYM    DATA     BYTE      P3EXTIF
      000000AAH   SFRSYM    DATA     BYTE      EIE2
      000000B2H   SFRSYM    DATA     BYTE      EIF2
      000000C8H.3 SFRSYM    DATA     BIT       T2R0
      000000C8H.4 SFRSYM    DATA     BIT       T2R1
      00000083H   SFRSYM    DATA     BYTE      DPH0
      000000A8H   SFRSYM    DATA     BYTE      IE
      00000085H   SFRSYM    DATA     BYTE      DPH1
      000000B9H   SFRSYM    DATA     BYTE      EIP1
      000000BAH   SFRSYM    DATA     BYTE      EIP2
      00000082H   SFRSYM    DATA     BYTE      DPL0
      00000084H   SFRSYM    DATA     BYTE      DPL1
      000000C8H.6 SFRSYM    DATA     BIT       I3FR
      000000CFH   SFRSYM    DATA     BYTE      T2IE
      00000096H   SFRSYM    DATA     BYTE      TA
      000000C9H   SFRSYM    DATA     BYTE      T2IF
      000000C8H.2 SFRSYM    DATA     BIT       T2CM
      000000DFH   SFRSYM    DATA     BYTE      ADCON0
      000000DEH   SFRSYM    DATA     BYTE      ADCON1
      000000E9H   SFRSYM    DATA     BYTE      ADCON2
      000000B8H   SFRSYM    DATA     BYTE      IP
      000000CEH   SFRSYM    DATA     BYTE      CCEN
      000000D0H.7 SFRSYM    DATA     BIT       CY
      000000D2H   SFRSYM    DATA     BYTE      T34MOD
      00000093H   SFRSYM    DATA     BYTE      DPX0
      00000095H   SFRSYM    DATA     BYTE      DPX1
      000000F4H   SFRSYM    DATA     BYTE      I2CMSA
      000000F5H   SFRSYM    DATA     BYTE      I2CMCR
      00000081H   SFRSYM    DATA     BYTE      SP
      000000D0H.2 SFRSYM    DATA     BIT       OV
      000000F2H   SFRSYM    DATA     BYTE      I2CSCR
      000000C8H.7 SFRSYM    DATA     BIT       T2PS
      000000D1H   SFRSYM    DATA     BYTE      ADCMPC
      000000CBH   SFRSYM    DATA     BYTE      RLDH
      000000D5H   SFRSYM    DATA     BYTE      ADCMPH
      000000CAH   SFRSYM    DATA     BYTE      RLDL
      00000080H.0 SFRSYM    DATA     BIT       P00
      00000090H.0 SFRSYM    DATA     BIT       P10
      00000080H.1 SFRSYM    DATA     BIT       P01
      000000F7H   SFRSYM    DATA     BYTE      I2CMTP
      00000099H   SFRSYM    DATA     BYTE      SBUF
      00000087H   SFRSYM    DATA     BYTE      PCON
      000000A0H.0 SFRSYM    DATA     BIT       P20
LX51 LINKER/LOCATER V4.66.97.0                                                        05/18/2025  17:01:21  PAGE 27


      00000090H.1 SFRSYM    DATA     BIT       P11
      00000080H.2 SFRSYM    DATA     BIT       P02
      000000F5H   SFRSYM    DATA     BYTE      I2CMSR
      000000B0H.0 SFRSYM    DATA     BIT       P30
      000000A0H.1 SFRSYM    DATA     BIT       P21
      00000090H.2 SFRSYM    DATA     BIT       P12
      00000080H.3 SFRSYM    DATA     BIT       P03
      000000D4H   SFRSYM    DATA     BYTE      ADCMPL
      000000B0H.1 SFRSYM    DATA     BIT       P31
      000000A0H.2 SFRSYM    DATA     BIT       P22
      00000090H.3 SFRSYM    DATA     BIT       P13
      00000080H.4 SFRSYM    DATA     BIT       P04
      000000B0H.2 SFRSYM    DATA     BIT       P32
      000000A0H.3 SFRSYM    DATA     BIT       P23
      00000090H.4 SFRSYM    DATA     BIT       P14
      00000080H.5 SFRSYM    DATA     BIT       P05
      00000089H   SFRSYM    DATA     BYTE      TMOD
      00000088H   SFRSYM    DATA     BYTE      TCON
      000000B0H.3 SFRSYM    DATA     BIT       P33
      000000A0H.4 SFRSYM    DATA     BIT       P24
      00000090H.5 SFRSYM    DATA     BIT       P15
      00000080H.6 SFRSYM    DATA     BIT       P06
      000000B0H.4 SFRSYM    DATA     BIT       P34
      000000A0H.5 SFRSYM    DATA     BIT       P25
      00000090H.6 SFRSYM    DATA     BIT       P16
      00000080H.7 SFRSYM    DATA     BIT       P07
      000000B0H.5 SFRSYM    DATA     BIT       P35
      000000A0H.6 SFRSYM    DATA     BIT       P26
      00000090H.7 SFRSYM    DATA     BIT       P17
      000000F2H   SFRSYM    DATA     BYTE      I2CSSR
      000000B0H.6 SFRSYM    DATA     BIT       P36
      000000A0H.7 SFRSYM    DATA     BIT       P27
      000000ECH   SFRSYM    DATA     BYTE      SPCR
      000000DDH   SFRSYM    DATA     BYTE      ADRESH
      000000B0H.7 SFRSYM    DATA     BIT       P37
      000000EEH   SFRSYM    DATA     BYTE      SPDR
      000000EFH   SFRSYM    DATA     BYTE      SSCR
      000000D3H   SFRSYM    DATA     BYTE      ADDLYL
      000000DCH   SFRSYM    DATA     BYTE      ADRESL
      00000088H.1 SFRSYM    DATA     BIT       IE0
      00000088H.3 SFRSYM    DATA     BIT       IE1
      0000008FH   SFRSYM    DATA     BYTE      CLKDIV
      000000F0H   SFRSYM    DATA     BYTE      B
      00000091H   SFRSYM    DATA     BYTE      FUNCCR
      0000009AH   SFRSYM    DATA     BYTE      P0TRIS
      000000A1H   SFRSYM    DATA     BYTE      P1TRIS
      000000A2H   SFRSYM    DATA     BYTE      P2TRIS
      000000E0H   SFRSYM    DATA     BYTE      ACC
      000000A3H   SFRSYM    DATA     BYTE      P3TRIS
      000000A8H.4 SFRSYM    DATA     BIT       ES0
      000000A8H.6 SFRSYM    DATA     BIT       ES1
      000000A8H.1 SFRSYM    DATA     BIT       ET0
      000000EDH   SFRSYM    DATA     BYTE      SPSR
      000000A8H.3 SFRSYM    DATA     BIT       ET1
      00000088H.5 SFRSYM    DATA     BIT       TF0
      000000A8H.5 SFRSYM    DATA     BIT       ET2
      00000098H.0 SFRSYM    DATA     BIT       RI0
      00000088H.7 SFRSYM    DATA     BIT       TF1
      0000008CH   SFRSYM    DATA     BYTE      TH0
      000000A8H.0 SFRSYM    DATA     BIT       EX0
      00000098H.1 SFRSYM    DATA     BIT       TI0
      00000088H.0 SFRSYM    DATA     BIT       IT0
      0000008DH   SFRSYM    DATA     BYTE      TH1
      000000A8H.2 SFRSYM    DATA     BIT       EX1
      00000088H.2 SFRSYM    DATA     BIT       IT1
LX51 LINKER/LOCATER V4.66.97.0                                                        05/18/2025  17:01:21  PAGE 28


      000000CDH   SFRSYM    DATA     BYTE      TH2
      000000D0H.0 SFRSYM    DATA     BIT       P
      000000DBH   SFRSYM    DATA     BYTE      TH3
      000000E3H   SFRSYM    DATA     BYTE      TH4
      0000008AH   SFRSYM    DATA     BYTE      TL0
      0000008BH   SFRSYM    DATA     BYTE      TL1
      00000098H.2 SFRSYM    DATA     BIT       U0RB8
      000000CCH   SFRSYM    DATA     BYTE      TL2
      000000B8H.4 SFRSYM    DATA     BIT       PS0
      000000DAH   SFRSYM    DATA     BYTE      TL3
      000000BFH   SFRSYM    DATA     BYTE      BUZCON
      000000B8H.6 SFRSYM    DATA     BIT       PS1
      000000B8H.1 SFRSYM    DATA     BIT       PT0
      00000098H.3 SFRSYM    DATA     BIT       U0TB8
      000000E2H   SFRSYM    DATA     BYTE      TL4
      000000D0H.3 SFRSYM    DATA     BIT       RS0
      000000B8H.3 SFRSYM    DATA     BIT       PT1
      000000D0H.4 SFRSYM    DATA     BIT       RS1
      000000B8H.5 SFRSYM    DATA     BIT       PT2
      00000098H.7 SFRSYM    DATA     BIT       U0SM0
      00000088H.4 SFRSYM    DATA     BIT       TR0
      000000BEH   SFRSYM    DATA     BYTE      BUZDIV
      00000098H.6 SFRSYM    DATA     BIT       U0SM1
      00000088H.6 SFRSYM    DATA     BIT       TR1
      000000B8H.0 SFRSYM    DATA     BIT       PX0
      00000098H.5 SFRSYM    DATA     BIT       U0SM2
      000000B8H.2 SFRSYM    DATA     BIT       PX1
      000000BDH   SFRSYM    DATA     BYTE      WUTCRH
      00000099H   SFRSYM    DATA     BYTE      SBUF0
      000000EBH   SFRSYM    DATA     BYTE      SBUF1
      000000BCH   SFRSYM    DATA     BYTE      WUTCRL
      00000098H   SFRSYM    DATA     BYTE      SCON0
      000000EAH   SFRSYM    DATA     BYTE      SCON1
      000000C8H   SFRSYM    DATA     BYTE      T2CON
      00000086H   SFRSYM    DATA     BYTE      DPS
      000000FEH   SFRSYM    DATA     BYTE      MDATA
      000000F6H   SFRSYM    DATA     BYTE      I2CMBUF
      000000F1H   SFRSYM    DATA     BYTE      I2CSADR
      00000098H.4 SFRSYM    DATA     BIT       U0REN
      000000C8H.5 SFRSYM    DATA     BIT       CAPES
      000000FDH   SFRSYM    DATA     BYTE      MADRH
      0000008EH   SFRSYM    DATA     BYTE      CKCON
      000000F3H   SFRSYM    DATA     BYTE      I2CSBUF
      000000FCH   SFRSYM    DATA     BYTE      MADRL
      000000D0H.5 SFRSYM    DATA     BIT       F0
      000000FBH   SFRSYM    DATA     BYTE      MLOCK
      000000D0H   SFRSYM    DATA     BYTE      PSW
      00000097H   SFRSYM    DATA     BYTE      WDCON

      010020F4H   BLOCK     CODE     ---       LVL=0
      ---         BLOCKEND  ---      ---       LVL=0

      01000DD3H   BLOCK     CODE     ---       LVL=0
      00000027H   SYMBOL    DATA     BYTE      Port
      00000005H   SYMBOL    DATA     BYTE      PinMSK
      00000001H   SYMBOL    DATA     ---       Cfg
      01000DD5H   BLOCK     CODE     NEAR LAB  LVL=1
      00000028H   SYMBOL    DATA     INT       TRISMSK
      0000002AH   SYMBOL    DATA     INT       ODMSK
      0000002CH   SYMBOL    DATA     INT       UPMSK
      0000002EH   SYMBOL    DATA     INT       RDMSK
      00000006H   SYMBOL    DATA     INT       DRMSK
      00000030H   SYMBOL    DATA     INT       SRMSK
      ---         BLOCKEND  ---      ---       LVL=1
      01000DD3H   LINE      CODE     ---       #77
LX51 LINKER/LOCATER V4.66.97.0                                                        05/18/2025  17:01:21  PAGE 29


      01000DD5H   LINE      CODE     ---       #78
      01000DD5H   LINE      CODE     ---       #82
      01000DE9H   LINE      CODE     ---       #83
      01000DE9H   LINE      CODE     ---       #84
      01000DE9H   LINE      CODE     ---       #85
      01000DE9H   LINE      CODE     ---       #86
      01000DE9H   LINE      CODE     ---       #87
      01000DECH   LINE      CODE     ---       #88
      01000DEFH   LINE      CODE     ---       #89
      01000DF1H   LINE      CODE     ---       #90
      01000DF1H   LINE      CODE     ---       #91
      01000DF1H   LINE      CODE     ---       #92
      01000DF1H   LINE      CODE     ---       #93
      01000DFDH   LINE      CODE     ---       #94
      01000E05H   LINE      CODE     ---       #95
      01000E07H   LINE      CODE     ---       #96
      01000E07H   LINE      CODE     ---       #97
      01000E07H   LINE      CODE     ---       #98
      01000E07H   LINE      CODE     ---       #99
      01000E13H   LINE      CODE     ---       #100
      01000E1DH   LINE      CODE     ---       #101
      01000E1FH   LINE      CODE     ---       #102
      01000E1FH   LINE      CODE     ---       #103
      01000E1FH   LINE      CODE     ---       #104
      01000E20H   LINE      CODE     ---       #105
      01000E26H   LINE      CODE     ---       #106
      01000E30H   LINE      CODE     ---       #107
      01000E45H   LINE      CODE     ---       #108
      01000E45H   LINE      CODE     ---       #109
      01000E5DH   LINE      CODE     ---       #110
      01000E71H   LINE      CODE     ---       #112
      01000E8CH   LINE      CODE     ---       #113
      01000E8CH   LINE      CODE     ---       #114
      01000E8CH   LINE      CODE     ---       #115
      01000E9FH   LINE      CODE     ---       #116
      01000EB7H   LINE      CODE     ---       #117
      01000ECCH   LINE      CODE     ---       #118
      01000EE1H   LINE      CODE     ---       #119
      01000EF7H   LINE      CODE     ---       #120
      01000F0EH   LINE      CODE     ---       #121
      01000F0FH   LINE      CODE     ---       #122
      01000F0FH   LINE      CODE     ---       #123
      01000F22H   LINE      CODE     ---       #124
      01000F3AH   LINE      CODE     ---       #125
      01000F4FH   LINE      CODE     ---       #126
      01000F64H   LINE      CODE     ---       #127
      01000F7AH   LINE      CODE     ---       #128
      01000F91H   LINE      CODE     ---       #129
      01000F92H   LINE      CODE     ---       #130
      01000F92H   LINE      CODE     ---       #131
      01000FA5H   LINE      CODE     ---       #132
      01000FBDH   LINE      CODE     ---       #133
      01000FD2H   LINE      CODE     ---       #134
      01000FE7H   LINE      CODE     ---       #135
      01000FFDH   LINE      CODE     ---       #136
      01001014H   LINE      CODE     ---       #137
      01001015H   LINE      CODE     ---       #138
      01001015H   LINE      CODE     ---       #139
      01001028H   LINE      CODE     ---       #140
      01001040H   LINE      CODE     ---       #141
      01001055H   LINE      CODE     ---       #142
      0100106AH   LINE      CODE     ---       #143
      01001083H   LINE      CODE     ---       #144
      0100109FH   LINE      CODE     ---       #145
      0100109FH   LINE      CODE     ---       #146
LX51 LINKER/LOCATER V4.66.97.0                                                        05/18/2025  17:01:21  PAGE 30


      0100109FH   LINE      CODE     ---       #147
      ---         BLOCKEND  ---      ---       LVL=0

      01003B6DH   BLOCK     CODE     ---       LVL=0
      00000007H   SYMBOL    DATA     BYTE      Port
      00000005H   SYMBOL    DATA     BYTE      PinMSK
      01003B6DH   LINE      CODE     ---       #161
      01003B6DH   LINE      CODE     ---       #162
      01003B6DH   LINE      CODE     ---       #163
      01003B7BH   LINE      CODE     ---       #164
      01003B7BH   LINE      CODE     ---       #165
      01003B7BH   LINE      CODE     ---       #166
      01003B7EH   LINE      CODE     ---       #167
      01003B7FH   LINE      CODE     ---       #168
      01003B7FH   LINE      CODE     ---       #169
      01003B82H   LINE      CODE     ---       #170
      01003B83H   LINE      CODE     ---       #171
      01003B83H   LINE      CODE     ---       #172
      01003B86H   LINE      CODE     ---       #173
      01003B87H   LINE      CODE     ---       #174
      01003B87H   LINE      CODE     ---       #175
      01003B8AH   LINE      CODE     ---       #176
      01003B8AH   LINE      CODE     ---       #177
      01003B8AH   LINE      CODE     ---       #178
      01003B8AH   LINE      CODE     ---       #179
      01003B8AH   LINE      CODE     ---       #180
      ---         BLOCKEND  ---      ---       LVL=0

      010037F6H   BLOCK     CODE     ---       LVL=0
      00000007H   SYMBOL    DATA     BYTE      Port
      00000005H   SYMBOL    DATA     BYTE      PinMSK
      010037F6H   LINE      CODE     ---       #193
      010037F6H   LINE      CODE     ---       #194
      010037F6H   LINE      CODE     ---       #195
      01003804H   LINE      CODE     ---       #196
      01003804H   LINE      CODE     ---       #197
      01003804H   LINE      CODE     ---       #198
      0100380BH   LINE      CODE     ---       #199
      0100380BH   LINE      CODE     ---       #200
      0100380BH   LINE      CODE     ---       #201
      01003812H   LINE      CODE     ---       #202
      01003812H   LINE      CODE     ---       #203
      01003812H   LINE      CODE     ---       #204
      01003819H   LINE      CODE     ---       #205
      01003819H   LINE      CODE     ---       #206
      01003819H   LINE      CODE     ---       #207
      01003820H   LINE      CODE     ---       #208
      01003820H   LINE      CODE     ---       #209
      01003820H   LINE      CODE     ---       #211
      01003821H   LINE      CODE     ---       #212
      ---         BLOCKEND  ---      ---       LVL=0

      01003A23H   BLOCK     CODE     ---       LVL=0
      00000007H   SYMBOL    DATA     BYTE      Port
      00000005H   SYMBOL    DATA     BYTE      PinMSK
      01003A23H   LINE      CODE     ---       #225
      01003A23H   LINE      CODE     ---       #226
      01003A23H   LINE      CODE     ---       #227
      01003A31H   LINE      CODE     ---       #228
      01003A31H   LINE      CODE     ---       #229
      01003A31H   LINE      CODE     ---       #230
      01003A35H   LINE      CODE     ---       #231
      01003A36H   LINE      CODE     ---       #232
      01003A36H   LINE      CODE     ---       #233
      01003A3AH   LINE      CODE     ---       #234
LX51 LINKER/LOCATER V4.66.97.0                                                        05/18/2025  17:01:21  PAGE 31


      01003A3BH   LINE      CODE     ---       #235
      01003A3BH   LINE      CODE     ---       #236
      01003A3FH   LINE      CODE     ---       #237
      01003A40H   LINE      CODE     ---       #238
      01003A40H   LINE      CODE     ---       #239
      01003A44H   LINE      CODE     ---       #240
      01003A44H   LINE      CODE     ---       #241
      01003A44H   LINE      CODE     ---       #242
      01003A44H   LINE      CODE     ---       #243
      01003A44H   LINE      CODE     ---       #244
      ---         BLOCKEND  ---      ---       LVL=0

      01001E2BH   BLOCK     CODE     ---       LVL=0
      00000007H   SYMBOL    DATA     BYTE      Port
      00000005H   SYMBOL    DATA     BYTE      PinNum
      00000020H.3 SYMBOL    BIT      BIT       Val
      01001E2BH   LINE      CODE     ---       #259
      01001E2BH   LINE      CODE     ---       #260
      01001E2BH   LINE      CODE     ---       #261
      01001E3FH   LINE      CODE     ---       #262
      01001E3FH   LINE      CODE     ---       #263
      01001E3FH   LINE      CODE     ---       #264
      01001E47H   LINE      CODE     ---       #265
      01001E58H   LINE      CODE     ---       #266
      01001E66H   LINE      CODE     ---       #267
      01001E67H   LINE      CODE     ---       #268
      01001E67H   LINE      CODE     ---       #269
      01001E71H   LINE      CODE     ---       #270
      01001E82H   LINE      CODE     ---       #271
      01001E90H   LINE      CODE     ---       #272
      01001E91H   LINE      CODE     ---       #273
      01001E91H   LINE      CODE     ---       #274
      01001E9BH   LINE      CODE     ---       #275
      01001EACH   LINE      CODE     ---       #276
      01001EBAH   LINE      CODE     ---       #277
      01001EBBH   LINE      CODE     ---       #278
      01001EBBH   LINE      CODE     ---       #279
      01001EC1H   LINE      CODE     ---       #280
      01001ED2H   LINE      CODE     ---       #281
      01001EE2H   LINE      CODE     ---       #282
      01001EE2H   LINE      CODE     ---       #283
      01001EE2H   LINE      CODE     ---       #284
      01001EE2H   LINE      CODE     ---       #285
      ---         BLOCKEND  ---      ---       LVL=0

      01002FEAH   BLOCK     CODE     ---       LVL=0
      00000007H   SYMBOL    DATA     BYTE      Port
      00000005H   SYMBOL    DATA     BYTE      PinNum
      00000003H   SYMBOL    DATA     BYTE      Mode
      01002FEAH   BLOCK     CODE     NEAR LAB  LVL=1
      00000027H   SYMBOL    DATA     ---       PCFG
      ---         BLOCKEND  ---      ---       LVL=1
      01002FEAH   LINE      CODE     ---       #302
      01002FEAH   LINE      CODE     ---       #303
      01002FEAH   LINE      CODE     ---       #306
      01002FF1H   LINE      CODE     ---       #308
      01002FFFH   LINE      CODE     ---       #309
      01002FFFH   LINE      CODE     ---       #310
      01002FFFH   LINE      CODE     ---       #311
      01003004H   LINE      CODE     ---       #312
      01003007H   LINE      CODE     ---       #313
      01003009H   LINE      CODE     ---       #314
      01003009H   LINE      CODE     ---       #315
      01003013H   LINE      CODE     ---       #316
      01003016H   LINE      CODE     ---       #317
LX51 LINKER/LOCATER V4.66.97.0                                                        05/18/2025  17:01:21  PAGE 32


      01003018H   LINE      CODE     ---       #318
      01003018H   LINE      CODE     ---       #319
      01003022H   LINE      CODE     ---       #320
      01003028H   LINE      CODE     ---       #321
      0100302AH   LINE      CODE     ---       #322
      0100302AH   LINE      CODE     ---       #323
      01003030H   LINE      CODE     ---       #324
      0100303AH   LINE      CODE     ---       #325
      0100303AH   LINE      CODE     ---       #326
      0100303AH   LINE      CODE     ---       #327
      0100303AH   LINE      CODE     ---       #328
      01003044H   LINE      CODE     ---       #329
      ---         BLOCKEND  ---      ---       LVL=0

      0100240AH   BLOCK     CODE     ---       LVL=0
      00000007H   SYMBOL    DATA     BYTE      Port
      00000005H   SYMBOL    DATA     BYTE      PinNum
      0100240AH   BLOCK     CODE     NEAR LAB  LVL=1
      00000004H   SYMBOL    DATA     BYTE      flag
      00000002H   SYMBOL    DATA     ---       PCFG
      ---         BLOCKEND  ---      ---       LVL=1
      0100240AH   LINE      CODE     ---       #347
      0100240AH   LINE      CODE     ---       #348
      0100240AH   LINE      CODE     ---       #352
      01002418H   LINE      CODE     ---       #353
      01002418H   LINE      CODE     ---       #354
      01002418H   LINE      CODE     ---       #355
      0100241FH   LINE      CODE     ---       #356
      01002422H   LINE      CODE     ---       #357
      0100242EH   LINE      CODE     ---       #358
      01002430H   LINE      CODE     ---       #359
      01002430H   LINE      CODE     ---       #360
      0100243CH   LINE      CODE     ---       #361
      0100243FH   LINE      CODE     ---       #362
      0100244BH   LINE      CODE     ---       #363
      0100244DH   LINE      CODE     ---       #364
      0100244DH   LINE      CODE     ---       #365
      01002459H   LINE      CODE     ---       #366
      0100245CH   LINE      CODE     ---       #367
      01002468H   LINE      CODE     ---       #368
      0100246AH   LINE      CODE     ---       #369
      0100246AH   LINE      CODE     ---       #370
      01002472H   LINE      CODE     ---       #371
      0100247AH   LINE      CODE     ---       #372
      0100248AH   LINE      CODE     ---       #373
      0100248CH   LINE      CODE     ---       #374
      01002490H   LINE      CODE     ---       #375
      01002490H   LINE      CODE     ---       #377
      01002496H   LINE      CODE     ---       #378
      010024A0H   LINE      CODE     ---       #379
      ---         BLOCKEND  ---      ---       LVL=0

      01002B60H   BLOCK     CODE     ---       LVL=0
      00000007H   SYMBOL    DATA     BYTE      Port
      00000005H   SYMBOL    DATA     BYTE      PinNum
      00000003H   SYMBOL    DATA     BYTE      Mode
      01002B60H   BLOCK     CODE     NEAR LAB  LVL=1
      00000027H   SYMBOL    DATA     ---       PCFG
      ---         BLOCKEND  ---      ---       LVL=1
      01002B60H   LINE      CODE     ---       #418
      01002B60H   LINE      CODE     ---       #419
      01002B60H   LINE      CODE     ---       #422
      01002B6DH   LINE      CODE     ---       #423
      01002B7EH   LINE      CODE     ---       #425
      01002B8CH   LINE      CODE     ---       #426
LX51 LINKER/LOCATER V4.66.97.0                                                        05/18/2025  17:01:21  PAGE 33


      01002B8CH   LINE      CODE     ---       #427
      01002B8CH   LINE      CODE     ---       #428
      01002B91H   LINE      CODE     ---       #429
      01002B94H   LINE      CODE     ---       #430
      01002B96H   LINE      CODE     ---       #431
      01002B96H   LINE      CODE     ---       #432
      01002BA0H   LINE      CODE     ---       #433
      01002BA3H   LINE      CODE     ---       #434
      01002BA5H   LINE      CODE     ---       #435
      01002BA5H   LINE      CODE     ---       #436
      01002BAFH   LINE      CODE     ---       #437
      01002BB5H   LINE      CODE     ---       #438
      01002BB7H   LINE      CODE     ---       #439
      01002BB7H   LINE      CODE     ---       #440
      01002BBDH   LINE      CODE     ---       #441
      01002BC7H   LINE      CODE     ---       #442
      01002BC7H   LINE      CODE     ---       #443
      01002BC7H   LINE      CODE     ---       #444
      01002BC7H   LINE      CODE     ---       #445
      01002BD1H   LINE      CODE     ---       #446
      ---         BLOCKEND  ---      ---       LVL=0

      ---         MODULE    ---      ---       ADCCFG
      00000009H   PUBLIC    DATA     ---       Data
      02000021H   PUBLIC    XDATA    BYTE      IsNotAllowAsync
      01003FF4H   PUBLIC    CONST    ---       ADCChQueue
      01001F99H   PUBLIC    CODE     ---       ADC_Init
      01002771H   PUBLIC    CODE     ---       ADC_DeInit
      01003E1DH   PUBLIC    CODE     ---       SystemTelemHandler
      000000C8H.0 SFRSYM    DATA     BIT       T2I0
      000000C3H   SFRSYM    DATA     BYTE      CCH1
      00000080H   SFRSYM    DATA     BYTE      P0
      000000C8H.1 SFRSYM    DATA     BIT       T2I1
      000000C5H   SFRSYM    DATA     BYTE      CCH2
      00000090H   SFRSYM    DATA     BYTE      P1
      000000C7H   SFRSYM    DATA     BYTE      CCH3
      000000ACH   SFRSYM    DATA     BYTE      P0EXTIE
      000000A0H   SFRSYM    DATA     BYTE      P2
      000000B4H   SFRSYM    DATA     BYTE      P0EXTIF
      000000B0H   SFRSYM    DATA     BYTE      P3
      000000ADH   SFRSYM    DATA     BYTE      P1EXTIE
      000000D0H.6 SFRSYM    DATA     BIT       AC
      000000FFH   SFRSYM    DATA     BYTE      MCTRL
      000000C2H   SFRSYM    DATA     BYTE      CCL1
      000000B5H   SFRSYM    DATA     BYTE      P1EXTIF
      000000AEH   SFRSYM    DATA     BYTE      P2EXTIE
      000000C4H   SFRSYM    DATA     BYTE      CCL2
      000000B6H   SFRSYM    DATA     BYTE      P2EXTIF
      000000AFH   SFRSYM    DATA     BYTE      P3EXTIE
      000000A8H.7 SFRSYM    DATA     BIT       EA
      000000C6H   SFRSYM    DATA     BYTE      CCL3
      000000B7H   SFRSYM    DATA     BYTE      P3EXTIF
      000000AAH   SFRSYM    DATA     BYTE      EIE2
      000000B2H   SFRSYM    DATA     BYTE      EIF2
      000000C8H.3 SFRSYM    DATA     BIT       T2R0
      000000C8H.4 SFRSYM    DATA     BIT       T2R1
      00000083H   SFRSYM    DATA     BYTE      DPH0
      000000A8H   SFRSYM    DATA     BYTE      IE
      00000085H   SFRSYM    DATA     BYTE      DPH1
      000000B9H   SFRSYM    DATA     BYTE      EIP1
      000000BAH   SFRSYM    DATA     BYTE      EIP2
      00000082H   SFRSYM    DATA     BYTE      DPL0
      00000084H   SFRSYM    DATA     BYTE      DPL1
      000000C8H.6 SFRSYM    DATA     BIT       I3FR
      000000CFH   SFRSYM    DATA     BYTE      T2IE
LX51 LINKER/LOCATER V4.66.97.0                                                        05/18/2025  17:01:21  PAGE 34


      00000096H   SFRSYM    DATA     BYTE      TA
      000000C9H   SFRSYM    DATA     BYTE      T2IF
      000000C8H.2 SFRSYM    DATA     BIT       T2CM
      000000DFH   SFRSYM    DATA     BYTE      ADCON0
      000000DEH   SFRSYM    DATA     BYTE      ADCON1
      000000E9H   SFRSYM    DATA     BYTE      ADCON2
      000000B8H   SFRSYM    DATA     BYTE      IP
      000000CEH   SFRSYM    DATA     BYTE      CCEN
      000000D0H.7 SFRSYM    DATA     BIT       CY
      000000D2H   SFRSYM    DATA     BYTE      T34MOD
      00000093H   SFRSYM    DATA     BYTE      DPX0
      00000095H   SFRSYM    DATA     BYTE      DPX1
      000000F4H   SFRSYM    DATA     BYTE      I2CMSA
      000000F5H   SFRSYM    DATA     BYTE      I2CMCR
      00000081H   SFRSYM    DATA     BYTE      SP
      000000D0H.2 SFRSYM    DATA     BIT       OV
      000000F2H   SFRSYM    DATA     BYTE      I2CSCR
      000000C8H.7 SFRSYM    DATA     BIT       T2PS
      000000D1H   SFRSYM    DATA     BYTE      ADCMPC
      000000CBH   SFRSYM    DATA     BYTE      RLDH
      000000D5H   SFRSYM    DATA     BYTE      ADCMPH
      000000CAH   SFRSYM    DATA     BYTE      RLDL
      00000080H.0 SFRSYM    DATA     BIT       P00
      00000090H.0 SFRSYM    DATA     BIT       P10
      00000080H.1 SFRSYM    DATA     BIT       P01
      000000F7H   SFRSYM    DATA     BYTE      I2CMTP
      00000099H   SFRSYM    DATA     BYTE      SBUF
      00000087H   SFRSYM    DATA     BYTE      PCON
      000000A0H.0 SFRSYM    DATA     BIT       P20
      00000090H.1 SFRSYM    DATA     BIT       P11
      00000080H.2 SFRSYM    DATA     BIT       P02
      000000F5H   SFRSYM    DATA     BYTE      I2CMSR
      000000B0H.0 SFRSYM    DATA     BIT       P30
      000000A0H.1 SFRSYM    DATA     BIT       P21
      00000090H.2 SFRSYM    DATA     BIT       P12
      00000080H.3 SFRSYM    DATA     BIT       P03
      000000D4H   SFRSYM    DATA     BYTE      ADCMPL
      000000B0H.1 SFRSYM    DATA     BIT       P31
      000000A0H.2 SFRSYM    DATA     BIT       P22
      00000090H.3 SFRSYM    DATA     BIT       P13
      00000080H.4 SFRSYM    DATA     BIT       P04
      000000B0H.2 SFRSYM    DATA     BIT       P32
      000000A0H.3 SFRSYM    DATA     BIT       P23
      00000090H.4 SFRSYM    DATA     BIT       P14
      00000080H.5 SFRSYM    DATA     BIT       P05
      00000089H   SFRSYM    DATA     BYTE      TMOD
      00000088H   SFRSYM    DATA     BYTE      TCON
      000000B0H.3 SFRSYM    DATA     BIT       P33
      000000A0H.4 SFRSYM    DATA     BIT       P24
      00000090H.5 SFRSYM    DATA     BIT       P15
      00000080H.6 SFRSYM    DATA     BIT       P06
      000000B0H.4 SFRSYM    DATA     BIT       P34
      000000A0H.5 SFRSYM    DATA     BIT       P25
      00000090H.6 SFRSYM    DATA     BIT       P16
      00000080H.7 SFRSYM    DATA     BIT       P07
      000000B0H.5 SFRSYM    DATA     BIT       P35
      000000A0H.6 SFRSYM    DATA     BIT       P26
      00000090H.7 SFRSYM    DATA     BIT       P17
      000000F2H   SFRSYM    DATA     BYTE      I2CSSR
      000000B0H.6 SFRSYM    DATA     BIT       P36
      000000A0H.7 SFRSYM    DATA     BIT       P27
      000000ECH   SFRSYM    DATA     BYTE      SPCR
      000000DDH   SFRSYM    DATA     BYTE      ADRESH
      000000B0H.7 SFRSYM    DATA     BIT       P37
      000000EEH   SFRSYM    DATA     BYTE      SPDR
LX51 LINKER/LOCATER V4.66.97.0                                                        05/18/2025  17:01:21  PAGE 35


      000000EFH   SFRSYM    DATA     BYTE      SSCR
      000000D3H   SFRSYM    DATA     BYTE      ADDLYL
      000000DCH   SFRSYM    DATA     BYTE      ADRESL
      00000088H.1 SFRSYM    DATA     BIT       IE0
      00000088H.3 SFRSYM    DATA     BIT       IE1
      0000008FH   SFRSYM    DATA     BYTE      CLKDIV
      000000F0H   SFRSYM    DATA     BYTE      B
      00000091H   SFRSYM    DATA     BYTE      FUNCCR
      0000009AH   SFRSYM    DATA     BYTE      P0TRIS
      000000A1H   SFRSYM    DATA     BYTE      P1TRIS
      000000A2H   SFRSYM    DATA     BYTE      P2TRIS
      000000E0H   SFRSYM    DATA     BYTE      ACC
      000000A3H   SFRSYM    DATA     BYTE      P3TRIS
      000000A8H.4 SFRSYM    DATA     BIT       ES0
      000000A8H.6 SFRSYM    DATA     BIT       ES1
      000000A8H.1 SFRSYM    DATA     BIT       ET0
      000000EDH   SFRSYM    DATA     BYTE      SPSR
      000000A8H.3 SFRSYM    DATA     BIT       ET1
      00000088H.5 SFRSYM    DATA     BIT       TF0
      000000A8H.5 SFRSYM    DATA     BIT       ET2
      00000098H.0 SFRSYM    DATA     BIT       RI0
      00000088H.7 SFRSYM    DATA     BIT       TF1
      0000008CH   SFRSYM    DATA     BYTE      TH0
      000000A8H.0 SFRSYM    DATA     BIT       EX0
      00000098H.1 SFRSYM    DATA     BIT       TI0
      00000088H.0 SFRSYM    DATA     BIT       IT0
      0000008DH   SFRSYM    DATA     BYTE      TH1
      000000A8H.2 SFRSYM    DATA     BIT       EX1
      00000088H.2 SFRSYM    DATA     BIT       IT1
      000000CDH   SFRSYM    DATA     BYTE      TH2
      000000D0H.0 SFRSYM    DATA     BIT       P
      000000DBH   SFRSYM    DATA     BYTE      TH3
      000000E3H   SFRSYM    DATA     BYTE      TH4
      0000008AH   SFRSYM    DATA     BYTE      TL0
      0000008BH   SFRSYM    DATA     BYTE      TL1
      00000098H.2 SFRSYM    DATA     BIT       U0RB8
      000000CCH   SFRSYM    DATA     BYTE      TL2
      000000B8H.4 SFRSYM    DATA     BIT       PS0
      000000DAH   SFRSYM    DATA     BYTE      TL3
      000000BFH   SFRSYM    DATA     BYTE      BUZCON
      000000B8H.6 SFRSYM    DATA     BIT       PS1
      000000B8H.1 SFRSYM    DATA     BIT       PT0
      00000098H.3 SFRSYM    DATA     BIT       U0TB8
      000000E2H   SFRSYM    DATA     BYTE      TL4
      000000D0H.3 SFRSYM    DATA     BIT       RS0
      000000B8H.3 SFRSYM    DATA     BIT       PT1
      000000D0H.4 SFRSYM    DATA     BIT       RS1
      000000B8H.5 SFRSYM    DATA     BIT       PT2
      00000098H.7 SFRSYM    DATA     BIT       U0SM0
      00000088H.4 SFRSYM    DATA     BIT       TR0
      000000BEH   SFRSYM    DATA     BYTE      BUZDIV
      00000098H.6 SFRSYM    DATA     BIT       U0SM1
      00000088H.6 SFRSYM    DATA     BIT       TR1
      000000B8H.0 SFRSYM    DATA     BIT       PX0
      00000098H.5 SFRSYM    DATA     BIT       U0SM2
      000000B8H.2 SFRSYM    DATA     BIT       PX1
      000000BDH   SFRSYM    DATA     BYTE      WUTCRH
      00000099H   SFRSYM    DATA     BYTE      SBUF0
      000000EBH   SFRSYM    DATA     BYTE      SBUF1
      000000BCH   SFRSYM    DATA     BYTE      WUTCRL
      00000098H   SFRSYM    DATA     BYTE      SCON0
      000000EAH   SFRSYM    DATA     BYTE      SCON1
      000000C8H   SFRSYM    DATA     BYTE      T2CON
      00000086H   SFRSYM    DATA     BYTE      DPS
      000000FEH   SFRSYM    DATA     BYTE      MDATA
LX51 LINKER/LOCATER V4.66.97.0                                                        05/18/2025  17:01:21  PAGE 36


      000000F6H   SFRSYM    DATA     BYTE      I2CMBUF
      000000F1H   SFRSYM    DATA     BYTE      I2CSADR
      00000098H.4 SFRSYM    DATA     BIT       U0REN
      000000C8H.5 SFRSYM    DATA     BIT       CAPES
      000000FDH   SFRSYM    DATA     BYTE      MADRH
      0000008EH   SFRSYM    DATA     BYTE      CKCON
      000000F3H   SFRSYM    DATA     BYTE      I2CSBUF
      000000FCH   SFRSYM    DATA     BYTE      MADRL
      000000D0H.5 SFRSYM    DATA     BIT       F0
      000000FBH   SFRSYM    DATA     BYTE      MLOCK
      000000D0H   SFRSYM    DATA     BYTE      PSW
      00000097H   SFRSYM    DATA     BYTE      WDCON
      01003C7DH   SYMBOL    CODE     ---       ADC_SetVREF
      0100204BH   SYMBOL    CODE     ---       _ADC_ReadBackResult
      01003280H   SYMBOL    CODE     ---       _ADC_SubmitMisson
      02000014H   SYMBOL    XDATA    ---       ADCConvertQueue
      00000008H   SYMBOL    DATA     BYTE      ADCState
      02000019H   SYMBOL    XDATA    ---       ADCTemp
      010018F5H   SYMBOL    CODE     ---       ADCEngineHandler
      0100122DH   SYMBOL    CODE     ---       _ADC_WriteOutputBuf

      01002F89H   BLOCK     CODE     ---       LVL=0
      ---         BLOCKEND  ---      ---       LVL=0

      01003280H   BLOCK     CODE     ---       LVL=0
      00000003H   SYMBOL    DATA     CHAR      Ch
      01003282H   BLOCK     CODE     NEAR LAB  LVL=1
      00000002H   SYMBOL    DATA     BYTE      i
      ---         BLOCKEND  ---      ---       LVL=1
      01003280H   LINE      CODE     ---       #18
      01003282H   LINE      CODE     ---       #19
      01003282H   LINE      CODE     ---       #20
      01003284H   LINE      CODE     ---       #22
      0100328AH   LINE      CODE     ---       #23
      0100329FH   LINE      CODE     ---       #25
      010032A9H   LINE      CODE     ---       #26
      010032A9H   LINE      CODE     ---       #27
      010032AEH   LINE      CODE     ---       #28
      010032B2H   LINE      CODE     ---       #30
      010032BBH   LINE      CODE     ---       #31
      010032BEH   LINE      CODE     ---       #32
      010032C1H   LINE      CODE     ---       #33
      010032C6H   LINE      CODE     ---       #35
      010032C8H   LINE      CODE     ---       #36
      010032CBH   LINE      CODE     ---       #37
      ---         BLOCKEND  ---      ---       LVL=0

      0100204BH   BLOCK     CODE     ---       LVL=0
      00000029H   SYMBOL    DATA     ---       Result
      0000002CH   SYMBOL    DATA     ---       Queue
      0100204BH   LINE      CODE     ---       #40
      01002051H   LINE      CODE     ---       #41
      01002051H   LINE      CODE     ---       #43
      01002058H   LINE      CODE     ---       #45
      01002066H   LINE      CODE     ---       #46
      01002094H   LINE      CODE     ---       #47
      010020A5H   LINE      CODE     ---       #48
      010020A5H   LINE      CODE     ---       #49
      010020A8H   LINE      CODE     ---       #50
      010020ACH   LINE      CODE     ---       #51
      010020ACH   LINE      CODE     ---       #53
      010020C9H   LINE      CODE     ---       #54
      010020DEH   LINE      CODE     ---       #55
      010020EBH   LINE      CODE     ---       #56
      010020F0H   LINE      CODE     ---       #57
LX51 LINKER/LOCATER V4.66.97.0                                                        05/18/2025  17:01:21  PAGE 37


      010020F3H   LINE      CODE     ---       #58
      ---         BLOCKEND  ---      ---       LVL=0

      01003C7DH   BLOCK     CODE     ---       LVL=0
      00000020H.2 SYMBOL    BIT      BIT       IsUsingVDD
      01003C7DH   LINE      CODE     ---       #61
      01003C7DH   LINE      CODE     ---       #62
      01003C7DH   LINE      CODE     ---       #63
      01003C80H   LINE      CODE     ---       #64
      01003C81H   LINE      CODE     ---       #65
      01003C8DH   LINE      CODE     ---       #66
      01003C8EH   LINE      CODE     ---       #67
      01003C91H   LINE      CODE     ---       #68
      ---         BLOCKEND  ---      ---       LVL=0

      0100122DH   BLOCK     CODE     ---       LVL=0
      00000029H   SYMBOL    DATA     INT       ADCResult
      0000002BH   SYMBOL    DATA     CHAR      Ch
      01001233H   BLOCK     CODE     NEAR LAB  LVL=1
      0000002CH   SYMBOL    DATA     FLOAT     Buf
      00000030H   SYMBOL    DATA     FLOAT     Rt
      00000034H   SYMBOL    DATA     FLOAT     Vadc
      00000004H   SYMBOL    DATA     DWORD     NTCRES
      ---         BLOCKEND  ---      ---       LVL=1
      0100122DH   LINE      CODE     ---       #72
      01001233H   LINE      CODE     ---       #73
      01001233H   LINE      CODE     ---       #77
      0100124DH   LINE      CODE     ---       #78
      01001282H   LINE      CODE     ---       #80
      0100129EH   LINE      CODE     ---       #81
      0100129EH   LINE      CODE     ---       #83
      0100129EH   LINE      CODE     ---       #84
      010012AAH   LINE      CODE     ---       #85
      010012ABH   LINE      CODE     ---       #87
      010012ABH   LINE      CODE     ---       #88
      010012CEH   LINE      CODE     ---       #89
      010012D6H   LINE      CODE     ---       #90
      010012D7H   LINE      CODE     ---       #92
      010012D7H   LINE      CODE     ---       #93
      010012E3H   LINE      CODE     ---       #94
      010012EEH   LINE      CODE     ---       #95
      01001300H   LINE      CODE     ---       #96
      01001301H   LINE      CODE     ---       #98
      01001301H   LINE      CODE     ---       #99
      0100130DH   LINE      CODE     ---       #100
      01001318H   LINE      CODE     ---       #101
      01001319H   LINE      CODE     ---       #103
      01001319H   LINE      CODE     ---       #104
      01001354H   LINE      CODE     ---       #105
      01001361H   LINE      CODE     ---       #106
      01001364H   LINE      CODE     ---       #107
      01001371H   LINE      CODE     ---       #108
      01001371H   LINE      CODE     ---       #109
      01001371H   LINE      CODE     ---       #110
      ---         BLOCKEND  ---      ---       LVL=0

      010018F5H   BLOCK     CODE     ---       LVL=0
      010018F5H   BLOCK     CODE     NEAR LAB  LVL=1
      00000025H   SYMBOL    DATA     INT       result
      00000027H   SYMBOL    DATA     CHAR      Ch
      00000028H   SYMBOL    DATA     CHAR      i
      ---         BLOCKEND  ---      ---       LVL=1
      010018F5H   LINE      CODE     ---       #113
      010018F5H   LINE      CODE     ---       #114
      010018F5H   LINE      CODE     ---       #119
LX51 LINKER/LOCATER V4.66.97.0                                                        05/18/2025  17:01:21  PAGE 38


      010018F5H   LINE      CODE     ---       #120
      010018FDH   LINE      CODE     ---       #121
      01001915H   LINE      CODE     ---       #122
      01001915H   LINE      CODE     ---       #124
      01001915H   LINE      CODE     ---       #125
      0100191AH   LINE      CODE     ---       #126
      0100193DH   LINE      CODE     ---       #127
      0100193DH   LINE      CODE     ---       #128
      01001940H   LINE      CODE     ---       #130
      01001940H   LINE      CODE     ---       #131
      01001943H   LINE      CODE     ---       #132
      01001948H   LINE      CODE     ---       #133
      01001948H   LINE      CODE     ---       #134
      01001961H   LINE      CODE     ---       #135
      01001963H   LINE      CODE     ---       #136
      01001965H   LINE      CODE     ---       #138
      0100196AH   LINE      CODE     ---       #139
      0100196AH   LINE      CODE     ---       #140
      01001970H   LINE      CODE     ---       #141
      01001986H   LINE      CODE     ---       #142
      0100198BH   LINE      CODE     ---       #143
      0100198EH   LINE      CODE     ---       #144
      01001990H   LINE      CODE     ---       #146
      01001993H   LINE      CODE     ---       #147
      01001995H   LINE      CODE     ---       #149
      01001995H   LINE      CODE     ---       #150
      010019ABH   LINE      CODE     ---       #151
      010019B4H   LINE      CODE     ---       #152
      010019CDH   LINE      CODE     ---       #153
      010019D0H   LINE      CODE     ---       #154
      010019D2H   LINE      CODE     ---       #156
      010019D2H   LINE      CODE     ---       #158
      010019D5H   LINE      CODE     ---       #159
      010019D5H   LINE      CODE     ---       #160
      010019D5H   LINE      CODE     ---       #161
      010019E4H   LINE      CODE     ---       #162
      ---         BLOCKEND  ---      ---       LVL=0

      01003E1DH   BLOCK     CODE     ---       LVL=0
      01003E1DH   LINE      CODE     ---       #172
      01003E1DH   LINE      CODE     ---       #173
      01003E1DH   LINE      CODE     ---       #175
      ---         BLOCKEND  ---      ---       LVL=0

      01002771H   BLOCK     CODE     ---       LVL=0
      01002771H   BLOCK     CODE     NEAR LAB  LVL=1
      00000024H   SYMBOL    DATA     ---       ADCDeInitCfg
      00000007H   SYMBOL    DATA     CHAR      i
      ---         BLOCKEND  ---      ---       LVL=1
      01002771H   LINE      CODE     ---       #179
      01002771H   LINE      CODE     ---       #180
      01002771H   LINE      CODE     ---       #184
      01002774H   LINE      CODE     ---       #185
      01002778H   LINE      CODE     ---       #187
      0100277DH   LINE      CODE     ---       #188
      01002780H   LINE      CODE     ---       #189
      010027A7H   LINE      CODE     ---       #190
      010027B1H   LINE      CODE     ---       #191
      010027B1H   LINE      CODE     ---       #192
      010027B5H   LINE      CODE     ---       #193
      010027B7H   LINE      CODE     ---       #195
      010027BFH   LINE      CODE     ---       #196
      010027C7H   LINE      CODE     ---       #198
      010027CAH   LINE      CODE     ---       #199
      010027CDH   LINE      CODE     ---       #200
LX51 LINKER/LOCATER V4.66.97.0                                                        05/18/2025  17:01:21  PAGE 39


      010027CFH   LINE      CODE     ---       #202
      010027D8H   LINE      CODE     ---       #203
      010027E2H   LINE      CODE     ---       #205
      010027EBH   LINE      CODE     ---       #206
      010027F4H   LINE      CODE     ---       #208
      ---         BLOCKEND  ---      ---       LVL=0

      01001F99H   BLOCK     CODE     ---       LVL=0
      01001F99H   BLOCK     CODE     NEAR LAB  LVL=1
      00000024H   SYMBOL    DATA     ---       ADCInitCfg
      ---         BLOCKEND  ---      ---       LVL=1
      01001F99H   LINE      CODE     ---       #212
      01001F99H   LINE      CODE     ---       #213
      01001F99H   LINE      CODE     ---       #216
      01001F9CH   LINE      CODE     ---       #217
      01001F9EH   LINE      CODE     ---       #218
      01001FA0H   LINE      CODE     ---       #220
      01001FA6H   LINE      CODE     ---       #221
      01001FADH   LINE      CODE     ---       #222
      01001FB2H   LINE      CODE     ---       #224
      01001FB5H   LINE      CODE     ---       #225
      01001FBAH   LINE      CODE     ---       #227
      01001FC3H   LINE      CODE     ---       #228
      01001FCCH   LINE      CODE     ---       #229
      01001FD5H   LINE      CODE     ---       #230
      01001FDEH   LINE      CODE     ---       #232
      01001FE1H   LINE      CODE     ---       #233
      01001FE4H   LINE      CODE     ---       #235
      01001FECH   LINE      CODE     ---       #236
      01001FF9H   LINE      CODE     ---       #237
      01002002H   LINE      CODE     ---       #239
      01002005H   LINE      CODE     ---       #240
      01002008H   LINE      CODE     ---       #241
      0100200BH   LINE      CODE     ---       #242
      0100200DH   LINE      CODE     ---       #243
      0100200FH   LINE      CODE     ---       #244
      01002012H   LINE      CODE     ---       #245
      01002015H   LINE      CODE     ---       #246
      0100201BH   LINE      CODE     ---       #248
      0100201EH   LINE      CODE     ---       #249
      01002028H   LINE      CODE     ---       #250
      01002028H   LINE      CODE     ---       #251
      0100202CH   LINE      CODE     ---       #252
      0100202EH   LINE      CODE     ---       #253
      01002031H   LINE      CODE     ---       #255
      01002034H   LINE      CODE     ---       #256
      ---         BLOCKEND  ---      ---       LVL=0

      ---         MODULE    ---      ---       DELAY
      00000021H.6 PUBLIC    BIT      BIT       StrobeFlag
      00000021H.5 PUBLIC    BIT      BIT       SysHFBitFlag
      00000021H.4 PUBLIC    BIT      BIT       IsT0OVF
      00000021H.3 PUBLIC    BIT      BIT       LFStrobeFlag
      01001EE3H   PUBLIC    CODE     ---       _delay_ms
      01003D08H   PUBLIC    CODE     ---       delay_init
      01003E11H   PUBLIC    CODE     ---       Timer0_IRQHandler
      0100002EH   PUBLIC    CODE     ---       Timer2_IRQHandler
      00000020H.3 PUBLIC    BIT      BIT       ?SetSystemHBTimer?BIT
      01003822H   PUBLIC    CODE     ---       SetSystemHBTimer
      000000C8H.0 SFRSYM    DATA     BIT       T2I0
      000000C3H   SFRSYM    DATA     BYTE      CCH1
      00000080H   SFRSYM    DATA     BYTE      P0
      000000C8H.1 SFRSYM    DATA     BIT       T2I1
      000000C5H   SFRSYM    DATA     BYTE      CCH2
      00000090H   SFRSYM    DATA     BYTE      P1
LX51 LINKER/LOCATER V4.66.97.0                                                        05/18/2025  17:01:21  PAGE 40


      000000C7H   SFRSYM    DATA     BYTE      CCH3
      000000ACH   SFRSYM    DATA     BYTE      P0EXTIE
      000000A0H   SFRSYM    DATA     BYTE      P2
      000000B4H   SFRSYM    DATA     BYTE      P0EXTIF
      000000B0H   SFRSYM    DATA     BYTE      P3
      000000ADH   SFRSYM    DATA     BYTE      P1EXTIE
      000000D0H.6 SFRSYM    DATA     BIT       AC
      000000FFH   SFRSYM    DATA     BYTE      MCTRL
      000000C2H   SFRSYM    DATA     BYTE      CCL1
      000000B5H   SFRSYM    DATA     BYTE      P1EXTIF
      000000AEH   SFRSYM    DATA     BYTE      P2EXTIE
      000000C4H   SFRSYM    DATA     BYTE      CCL2
      000000B6H   SFRSYM    DATA     BYTE      P2EXTIF
      000000AFH   SFRSYM    DATA     BYTE      P3EXTIE
      000000A8H.7 SFRSYM    DATA     BIT       EA
      000000C6H   SFRSYM    DATA     BYTE      CCL3
      000000B7H   SFRSYM    DATA     BYTE      P3EXTIF
      000000AAH   SFRSYM    DATA     BYTE      EIE2
      000000B2H   SFRSYM    DATA     BYTE      EIF2
      000000C8H.3 SFRSYM    DATA     BIT       T2R0
      000000C8H.4 SFRSYM    DATA     BIT       T2R1
      00000083H   SFRSYM    DATA     BYTE      DPH0
      000000A8H   SFRSYM    DATA     BYTE      IE
      00000085H   SFRSYM    DATA     BYTE      DPH1
      000000B9H   SFRSYM    DATA     BYTE      EIP1
      000000BAH   SFRSYM    DATA     BYTE      EIP2
      00000082H   SFRSYM    DATA     BYTE      DPL0
      00000084H   SFRSYM    DATA     BYTE      DPL1
      000000C8H.6 SFRSYM    DATA     BIT       I3FR
      000000CFH   SFRSYM    DATA     BYTE      T2IE
      00000096H   SFRSYM    DATA     BYTE      TA
      000000C9H   SFRSYM    DATA     BYTE      T2IF
      000000C8H.2 SFRSYM    DATA     BIT       T2CM
      000000DFH   SFRSYM    DATA     BYTE      ADCON0
      000000DEH   SFRSYM    DATA     BYTE      ADCON1
      000000E9H   SFRSYM    DATA     BYTE      ADCON2
      000000B8H   SFRSYM    DATA     BYTE      IP
      000000CEH   SFRSYM    DATA     BYTE      CCEN
      000000D0H.7 SFRSYM    DATA     BIT       CY
      000000D2H   SFRSYM    DATA     BYTE      T34MOD
      00000093H   SFRSYM    DATA     BYTE      DPX0
      00000095H   SFRSYM    DATA     BYTE      DPX1
      000000F4H   SFRSYM    DATA     BYTE      I2CMSA
      000000F5H   SFRSYM    DATA     BYTE      I2CMCR
      00000081H   SFRSYM    DATA     BYTE      SP
      000000D0H.2 SFRSYM    DATA     BIT       OV
      000000F2H   SFRSYM    DATA     BYTE      I2CSCR
      000000C8H.7 SFRSYM    DATA     BIT       T2PS
      000000D1H   SFRSYM    DATA     BYTE      ADCMPC
      000000CBH   SFRSYM    DATA     BYTE      RLDH
      000000D5H   SFRSYM    DATA     BYTE      ADCMPH
      000000CAH   SFRSYM    DATA     BYTE      RLDL
      00000080H.0 SFRSYM    DATA     BIT       P00
      00000090H.0 SFRSYM    DATA     BIT       P10
      00000080H.1 SFRSYM    DATA     BIT       P01
      000000F7H   SFRSYM    DATA     BYTE      I2CMTP
      00000099H   SFRSYM    DATA     BYTE      SBUF
      00000087H   SFRSYM    DATA     BYTE      PCON
      000000A0H.0 SFRSYM    DATA     BIT       P20
      00000090H.1 SFRSYM    DATA     BIT       P11
      00000080H.2 SFRSYM    DATA     BIT       P02
      000000F5H   SFRSYM    DATA     BYTE      I2CMSR
      000000B0H.0 SFRSYM    DATA     BIT       P30
      000000A0H.1 SFRSYM    DATA     BIT       P21
      00000090H.2 SFRSYM    DATA     BIT       P12
LX51 LINKER/LOCATER V4.66.97.0                                                        05/18/2025  17:01:21  PAGE 41


      00000080H.3 SFRSYM    DATA     BIT       P03
      000000D4H   SFRSYM    DATA     BYTE      ADCMPL
      000000B0H.1 SFRSYM    DATA     BIT       P31
      000000A0H.2 SFRSYM    DATA     BIT       P22
      00000090H.3 SFRSYM    DATA     BIT       P13
      00000080H.4 SFRSYM    DATA     BIT       P04
      000000B0H.2 SFRSYM    DATA     BIT       P32
      000000A0H.3 SFRSYM    DATA     BIT       P23
      00000090H.4 SFRSYM    DATA     BIT       P14
      00000080H.5 SFRSYM    DATA     BIT       P05
      00000089H   SFRSYM    DATA     BYTE      TMOD
      00000088H   SFRSYM    DATA     BYTE      TCON
      000000B0H.3 SFRSYM    DATA     BIT       P33
      000000A0H.4 SFRSYM    DATA     BIT       P24
      00000090H.5 SFRSYM    DATA     BIT       P15
      00000080H.6 SFRSYM    DATA     BIT       P06
      000000B0H.4 SFRSYM    DATA     BIT       P34
      000000A0H.5 SFRSYM    DATA     BIT       P25
      00000090H.6 SFRSYM    DATA     BIT       P16
      00000080H.7 SFRSYM    DATA     BIT       P07
      000000B0H.5 SFRSYM    DATA     BIT       P35
      000000A0H.6 SFRSYM    DATA     BIT       P26
      00000090H.7 SFRSYM    DATA     BIT       P17
      000000F2H   SFRSYM    DATA     BYTE      I2CSSR
      000000B0H.6 SFRSYM    DATA     BIT       P36
      000000A0H.7 SFRSYM    DATA     BIT       P27
      000000ECH   SFRSYM    DATA     BYTE      SPCR
      000000DDH   SFRSYM    DATA     BYTE      ADRESH
      000000B0H.7 SFRSYM    DATA     BIT       P37
      000000EEH   SFRSYM    DATA     BYTE      SPDR
      000000EFH   SFRSYM    DATA     BYTE      SSCR
      000000D3H   SFRSYM    DATA     BYTE      ADDLYL
      000000DCH   SFRSYM    DATA     BYTE      ADRESL
      00000088H.1 SFRSYM    DATA     BIT       IE0
      00000088H.3 SFRSYM    DATA     BIT       IE1
      0000008FH   SFRSYM    DATA     BYTE      CLKDIV
      000000F0H   SFRSYM    DATA     BYTE      B
      00000091H   SFRSYM    DATA     BYTE      FUNCCR
      0000009AH   SFRSYM    DATA     BYTE      P0TRIS
      000000A1H   SFRSYM    DATA     BYTE      P1TRIS
      000000A2H   SFRSYM    DATA     BYTE      P2TRIS
      000000E0H   SFRSYM    DATA     BYTE      ACC
      000000A3H   SFRSYM    DATA     BYTE      P3TRIS
      000000A8H.4 SFRSYM    DATA     BIT       ES0
      000000A8H.6 SFRSYM    DATA     BIT       ES1
      000000A8H.1 SFRSYM    DATA     BIT       ET0
      000000EDH   SFRSYM    DATA     BYTE      SPSR
      000000A8H.3 SFRSYM    DATA     BIT       ET1
      00000088H.5 SFRSYM    DATA     BIT       TF0
      000000A8H.5 SFRSYM    DATA     BIT       ET2
      00000098H.0 SFRSYM    DATA     BIT       RI0
      00000088H.7 SFRSYM    DATA     BIT       TF1
      0000008CH   SFRSYM    DATA     BYTE      TH0
      000000A8H.0 SFRSYM    DATA     BIT       EX0
      00000098H.1 SFRSYM    DATA     BIT       TI0
      00000088H.0 SFRSYM    DATA     BIT       IT0
      0000008DH   SFRSYM    DATA     BYTE      TH1
      000000A8H.2 SFRSYM    DATA     BIT       EX1
      00000088H.2 SFRSYM    DATA     BIT       IT1
      000000CDH   SFRSYM    DATA     BYTE      TH2
      000000D0H.0 SFRSYM    DATA     BIT       P
      000000DBH   SFRSYM    DATA     BYTE      TH3
      000000E3H   SFRSYM    DATA     BYTE      TH4
      0000008AH   SFRSYM    DATA     BYTE      TL0
      0000008BH   SFRSYM    DATA     BYTE      TL1
LX51 LINKER/LOCATER V4.66.97.0                                                        05/18/2025  17:01:21  PAGE 42


      00000098H.2 SFRSYM    DATA     BIT       U0RB8
      000000CCH   SFRSYM    DATA     BYTE      TL2
      000000B8H.4 SFRSYM    DATA     BIT       PS0
      000000DAH   SFRSYM    DATA     BYTE      TL3
      000000BFH   SFRSYM    DATA     BYTE      BUZCON
      000000B8H.6 SFRSYM    DATA     BIT       PS1
      000000B8H.1 SFRSYM    DATA     BIT       PT0
      00000098H.3 SFRSYM    DATA     BIT       U0TB8
      000000E2H   SFRSYM    DATA     BYTE      TL4
      000000D0H.3 SFRSYM    DATA     BIT       RS0
      000000B8H.3 SFRSYM    DATA     BIT       PT1
      000000D0H.4 SFRSYM    DATA     BIT       RS1
      000000B8H.5 SFRSYM    DATA     BIT       PT2
      00000098H.7 SFRSYM    DATA     BIT       U0SM0
      00000088H.4 SFRSYM    DATA     BIT       TR0
      000000BEH   SFRSYM    DATA     BYTE      BUZDIV
      00000098H.6 SFRSYM    DATA     BIT       U0SM1
      00000088H.6 SFRSYM    DATA     BIT       TR1
      000000B8H.0 SFRSYM    DATA     BIT       PX0
      00000098H.5 SFRSYM    DATA     BIT       U0SM2
      000000B8H.2 SFRSYM    DATA     BIT       PX1
      000000BDH   SFRSYM    DATA     BYTE      WUTCRH
      00000099H   SFRSYM    DATA     BYTE      SBUF0
      000000EBH   SFRSYM    DATA     BYTE      SBUF1
      000000BCH   SFRSYM    DATA     BYTE      WUTCRL
      00000098H   SFRSYM    DATA     BYTE      SCON0
      000000EAH   SFRSYM    DATA     BYTE      SCON1
      000000C8H   SFRSYM    DATA     BYTE      T2CON
      00000086H   SFRSYM    DATA     BYTE      DPS
      000000FEH   SFRSYM    DATA     BYTE      MDATA
      000000F6H   SFRSYM    DATA     BYTE      I2CMBUF
      000000F1H   SFRSYM    DATA     BYTE      I2CSADR
      00000098H.4 SFRSYM    DATA     BIT       U0REN
      000000C8H.5 SFRSYM    DATA     BIT       CAPES
      000000FDH   SFRSYM    DATA     BYTE      MADRH
      0000008EH   SFRSYM    DATA     BYTE      CKCON
      000000F3H   SFRSYM    DATA     BYTE      I2CSBUF
      000000FCH   SFRSYM    DATA     BYTE      MADRL
      000000D0H.5 SFRSYM    DATA     BIT       F0
      000000FBH   SFRSYM    DATA     BYTE      MLOCK
      000000D0H   SFRSYM    DATA     BYTE      PSW
      00000097H   SFRSYM    DATA     BYTE      WDCON

      01003822H   BLOCK     CODE     ---       LVL=0
      00000020H.3 SYMBOL    BIT      BIT       IsEnable
      01003822H   LINE      CODE     ---       #13
      01003822H   LINE      CODE     ---       #14
      01003822H   LINE      CODE     ---       #15
      01003826H   LINE      CODE     ---       #16
      01003826H   LINE      CODE     ---       #17
      01003828H   LINE      CODE     ---       #18
      0100382CH   LINE      CODE     ---       #20
      0100382CH   LINE      CODE     ---       #22
      0100382EH   LINE      CODE     ---       #23
      01003831H   LINE      CODE     ---       #24
      01003834H   LINE      CODE     ---       #25
      01003837H   LINE      CODE     ---       #26
      0100383AH   LINE      CODE     ---       #28
      0100383DH   LINE      CODE     ---       #29
      0100383FH   LINE      CODE     ---       #30
      01003842H   LINE      CODE     ---       #32
      01003844H   LINE      CODE     ---       #33
      01003846H   LINE      CODE     ---       #34
      01003848H   LINE      CODE     ---       #35
      0100384BH   LINE      CODE     ---       #36
LX51 LINKER/LOCATER V4.66.97.0                                                        05/18/2025  17:01:21  PAGE 43


      ---         BLOCKEND  ---      ---       LVL=0

      0100002EH   BLOCK     CODE     ---       LVL=0
      0100002EH   LINE      CODE     ---       #39
      0100002EH   LINE      CODE     ---       #41
      01000031H   LINE      CODE     ---       #43
      01000033H   LINE      CODE     ---       #44
      01000036H   LINE      CODE     ---       #45
      01000036H   LINE      CODE     ---       #46
      01000038H   LINE      CODE     ---       #47
      0100003AH   LINE      CODE     ---       #48
      0100003AH   LINE      CODE     ---       #49
      ---         BLOCKEND  ---      ---       LVL=0

      01003E11H   BLOCK     CODE     ---       LVL=0
      01003E11H   LINE      CODE     ---       #52
      01003E11H   LINE      CODE     ---       #54
      01003E14H   LINE      CODE     ---       #55
      01003E16H   LINE      CODE     ---       #56
      ---         BLOCKEND  ---      ---       LVL=0

      01003D08H   BLOCK     CODE     ---       LVL=0
      01003D08H   LINE      CODE     ---       #59
      01003D08H   LINE      CODE     ---       #60
      01003D08H   LINE      CODE     ---       #61
      01003D0BH   LINE      CODE     ---       #62
      01003D0EH   LINE      CODE     ---       #63
      01003D11H   LINE      CODE     ---       #64
      01003D14H   LINE      CODE     ---       #65
      01003D16H   LINE      CODE     ---       #66
      01003D19H   LINE      CODE     ---       #67
      ---         BLOCKEND  ---      ---       LVL=0

      01001EE3H   BLOCK     CODE     ---       LVL=0
      0000002AH   SYMBOL    DATA     INT       ms
      01001EE7H   BLOCK     CODE     NEAR LAB  LVL=1
      0000002CH   SYMBOL    DATA     DWORD     CNT
      00000030H   SYMBOL    DATA     INT       repcounter
      ---         BLOCKEND  ---      ---       LVL=1
      01001EE3H   LINE      CODE     ---       #70
      01001EE7H   LINE      CODE     ---       #71
      01001EE7H   LINE      CODE     ---       #73
      01001EECH   LINE      CODE     ---       #75
      01001EF5H   LINE      CODE     ---       #77
      01001EF5H   LINE      CODE     ---       #78
      01001EFDH   LINE      CODE     ---       #79
      01001F19H   LINE      CODE     ---       #80
      01001F3AH   LINE      CODE     ---       #81
      01001F3AH   LINE      CODE     ---       #82
      01001F4FH   LINE      CODE     ---       #83
      01001F66H   LINE      CODE     ---       #86
      01001F66H   LINE      CODE     ---       #88
      01001F75H   LINE      CODE     ---       #89
      01001F7AH   LINE      CODE     ---       #90
      01001F7CH   LINE      CODE     ---       #92
      01001F7FH   LINE      CODE     ---       #93
      01001F87H   LINE      CODE     ---       #95
      01001F8AH   LINE      CODE     ---       #96
      01001F92H   LINE      CODE     ---       #97
      01001F92H   LINE      CODE     ---       #98
      01001F98H   LINE      CODE     ---       #99
      ---         BLOCKEND  ---      ---       LVL=0

      ---         MODULE    ---      ---       NTC
      01003EFCH   PUBLIC    CONST    ---       NTCTableBottom
LX51 LINKER/LOCATER V4.66.97.0                                                        05/18/2025  17:01:21  PAGE 44


      01003E20H   PUBLIC    CONST    ---       NTCTableTop
      010019E5H   PUBLIC    CODE     ---       _CalcNTCTemp

      0100384CH   BLOCK     CODE     ---       LVL=0
      ---         BLOCKEND  ---      ---       LVL=0

      010019E5H   BLOCK     CODE     ---       LVL=0
      00000038H   SYMBOL    DATA     ---       IsNTCOK
      0000003BH   SYMBOL    DATA     DWORD     NTCRes
      010019F3H   BLOCK     CODE     NEAR LAB  LVL=1
      0000003FH   SYMBOL    DATA     CHAR      i
      00000040H   SYMBOL    DATA     DWORD     NTCTableValue
      ---         BLOCKEND  ---      ---       LVL=1
      010019E5H   LINE      CODE     ---       #52
      010019F3H   LINE      CODE     ---       #56
      01001A01H   LINE      CODE     ---       #57
      01001A01H   LINE      CODE     ---       #58
      01001A04H   LINE      CODE     ---       #59
      01001A09H   LINE      CODE     ---       #60
      01001A09H   LINE      CODE     ---       #62
      01001A14H   LINE      CODE     ---       #63
      01001A14H   LINE      CODE     ---       #64
      01001A17H   LINE      CODE     ---       #65
      01001A1BH   LINE      CODE     ---       #66
      01001A1BH   LINE      CODE     ---       #68
      01001A20H   LINE      CODE     ---       #69
      01001A68H   LINE      CODE     ---       #70
      01001A79H   LINE      CODE     ---       #71
      01001A79H   LINE      CODE     ---       #72
      01001A9AH   LINE      CODE     ---       #73
      01001AA7H   LINE      CODE     ---       #74
      01001AC8H   LINE      CODE     ---       #75
      01001ACCH   LINE      CODE     ---       #77
      01001ACFH   LINE      CODE     ---       #78
      01001AD1H   LINE      CODE     ---       #79
      ---         BLOCKEND  ---      ---       LVL=0

      ---         MODULE    ---      ---       SIDEKEY
      02000050H   PUBLIC    XDATA    BYTE      KeyState
      0100000EH   PUBLIC    CODE     ---       getSideKeyNClickAndHoldEvent
      01003DE4H   PUBLIC    CODE     ---       getSideKey1HEvent
      01000003H   PUBLIC    CODE     ---       getSideKeyHoldEvent
      01003D98H   PUBLIC    CODE     ---       getSideKeyLongPressEvent
      00000020H.1 PUBLIC    BIT      BIT       ?getSideKeyShortPressCount?BIT
      01003BF3H   PUBLIC    CODE     ---       getSideKeyShortPressCount
      01002239H   PUBLIC    CODE     ---       SideKey_LogicHandler
      01003B0EH   PUBLIC    CODE     ---       MarkAsKeyPressed
      01002EC2H   PUBLIC    CODE     ---       SideKey_Int_Callback
      010034A5H   PUBLIC    CODE     ---       SideKey_TIM_Callback
      01003D8BH   PUBLIC    CODE     ---       IsKeyEventOccurred
      010033E0H   PUBLIC    CODE     ---       SideKeyInit
      01003E17H   PUBLIC    CODE     ---       GetIfKeyPressed
      01003233H   PUBLIC    CODE     ---       Key_IRQHandler
      000000C8H.0 SFRSYM    DATA     BIT       T2I0
      000000C3H   SFRSYM    DATA     BYTE      CCH1
      00000080H   SFRSYM    DATA     BYTE      P0
      000000C8H.1 SFRSYM    DATA     BIT       T2I1
      000000C5H   SFRSYM    DATA     BYTE      CCH2
      00000090H   SFRSYM    DATA     BYTE      P1
      000000C7H   SFRSYM    DATA     BYTE      CCH3
      000000ACH   SFRSYM    DATA     BYTE      P0EXTIE
      000000A0H   SFRSYM    DATA     BYTE      P2
      000000B4H   SFRSYM    DATA     BYTE      P0EXTIF
      000000B0H   SFRSYM    DATA     BYTE      P3
      000000ADH   SFRSYM    DATA     BYTE      P1EXTIE
LX51 LINKER/LOCATER V4.66.97.0                                                        05/18/2025  17:01:21  PAGE 45


      000000D0H.6 SFRSYM    DATA     BIT       AC
      000000FFH   SFRSYM    DATA     BYTE      MCTRL
      000000C2H   SFRSYM    DATA     BYTE      CCL1
      000000B5H   SFRSYM    DATA     BYTE      P1EXTIF
      000000AEH   SFRSYM    DATA     BYTE      P2EXTIE
      000000C4H   SFRSYM    DATA     BYTE      CCL2
      000000B6H   SFRSYM    DATA     BYTE      P2EXTIF
      000000AFH   SFRSYM    DATA     BYTE      P3EXTIE
      000000A8H.7 SFRSYM    DATA     BIT       EA
      000000C6H   SFRSYM    DATA     BYTE      CCL3
      000000B7H   SFRSYM    DATA     BYTE      P3EXTIF
      000000AAH   SFRSYM    DATA     BYTE      EIE2
      000000B2H   SFRSYM    DATA     BYTE      EIF2
      000000C8H.3 SFRSYM    DATA     BIT       T2R0
      000000C8H.4 SFRSYM    DATA     BIT       T2R1
      00000083H   SFRSYM    DATA     BYTE      DPH0
      000000A8H   SFRSYM    DATA     BYTE      IE
      00000085H   SFRSYM    DATA     BYTE      DPH1
      000000B9H   SFRSYM    DATA     BYTE      EIP1
      000000BAH   SFRSYM    DATA     BYTE      EIP2
      00000082H   SFRSYM    DATA     BYTE      DPL0
      00000084H   SFRSYM    DATA     BYTE      DPL1
      000000C8H.6 SFRSYM    DATA     BIT       I3FR
      000000CFH   SFRSYM    DATA     BYTE      T2IE
      00000096H   SFRSYM    DATA     BYTE      TA
      000000C9H   SFRSYM    DATA     BYTE      T2IF
      000000C8H.2 SFRSYM    DATA     BIT       T2CM
      000000DFH   SFRSYM    DATA     BYTE      ADCON0
      000000DEH   SFRSYM    DATA     BYTE      ADCON1
      000000E9H   SFRSYM    DATA     BYTE      ADCON2
      000000B8H   SFRSYM    DATA     BYTE      IP
      000000CEH   SFRSYM    DATA     BYTE      CCEN
      000000D0H.7 SFRSYM    DATA     BIT       CY
      000000D2H   SFRSYM    DATA     BYTE      T34MOD
      00000093H   SFRSYM    DATA     BYTE      DPX0
      00000095H   SFRSYM    DATA     BYTE      DPX1
      000000F4H   SFRSYM    DATA     BYTE      I2CMSA
      000000F5H   SFRSYM    DATA     BYTE      I2CMCR
      00000081H   SFRSYM    DATA     BYTE      SP
      000000D0H.2 SFRSYM    DATA     BIT       OV
      000000F2H   SFRSYM    DATA     BYTE      I2CSCR
      000000C8H.7 SFRSYM    DATA     BIT       T2PS
      000000D1H   SFRSYM    DATA     BYTE      ADCMPC
      000000CBH   SFRSYM    DATA     BYTE      RLDH
      000000D5H   SFRSYM    DATA     BYTE      ADCMPH
      000000CAH   SFRSYM    DATA     BYTE      RLDL
      00000080H.0 SFRSYM    DATA     BIT       P00
      00000090H.0 SFRSYM    DATA     BIT       P10
      00000080H.1 SFRSYM    DATA     BIT       P01
      000000F7H   SFRSYM    DATA     BYTE      I2CMTP
      00000099H   SFRSYM    DATA     BYTE      SBUF
      00000087H   SFRSYM    DATA     BYTE      PCON
      000000A0H.0 SFRSYM    DATA     BIT       P20
      00000090H.1 SFRSYM    DATA     BIT       P11
      00000080H.2 SFRSYM    DATA     BIT       P02
      000000F5H   SFRSYM    DATA     BYTE      I2CMSR
      000000B0H.0 SFRSYM    DATA     BIT       P30
      000000A0H.1 SFRSYM    DATA     BIT       P21
      00000090H.2 SFRSYM    DATA     BIT       P12
      00000080H.3 SFRSYM    DATA     BIT       P03
      000000D4H   SFRSYM    DATA     BYTE      ADCMPL
      000000B0H.1 SFRSYM    DATA     BIT       P31
      000000A0H.2 SFRSYM    DATA     BIT       P22
      00000090H.3 SFRSYM    DATA     BIT       P13
      00000080H.4 SFRSYM    DATA     BIT       P04
LX51 LINKER/LOCATER V4.66.97.0                                                        05/18/2025  17:01:21  PAGE 46


      000000B0H.2 SFRSYM    DATA     BIT       P32
      000000A0H.3 SFRSYM    DATA     BIT       P23
      00000090H.4 SFRSYM    DATA     BIT       P14
      00000080H.5 SFRSYM    DATA     BIT       P05
      00000089H   SFRSYM    DATA     BYTE      TMOD
      00000088H   SFRSYM    DATA     BYTE      TCON
      000000B0H.3 SFRSYM    DATA     BIT       P33
      000000A0H.4 SFRSYM    DATA     BIT       P24
      00000090H.5 SFRSYM    DATA     BIT       P15
      00000080H.6 SFRSYM    DATA     BIT       P06
      000000B0H.4 SFRSYM    DATA     BIT       P34
      000000A0H.5 SFRSYM    DATA     BIT       P25
      00000090H.6 SFRSYM    DATA     BIT       P16
      00000080H.7 SFRSYM    DATA     BIT       P07
      000000B0H.5 SFRSYM    DATA     BIT       P35
      000000A0H.6 SFRSYM    DATA     BIT       P26
      00000090H.7 SFRSYM    DATA     BIT       P17
      000000F2H   SFRSYM    DATA     BYTE      I2CSSR
      000000B0H.6 SFRSYM    DATA     BIT       P36
      000000A0H.7 SFRSYM    DATA     BIT       P27
      000000ECH   SFRSYM    DATA     BYTE      SPCR
      000000DDH   SFRSYM    DATA     BYTE      ADRESH
      000000B0H.7 SFRSYM    DATA     BIT       P37
      000000EEH   SFRSYM    DATA     BYTE      SPDR
      00000080H.0 SFRSYM    DATA     BIT       KeyPress
      000000EFH   SFRSYM    DATA     BYTE      SSCR
      000000D3H   SFRSYM    DATA     BYTE      ADDLYL
      000000DCH   SFRSYM    DATA     BYTE      ADRESL
      00000088H.1 SFRSYM    DATA     BIT       IE0
      00000088H.3 SFRSYM    DATA     BIT       IE1
      0000008FH   SFRSYM    DATA     BYTE      CLKDIV
      000000F0H   SFRSYM    DATA     BYTE      B
      00000091H   SFRSYM    DATA     BYTE      FUNCCR
      0000009AH   SFRSYM    DATA     BYTE      P0TRIS
      000000A1H   SFRSYM    DATA     BYTE      P1TRIS
      000000A2H   SFRSYM    DATA     BYTE      P2TRIS
      000000E0H   SFRSYM    DATA     BYTE      ACC
      000000A3H   SFRSYM    DATA     BYTE      P3TRIS
      000000A8H.4 SFRSYM    DATA     BIT       ES0
      000000A8H.6 SFRSYM    DATA     BIT       ES1
      000000A8H.1 SFRSYM    DATA     BIT       ET0
      000000EDH   SFRSYM    DATA     BYTE      SPSR
      000000A8H.3 SFRSYM    DATA     BIT       ET1
      00000088H.5 SFRSYM    DATA     BIT       TF0
      000000A8H.5 SFRSYM    DATA     BIT       ET2
      00000098H.0 SFRSYM    DATA     BIT       RI0
      00000088H.7 SFRSYM    DATA     BIT       TF1
      0000008CH   SFRSYM    DATA     BYTE      TH0
      000000A8H.0 SFRSYM    DATA     BIT       EX0
      00000098H.1 SFRSYM    DATA     BIT       TI0
      00000088H.0 SFRSYM    DATA     BIT       IT0
      0000008DH   SFRSYM    DATA     BYTE      TH1
      000000A8H.2 SFRSYM    DATA     BIT       EX1
      00000088H.2 SFRSYM    DATA     BIT       IT1
      000000CDH   SFRSYM    DATA     BYTE      TH2
      000000D0H.0 SFRSYM    DATA     BIT       P
      000000DBH   SFRSYM    DATA     BYTE      TH3
      000000E3H   SFRSYM    DATA     BYTE      TH4
      0000008AH   SFRSYM    DATA     BYTE      TL0
      0000008BH   SFRSYM    DATA     BYTE      TL1
      00000098H.2 SFRSYM    DATA     BIT       U0RB8
      000000CCH   SFRSYM    DATA     BYTE      TL2
      000000B8H.4 SFRSYM    DATA     BIT       PS0
      000000DAH   SFRSYM    DATA     BYTE      TL3
      000000BFH   SFRSYM    DATA     BYTE      BUZCON
LX51 LINKER/LOCATER V4.66.97.0                                                        05/18/2025  17:01:21  PAGE 47


      000000B8H.6 SFRSYM    DATA     BIT       PS1
      000000B8H.1 SFRSYM    DATA     BIT       PT0
      00000098H.3 SFRSYM    DATA     BIT       U0TB8
      000000E2H   SFRSYM    DATA     BYTE      TL4
      000000D0H.3 SFRSYM    DATA     BIT       RS0
      000000B8H.3 SFRSYM    DATA     BIT       PT1
      000000D0H.4 SFRSYM    DATA     BIT       RS1
      000000B8H.5 SFRSYM    DATA     BIT       PT2
      00000098H.7 SFRSYM    DATA     BIT       U0SM0
      00000088H.4 SFRSYM    DATA     BIT       TR0
      000000BEH   SFRSYM    DATA     BYTE      BUZDIV
      00000098H.6 SFRSYM    DATA     BIT       U0SM1
      00000088H.6 SFRSYM    DATA     BIT       TR1
      000000B8H.0 SFRSYM    DATA     BIT       PX0
      00000098H.5 SFRSYM    DATA     BIT       U0SM2
      000000B8H.2 SFRSYM    DATA     BIT       PX1
      000000BDH   SFRSYM    DATA     BYTE      WUTCRH
      00000099H   SFRSYM    DATA     BYTE      SBUF0
      000000EBH   SFRSYM    DATA     BYTE      SBUF1
      000000BCH   SFRSYM    DATA     BYTE      WUTCRL
      00000098H   SFRSYM    DATA     BYTE      SCON0
      000000EAH   SFRSYM    DATA     BYTE      SCON1
      000000C8H   SFRSYM    DATA     BYTE      T2CON
      00000086H   SFRSYM    DATA     BYTE      DPS
      000000FEH   SFRSYM    DATA     BYTE      MDATA
      000000F6H   SFRSYM    DATA     BYTE      I2CMBUF
      000000F1H   SFRSYM    DATA     BYTE      I2CSADR
      00000098H.4 SFRSYM    DATA     BIT       U0REN
      000000C8H.5 SFRSYM    DATA     BIT       CAPES
      000000FDH   SFRSYM    DATA     BYTE      MADRH
      0000008EH   SFRSYM    DATA     BYTE      CKCON
      000000F3H   SFRSYM    DATA     BYTE      I2CSBUF
      000000FCH   SFRSYM    DATA     BYTE      MADRL
      000000D0H.5 SFRSYM    DATA     BIT       F0
      000000FBH   SFRSYM    DATA     BYTE      MLOCK
      000000D0H   SFRSYM    DATA     BYTE      PSW
      00000097H   SFRSYM    DATA     BYTE      WDCON
      00000050H   SYMBOL    DATA     ---       KeyTimer
      00000023H.2 SYMBOL    BIT      BIT       IsKeyPressed
      00000052H   SYMBOL    DATA     ---       Keyevent
      01003D6FH   SYMBOL    CODE     ---       _ClickAndHoldEventHandler

      01003DB1H   BLOCK     CODE     ---       LVL=0
      ---         BLOCKEND  ---      ---       LVL=0

      01003233H   BLOCK     CODE     ---       LVL=0
      01003233H   LINE      CODE     ---       #38
      01003259H   LINE      CODE     ---       #41
      0100325CH   LINE      CODE     ---       #43
      0100325FH   LINE      CODE     ---       #44
      ---         BLOCKEND  ---      ---       LVL=0

      01003E17H   BLOCK     CODE     ---       LVL=0
      01003E17H   LINE      CODE     ---       #47
      01003E17H   LINE      CODE     ---       #48
      01003E17H   LINE      CODE     ---       #49
      01003E1CH   LINE      CODE     ---       #50
      ---         BLOCKEND  ---      ---       LVL=0

      010033E0H   BLOCK     CODE     ---       LVL=0
      010033E0H   BLOCK     CODE     NEAR LAB  LVL=1
      00000024H   SYMBOL    DATA     ---       KeyInitCfg
      ---         BLOCKEND  ---      ---       LVL=1
      010033E0H   LINE      CODE     ---       #53
      010033E0H   LINE      CODE     ---       #54
LX51 LINKER/LOCATER V4.66.97.0                                                        05/18/2025  17:01:21  PAGE 48


      010033E0H   LINE      CODE     ---       #57
      010033E3H   LINE      CODE     ---       #58
      010033E6H   LINE      CODE     ---       #59
      010033E8H   LINE      CODE     ---       #61
      010033EEH   LINE      CODE     ---       #62
      010033FBH   LINE      CODE     ---       #63
      01003402H   LINE      CODE     ---       #64
      0100340AH   LINE      CODE     ---       #65
      0100340DH   LINE      CODE     ---       #67
      01003410H   LINE      CODE     ---       #68
      01003416H   LINE      CODE     ---       #69
      01003419H   LINE      CODE     ---       #70
      0100341BH   LINE      CODE     ---       #71
      0100341DH   LINE      CODE     ---       #72
      0100341FH   LINE      CODE     ---       #73
      01003421H   LINE      CODE     ---       #74
      ---         BLOCKEND  ---      ---       LVL=0

      01003D8BH   BLOCK     CODE     ---       LVL=0
      01003D8BH   LINE      CODE     ---       #77
      01003D8BH   LINE      CODE     ---       #78
      01003D8BH   LINE      CODE     ---       #79
      01003D91H   LINE      CODE     ---       #80
      01003D97H   LINE      CODE     ---       #82
      01003D97H   LINE      CODE     ---       #83
      ---         BLOCKEND  ---      ---       LVL=0

      010034A5H   BLOCK     CODE     ---       LVL=0
      010034A5H   BLOCK     CODE     NEAR LAB  LVL=1
      00000005H   SYMBOL    DATA     BYTE      buf
      00000006H   SYMBOL    DATA     BYTE      i
      00000007H   SYMBOL    DATA     BYTE      Time
      ---         BLOCKEND  ---      ---       LVL=1
      010034A5H   LINE      CODE     ---       #86
      010034A5H   LINE      CODE     ---       #87
      010034A5H   LINE      CODE     ---       #91
      010034B9H   LINE      CODE     ---       #92
      010034B9H   LINE      CODE     ---       #93
      010034BCH   LINE      CODE     ---       #94
      010034CBH   LINE      CODE     ---       #95
      010034CDH   LINE      CODE     ---       #96
      010034D3H   LINE      CODE     ---       #97
      010034D7H   LINE      CODE     ---       #98
      010034DEH   LINE      CODE     ---       #99
      010034E1H   LINE      CODE     ---       #100
      ---         BLOCKEND  ---      ---       LVL=0

      01002EC2H   BLOCK     CODE     ---       LVL=0
      01002EC2H   BLOCK     CODE     NEAR LAB  LVL=1
      00000007H   SYMBOL    DATA     BYTE      time
      ---         BLOCKEND  ---      ---       LVL=1
      01002EC2H   LINE      CODE     ---       #103
      01002EC2H   LINE      CODE     ---       #104
      01002EC2H   LINE      CODE     ---       #107
      01002ECEH   LINE      CODE     ---       #108
      01002ECEH   LINE      CODE     ---       #109
      01002ED0H   LINE      CODE     ---       #110
      01002ED5H   LINE      CODE     ---       #111
      01002ED8H   LINE      CODE     ---       #112
      01002EE0H   LINE      CODE     ---       #113
      01002EE0H   LINE      CODE     ---       #114
      01002EE3H   LINE      CODE     ---       #115
      01002EE5H   LINE      CODE     ---       #116
      01002EE7H   LINE      CODE     ---       #117
      01002EEDH   LINE      CODE     ---       #118
LX51 LINKER/LOCATER V4.66.97.0                                                        05/18/2025  17:01:21  PAGE 49


      01002EEDH   LINE      CODE     ---       #119
      01002F01H   LINE      CODE     ---       #120
      01002F04H   LINE      CODE     ---       #121
      01002F04H   LINE      CODE     ---       #122
      01002F06H   LINE      CODE     ---       #125
      01002F06H   LINE      CODE     ---       #126
      01002F08H   LINE      CODE     ---       #127
      01002F10H   LINE      CODE     ---       #128
      01002F18H   LINE      CODE     ---       #129
      01002F18H   LINE      CODE     ---       #131
      01002F1FH   LINE      CODE     ---       #132
      01002F25H   LINE      CODE     ---       #133
      ---         BLOCKEND  ---      ---       LVL=0

      01003B0EH   BLOCK     CODE     ---       LVL=0
      01003B0EH   LINE      CODE     ---       #136
      01003B0EH   LINE      CODE     ---       #137
      01003B0EH   LINE      CODE     ---       #139
      01003B15H   LINE      CODE     ---       #140
      01003B1BH   LINE      CODE     ---       #142
      01003B1DH   LINE      CODE     ---       #143
      01003B25H   LINE      CODE     ---       #144
      01003B2DH   LINE      CODE     ---       #145
      ---         BLOCKEND  ---      ---       LVL=0

      01003D6FH   BLOCK     CODE     ---       LVL=0
      00000006H   SYMBOL    DATA     INT       PressCount
      01003D6FH   LINE      CODE     ---       #148
      01003D6FH   LINE      CODE     ---       #149
      01003D6FH   LINE      CODE     ---       #150
      01003D72H   LINE      CODE     ---       #151
      01003D74H   LINE      CODE     ---       #152
      01003D76H   LINE      CODE     ---       #153
      01003D78H   LINE      CODE     ---       #155
      01003D7CH   LINE      CODE     ---       #156
      ---         BLOCKEND  ---      ---       LVL=0

      01002239H   BLOCK     CODE     ---       LVL=0
      01002239H   BLOCK     CODE     NEAR LAB  LVL=1
      00000024H   SYMBOL    DATA     BYTE      buf
      ---         BLOCKEND  ---      ---       LVL=1
      01002239H   LINE      CODE     ---       #158
      01002239H   LINE      CODE     ---       #159
      01002239H   LINE      CODE     ---       #163
      01002242H   LINE      CODE     ---       #164
      01002242H   LINE      CODE     ---       #166
      01002249H   LINE      CODE     ---       #167
      0100224FH   LINE      CODE     ---       #169
      01002255H   LINE      CODE     ---       #170
      0100225EH   LINE      CODE     ---       #171
      0100225EH   LINE      CODE     ---       #172
      01002261H   LINE      CODE     ---       #173
      01002264H   LINE      CODE     ---       #174
      0100226FH   LINE      CODE     ---       #175
      0100227EH   LINE      CODE     ---       #176
      01002285H   LINE      CODE     ---       #177
      01002285H   LINE      CODE     ---       #178
      01002285H   LINE      CODE     ---       #180
      01002290H   LINE      CODE     ---       #182
      0100229AH   LINE      CODE     ---       #183
      010022A2H   LINE      CODE     ---       #184
      010022A2H   LINE      CODE     ---       #186
      010022B2H   LINE      CODE     ---       #188
      010022B2H   LINE      CODE     ---       #189
      010022B5H   LINE      CODE     ---       #190
LX51 LINKER/LOCATER V4.66.97.0                                                        05/18/2025  17:01:21  PAGE 50


      010022B8H   LINE      CODE     ---       #191
      010022BBH   LINE      CODE     ---       #192
      010022BBH   LINE      CODE     ---       #193
      010022BEH   LINE      CODE     ---       #194
      010022BEH   LINE      CODE     ---       #196
      010022C7H   LINE      CODE     ---       #197
      010022C7H   LINE      CODE     ---       #198
      010022C9H   LINE      CODE     ---       #199
      010022CDH   LINE      CODE     ---       #200
      010022D1H   LINE      CODE     ---       #202
      010022D4H   LINE      CODE     ---       #203
      010022D4H   LINE      CODE     ---       #204
      ---         BLOCKEND  ---      ---       LVL=0

      01003BF3H   BLOCK     CODE     ---       LVL=0
      00000020H.1 SYMBOL    BIT      BIT       IsRemoveResult
      01003BF3H   BLOCK     CODE     NEAR LAB  LVL=1
      00000006H   SYMBOL    DATA     INT       buf
      ---         BLOCKEND  ---      ---       LVL=1
      01003BF3H   LINE      CODE     ---       #206
      01003BF3H   LINE      CODE     ---       #207
      01003BF3H   LINE      CODE     ---       #209
      01003BFAH   LINE      CODE     ---       #210
      01003C00H   LINE      CODE     ---       #211
      01003C02H   LINE      CODE     ---       #212
      01003C05H   LINE      CODE     ---       #213
      01003C05H   LINE      CODE     ---       #214
      01003C08H   LINE      CODE     ---       #215
      01003C0AH   LINE      CODE     ---       #216
      01003C0AH   LINE      CODE     ---       #217
      01003C0AH   LINE      CODE     ---       #218
      ---         BLOCKEND  ---      ---       LVL=0

      01003D98H   BLOCK     CODE     ---       LVL=0
      01003D98H   LINE      CODE     ---       #220
      01003D98H   LINE      CODE     ---       #221
      01003D98H   LINE      CODE     ---       #222
      01003DA0H   LINE      CODE     ---       #223
      01003DA3H   LINE      CODE     ---       #224
      01003DA4H   LINE      CODE     ---       #225
      ---         BLOCKEND  ---      ---       LVL=0

      01000003H   BLOCK     CODE     ---       LVL=0
      01000003H   LINE      CODE     ---       #227
      01000003H   LINE      CODE     ---       #228
      01000003H   LINE      CODE     ---       #229
      01000009H   LINE      CODE     ---       #230
      ---         BLOCKEND  ---      ---       LVL=0

      01003DE4H   BLOCK     CODE     ---       LVL=0
      01003DE4H   LINE      CODE     ---       #232
      01003DE4H   LINE      CODE     ---       #233
      01003DE4H   LINE      CODE     ---       #234
      01003DECH   LINE      CODE     ---       #235
      ---         BLOCKEND  ---      ---       LVL=0

      0100000EH   BLOCK     CODE     ---       LVL=0
      0100000EH   LINE      CODE     ---       #237
      0100000EH   LINE      CODE     ---       #238
      0100000EH   LINE      CODE     ---       #240
      01000028H   LINE      CODE     ---       #241
      ---         BLOCKEND  ---      ---       LVL=0

      ---         MODULE    ---      ---       LEDMGMT
      0000005AH   PUBLIC    DATA     BYTE      LEDMode
LX51 LINKER/LOCATER V4.66.97.0                                                        05/18/2025  17:01:21  PAGE 51


      00000023H.3 PUBLIC    BIT      BIT       IsHalfBrightness
      01003876H   PUBLIC    CODE     ---       _MakeFastStrobe
      01001BBEH   PUBLIC    CODE     ---       LEDControlHandler
      01002983H   PUBLIC    CODE     ---       LED_Init
      000000C8H.0 SFRSYM    DATA     BIT       T2I0
      000000C3H   SFRSYM    DATA     BYTE      CCH1
      00000080H   SFRSYM    DATA     BYTE      P0
      000000C8H.1 SFRSYM    DATA     BIT       T2I1
      000000C5H   SFRSYM    DATA     BYTE      CCH2
      00000090H   SFRSYM    DATA     BYTE      P1
      000000C7H   SFRSYM    DATA     BYTE      CCH3
      000000ACH   SFRSYM    DATA     BYTE      P0EXTIE
      000000A0H   SFRSYM    DATA     BYTE      P2
      000000B4H   SFRSYM    DATA     BYTE      P0EXTIF
      000000B0H   SFRSYM    DATA     BYTE      P3
      000000ADH   SFRSYM    DATA     BYTE      P1EXTIE
      000000D0H.6 SFRSYM    DATA     BIT       AC
      000000FFH   SFRSYM    DATA     BYTE      MCTRL
      000000C2H   SFRSYM    DATA     BYTE      CCL1
      000000B5H   SFRSYM    DATA     BYTE      P1EXTIF
      000000AEH   SFRSYM    DATA     BYTE      P2EXTIE
      000000C4H   SFRSYM    DATA     BYTE      CCL2
      000000B6H   SFRSYM    DATA     BYTE      P2EXTIF
      000000AFH   SFRSYM    DATA     BYTE      P3EXTIE
      000000A8H.7 SFRSYM    DATA     BIT       EA
      000000C6H   SFRSYM    DATA     BYTE      CCL3
      000000B7H   SFRSYM    DATA     BYTE      P3EXTIF
      000000AAH   SFRSYM    DATA     BYTE      EIE2
      000000B2H   SFRSYM    DATA     BYTE      EIF2
      000000C8H.3 SFRSYM    DATA     BIT       T2R0
      000000C8H.4 SFRSYM    DATA     BIT       T2R1
      00000083H   SFRSYM    DATA     BYTE      DPH0
      000000A8H   SFRSYM    DATA     BYTE      IE
      00000085H   SFRSYM    DATA     BYTE      DPH1
      000000B9H   SFRSYM    DATA     BYTE      EIP1
      000000BAH   SFRSYM    DATA     BYTE      EIP2
      00000082H   SFRSYM    DATA     BYTE      DPL0
      00000084H   SFRSYM    DATA     BYTE      DPL1
      000000C8H.6 SFRSYM    DATA     BIT       I3FR
      000000CFH   SFRSYM    DATA     BYTE      T2IE
      00000096H   SFRSYM    DATA     BYTE      TA
      000000C9H   SFRSYM    DATA     BYTE      T2IF
      000000C8H.2 SFRSYM    DATA     BIT       T2CM
      000000DFH   SFRSYM    DATA     BYTE      ADCON0
      000000DEH   SFRSYM    DATA     BYTE      ADCON1
      000000E9H   SFRSYM    DATA     BYTE      ADCON2
      000000B8H   SFRSYM    DATA     BYTE      IP
      000000CEH   SFRSYM    DATA     BYTE      CCEN
      000000D0H.7 SFRSYM    DATA     BIT       CY
      000000D2H   SFRSYM    DATA     BYTE      T34MOD
      00000093H   SFRSYM    DATA     BYTE      DPX0
      00000095H   SFRSYM    DATA     BYTE      DPX1
      000000F4H   SFRSYM    DATA     BYTE      I2CMSA
      000000F5H   SFRSYM    DATA     BYTE      I2CMCR
      00000081H   SFRSYM    DATA     BYTE      SP
      000000D0H.2 SFRSYM    DATA     BIT       OV
      000000F2H   SFRSYM    DATA     BYTE      I2CSCR
      000000C8H.7 SFRSYM    DATA     BIT       T2PS
      000000D1H   SFRSYM    DATA     BYTE      ADCMPC
      000000CBH   SFRSYM    DATA     BYTE      RLDH
      000000D5H   SFRSYM    DATA     BYTE      ADCMPH
      000000CAH   SFRSYM    DATA     BYTE      RLDL
      00000080H.0 SFRSYM    DATA     BIT       P00
      00000090H.0 SFRSYM    DATA     BIT       P10
      00000080H.1 SFRSYM    DATA     BIT       P01
LX51 LINKER/LOCATER V4.66.97.0                                                        05/18/2025  17:01:21  PAGE 52


      000000F7H   SFRSYM    DATA     BYTE      I2CMTP
      00000099H   SFRSYM    DATA     BYTE      SBUF
      00000087H   SFRSYM    DATA     BYTE      PCON
      000000A0H.0 SFRSYM    DATA     BIT       P20
      00000090H.1 SFRSYM    DATA     BIT       P11
      00000080H.2 SFRSYM    DATA     BIT       P02
      000000F5H   SFRSYM    DATA     BYTE      I2CMSR
      000000B0H.0 SFRSYM    DATA     BIT       P30
      000000A0H.1 SFRSYM    DATA     BIT       P21
      00000090H.2 SFRSYM    DATA     BIT       P12
      00000080H.3 SFRSYM    DATA     BIT       P03
      000000D4H   SFRSYM    DATA     BYTE      ADCMPL
      000000B0H.1 SFRSYM    DATA     BIT       P31
      000000A0H.2 SFRSYM    DATA     BIT       P22
      00000090H.3 SFRSYM    DATA     BIT       P13
      00000080H.4 SFRSYM    DATA     BIT       P04
      000000B0H.2 SFRSYM    DATA     BIT       P32
      000000A0H.3 SFRSYM    DATA     BIT       P23
      00000090H.4 SFRSYM    DATA     BIT       P14
      00000080H.5 SFRSYM    DATA     BIT       P05
      00000089H   SFRSYM    DATA     BYTE      TMOD
      00000088H   SFRSYM    DATA     BYTE      TCON
      000000B0H.3 SFRSYM    DATA     BIT       P33
      000000A0H.4 SFRSYM    DATA     BIT       P24
      00000090H.5 SFRSYM    DATA     BIT       P15
      00000080H.6 SFRSYM    DATA     BIT       P06
      000000B0H.4 SFRSYM    DATA     BIT       P34
      000000A0H.5 SFRSYM    DATA     BIT       P25
      00000090H.6 SFRSYM    DATA     BIT       P16
      00000080H.7 SFRSYM    DATA     BIT       P07
      000000B0H.5 SFRSYM    DATA     BIT       P35
      000000A0H.6 SFRSYM    DATA     BIT       P26
      00000090H.7 SFRSYM    DATA     BIT       P17
      000000F2H   SFRSYM    DATA     BYTE      I2CSSR
      000000B0H.6 SFRSYM    DATA     BIT       P36
      000000A0H.7 SFRSYM    DATA     BIT       P27
      000000ECH   SFRSYM    DATA     BYTE      SPCR
      000000DDH   SFRSYM    DATA     BYTE      ADRESH
      000000B0H.7 SFRSYM    DATA     BIT       P37
      000000EEH   SFRSYM    DATA     BYTE      SPDR
      000000EFH   SFRSYM    DATA     BYTE      SSCR
      000000D3H   SFRSYM    DATA     BYTE      ADDLYL
      000000DCH   SFRSYM    DATA     BYTE      ADRESL
      00000088H.1 SFRSYM    DATA     BIT       IE0
      00000088H.3 SFRSYM    DATA     BIT       IE1
      0000008FH   SFRSYM    DATA     BYTE      CLKDIV
      000000F0H   SFRSYM    DATA     BYTE      B
      00000091H   SFRSYM    DATA     BYTE      FUNCCR
      0000009AH   SFRSYM    DATA     BYTE      P0TRIS
      000000A1H   SFRSYM    DATA     BYTE      P1TRIS
      000000A2H   SFRSYM    DATA     BYTE      P2TRIS
      000000E0H   SFRSYM    DATA     BYTE      ACC
      000000A3H   SFRSYM    DATA     BYTE      P3TRIS
      000000A8H.4 SFRSYM    DATA     BIT       ES0
      000000A8H.6 SFRSYM    DATA     BIT       ES1
      000000A8H.1 SFRSYM    DATA     BIT       ET0
      000000EDH   SFRSYM    DATA     BYTE      SPSR
      000000A8H.3 SFRSYM    DATA     BIT       ET1
      00000088H.5 SFRSYM    DATA     BIT       TF0
      000000A8H.5 SFRSYM    DATA     BIT       ET2
      00000098H.0 SFRSYM    DATA     BIT       RI0
      00000088H.7 SFRSYM    DATA     BIT       TF1
      0000008CH   SFRSYM    DATA     BYTE      TH0
      000000A8H.0 SFRSYM    DATA     BIT       EX0
      00000098H.1 SFRSYM    DATA     BIT       TI0
LX51 LINKER/LOCATER V4.66.97.0                                                        05/18/2025  17:01:21  PAGE 53


      00000088H.0 SFRSYM    DATA     BIT       IT0
      0000008DH   SFRSYM    DATA     BYTE      TH1
      000000A8H.2 SFRSYM    DATA     BIT       EX1
      00000088H.2 SFRSYM    DATA     BIT       IT1
      000000CDH   SFRSYM    DATA     BYTE      TH2
      000000D0H.0 SFRSYM    DATA     BIT       P
      000000DBH   SFRSYM    DATA     BYTE      TH3
      000000E3H   SFRSYM    DATA     BYTE      TH4
      0000008AH   SFRSYM    DATA     BYTE      TL0
      0000008BH   SFRSYM    DATA     BYTE      TL1
      00000098H.2 SFRSYM    DATA     BIT       U0RB8
      000000CCH   SFRSYM    DATA     BYTE      TL2
      000000B8H.4 SFRSYM    DATA     BIT       PS0
      000000DAH   SFRSYM    DATA     BYTE      TL3
      000000BFH   SFRSYM    DATA     BYTE      BUZCON
      000000B8H.6 SFRSYM    DATA     BIT       PS1
      000000B8H.1 SFRSYM    DATA     BIT       PT0
      00000098H.3 SFRSYM    DATA     BIT       U0TB8
      000000E2H   SFRSYM    DATA     BYTE      TL4
      000000D0H.3 SFRSYM    DATA     BIT       RS0
      000000B8H.3 SFRSYM    DATA     BIT       PT1
      000000D0H.4 SFRSYM    DATA     BIT       RS1
      000000B8H.5 SFRSYM    DATA     BIT       PT2
      00000098H.7 SFRSYM    DATA     BIT       U0SM0
      00000088H.4 SFRSYM    DATA     BIT       TR0
      000000BEH   SFRSYM    DATA     BYTE      BUZDIV
      00000098H.6 SFRSYM    DATA     BIT       U0SM1
      00000088H.6 SFRSYM    DATA     BIT       TR1
      000000B8H.0 SFRSYM    DATA     BIT       PX0
      00000098H.5 SFRSYM    DATA     BIT       U0SM2
      000000B8H.2 SFRSYM    DATA     BIT       PX1
      000000BDH   SFRSYM    DATA     BYTE      WUTCRH
      00000099H   SFRSYM    DATA     BYTE      SBUF0
      000000EBH   SFRSYM    DATA     BYTE      SBUF1
      000000BCH   SFRSYM    DATA     BYTE      WUTCRL
      00000098H   SFRSYM    DATA     BYTE      SCON0
      000000EAH   SFRSYM    DATA     BYTE      SCON1
      000000C8H   SFRSYM    DATA     BYTE      T2CON
      00000086H   SFRSYM    DATA     BYTE      DPS
      000000FEH   SFRSYM    DATA     BYTE      MDATA
      000000F6H   SFRSYM    DATA     BYTE      I2CMBUF
      000000F1H   SFRSYM    DATA     BYTE      I2CSADR
      00000098H.4 SFRSYM    DATA     BIT       U0REN
      000000C8H.5 SFRSYM    DATA     BIT       CAPES
      000000FDH   SFRSYM    DATA     BYTE      MADRH
      0000008EH   SFRSYM    DATA     BYTE      CKCON
      000000F3H   SFRSYM    DATA     BYTE      I2CSBUF
      000000FCH   SFRSYM    DATA     BYTE      MADRL
      000000D0H.5 SFRSYM    DATA     BIT       F0
      000000FBH   SFRSYM    DATA     BYTE      MLOCK
      000000D0H   SFRSYM    DATA     BYTE      PSW
      00000097H   SFRSYM    DATA     BYTE      WDCON
      01003AABH   SYMBOL    CODE     ---       SetLEDONOFF
      010035CFH   SYMBOL    CODE     ---       SetLEDBrightNess
      00000059H   SYMBOL    DATA     CHAR      timer

      010035CFH   BLOCK     CODE     ---       LVL=0
      010035CFH   LINE      CODE     ---       #17
      010035CFH   LINE      CODE     ---       #18
      010035CFH   LINE      CODE     ---       #20
      010035DBH   LINE      CODE     ---       #21
      010035E7H   LINE      CODE     ---       #22
      010035F3H   LINE      CODE     ---       #23
      010035FFH   LINE      CODE     ---       #25
      01003606H   LINE      CODE     ---       #26
LX51 LINKER/LOCATER V4.66.97.0                                                        05/18/2025  17:01:21  PAGE 54


      ---         BLOCKEND  ---      ---       LVL=0

      01002983H   BLOCK     CODE     ---       LVL=0
      01002983H   BLOCK     CODE     NEAR LAB  LVL=1
      00000024H   SYMBOL    DATA     ---       LEDInitCfg
      ---         BLOCKEND  ---      ---       LVL=1
      01002983H   LINE      CODE     ---       #29
      01002983H   LINE      CODE     ---       #30
      01002983H   LINE      CODE     ---       #33
      01002986H   LINE      CODE     ---       #34
      01002989H   LINE      CODE     ---       #35
      0100298CH   LINE      CODE     ---       #37
      0100298EH   LINE      CODE     ---       #39
      01002993H   LINE      CODE     ---       #40
      01002999H   LINE      CODE     ---       #41
      0100299BH   LINE      CODE     ---       #43
      010029A1H   LINE      CODE     ---       #44
      010029A7H   LINE      CODE     ---       #45
      010029ADH   LINE      CODE     ---       #46
      010029B3H   LINE      CODE     ---       #48
      010029BAH   LINE      CODE     ---       #50
      010029BDH   LINE      CODE     ---       #51
      010029C5H   LINE      CODE     ---       #53
      010029CEH   LINE      CODE     ---       #54
      010029D7H   LINE      CODE     ---       #56
      010029DCH   LINE      CODE     ---       #57
      010029E1H   LINE      CODE     ---       #58
      010029EAH   LINE      CODE     ---       #59
      010029F3H   LINE      CODE     ---       #60
      ---         BLOCKEND  ---      ---       LVL=0

      01003AABH   BLOCK     CODE     ---       LVL=0
      00000020H.4 SYMBOL    BIT      BIT       RLED
      00000020H.5 SYMBOL    BIT      BIT       GLED
      01003AABH   BLOCK     CODE     NEAR LAB  LVL=1
      00000007H   SYMBOL    DATA     BYTE      buf
      ---         BLOCKEND  ---      ---       LVL=1
      01003AABH   LINE      CODE     ---       #63
      01003AABH   LINE      CODE     ---       #64
      01003AABH   LINE      CODE     ---       #66
      01003AB0H   LINE      CODE     ---       #67
      01003AB8H   LINE      CODE     ---       #68
      01003ABBH   LINE      CODE     ---       #69
      01003AC3H   LINE      CODE     ---       #70
      01003AC6H   LINE      CODE     ---       #71
      01003ACBH   LINE      CODE     ---       #72
      ---         BLOCKEND  ---      ---       LVL=0

      01001BBEH   BLOCK     CODE     ---       LVL=0
      01001BBEH   BLOCK     CODE     NEAR LAB  LVL=1
      00000020H.1 SYMBOL    BIT      BIT       IsLEDON
      00000020H.2 SYMBOL    BIT      BIT       RLED
      00000020H.3 SYMBOL    BIT      BIT       GLED
      ---         BLOCKEND  ---      ---       LVL=1
      01001BBEH   LINE      CODE     ---       #75
      01001BBEH   LINE      CODE     ---       #76
      01001BBEH   LINE      CODE     ---       #77
      01001BC2H   LINE      CODE     ---       #79
      01001BCEH   LINE      CODE     ---       #80
      01001BCEH   LINE      CODE     ---       #81
      01001BD3H   LINE      CODE     ---       #82
      01001BD3H   LINE      CODE     ---       #83
      01001BD5H   LINE      CODE     ---       #84
      01001BD7H   LINE      CODE     ---       #85
      01001BD9H   LINE      CODE     ---       #86
LX51 LINKER/LOCATER V4.66.97.0                                                        05/18/2025  17:01:21  PAGE 55


      01001BDBH   LINE      CODE     ---       #87
      01001BE2H   LINE      CODE     ---       #88
      01001BE2H   LINE      CODE     ---       #90
      01001C11H   LINE      CODE     ---       #91
      01001C11H   LINE      CODE     ---       #92
      01001C16H   LINE      CODE     ---       #93
      01001C1CH   LINE      CODE     ---       #94
      01001C20H   LINE      CODE     ---       #95
      01001C24H   LINE      CODE     ---       #96
      01001C24H   LINE      CODE     ---       #98
      01001C29H   LINE      CODE     ---       #99
      01001C29H   LINE      CODE     ---       #100
      01001C2CH   LINE      CODE     ---       #101
      01001C2FH   LINE      CODE     ---       #102
      01001C31H   LINE      CODE     ---       #104
      01001C33H   LINE      CODE     ---       #105
      01001C42H   LINE      CODE     ---       #106
      01001C44H   LINE      CODE     ---       #107
      01001C44H   LINE      CODE     ---       #108
      01001C44H   LINE      CODE     ---       #109
      01001C44H   LINE      CODE     ---       #110
      01001C47H   LINE      CODE     ---       #111
      01001C6CH   LINE      CODE     ---       #113
      01001C6CH   LINE      CODE     ---       #114
      01001C7DH   LINE      CODE     ---       #115
      01001C8AH   LINE      CODE     ---       #116
      01001C8EH   LINE      CODE     ---       #117
      01001C90H   LINE      CODE     ---       #118
      01001C90H   LINE      CODE     ---       #119
      01001C92H   LINE      CODE     ---       #120
      01001C92H   LINE      CODE     ---       #122
      01001C94H   LINE      CODE     ---       #124
      01001C97H   LINE      CODE     ---       #125
      ---         BLOCKEND  ---      ---       LVL=0

      01003876H   BLOCK     CODE     ---       LVL=0
      00000007H   SYMBOL    DATA     BYTE      LEDMode
      01003876H   LINE      CODE     ---       #129
      01003876H   LINE      CODE     ---       #130
      01003876H   LINE      CODE     ---       #132
      01003880H   LINE      CODE     ---       #133
      01003880H   LINE      CODE     ---       #134
      01003884H   LINE      CODE     ---       #135
      0100388AH   LINE      CODE     ---       #136
      01003891H   LINE      CODE     ---       #137
      01003891H   LINE      CODE     ---       #138
      01003891H   LINE      CODE     ---       #139
      01003898H   LINE      CODE     ---       #141
      0100389FH   LINE      CODE     ---       #142
      ---         BLOCKEND  ---      ---       LVL=0

      ---         MODULE    ---      ---       PWM
      02000035H   PUBLIC    XDATA    INT       PreChargeDACDuty
      00000022H.0 PUBLIC    BIT      BIT       IsNeedToUploadPWM
      02000031H   PUBLIC    XDATA    FLOAT     PWMDuty
      010016F9H   PUBLIC    CODE     ---       PWM_OutputCtrlHandler
      00000020H.2 PUBLIC    BIT      BIT       ?PWM_ForceEnableOut?BIT
      01003607H   PUBLIC    CODE     ---       PWM_ForceEnableOut
      01001CA2H   PUBLIC    CODE     ---       PWM_Init
      01003B8BH   PUBLIC    CODE     ---       PWM_DeInit
      000000C8H.0 SFRSYM    DATA     BIT       T2I0
      000000C3H   SFRSYM    DATA     BYTE      CCH1
      00000080H   SFRSYM    DATA     BYTE      P0
      000000C8H.1 SFRSYM    DATA     BIT       T2I1
      000000C5H   SFRSYM    DATA     BYTE      CCH2
LX51 LINKER/LOCATER V4.66.97.0                                                        05/18/2025  17:01:21  PAGE 56


      00000090H   SFRSYM    DATA     BYTE      P1
      000000C7H   SFRSYM    DATA     BYTE      CCH3
      000000ACH   SFRSYM    DATA     BYTE      P0EXTIE
      000000A0H   SFRSYM    DATA     BYTE      P2
      000000B4H   SFRSYM    DATA     BYTE      P0EXTIF
      000000B0H   SFRSYM    DATA     BYTE      P3
      000000ADH   SFRSYM    DATA     BYTE      P1EXTIE
      000000D0H.6 SFRSYM    DATA     BIT       AC
      000000FFH   SFRSYM    DATA     BYTE      MCTRL
      000000C2H   SFRSYM    DATA     BYTE      CCL1
      000000B5H   SFRSYM    DATA     BYTE      P1EXTIF
      000000AEH   SFRSYM    DATA     BYTE      P2EXTIE
      000000C4H   SFRSYM    DATA     BYTE      CCL2
      000000B6H   SFRSYM    DATA     BYTE      P2EXTIF
      000000AFH   SFRSYM    DATA     BYTE      P3EXTIE
      000000A8H.7 SFRSYM    DATA     BIT       EA
      000000C6H   SFRSYM    DATA     BYTE      CCL3
      000000B7H   SFRSYM    DATA     BYTE      P3EXTIF
      000000AAH   SFRSYM    DATA     BYTE      EIE2
      000000B2H   SFRSYM    DATA     BYTE      EIF2
      000000C8H.3 SFRSYM    DATA     BIT       T2R0
      000000C8H.4 SFRSYM    DATA     BIT       T2R1
      00000083H   SFRSYM    DATA     BYTE      DPH0
      000000A8H   SFRSYM    DATA     BYTE      IE
      00000085H   SFRSYM    DATA     BYTE      DPH1
      000000B9H   SFRSYM    DATA     BYTE      EIP1
      000000BAH   SFRSYM    DATA     BYTE      EIP2
      00000082H   SFRSYM    DATA     BYTE      DPL0
      00000084H   SFRSYM    DATA     BYTE      DPL1
      000000C8H.6 SFRSYM    DATA     BIT       I3FR
      000000CFH   SFRSYM    DATA     BYTE      T2IE
      00000096H   SFRSYM    DATA     BYTE      TA
      000000C9H   SFRSYM    DATA     BYTE      T2IF
      000000C8H.2 SFRSYM    DATA     BIT       T2CM
      000000DFH   SFRSYM    DATA     BYTE      ADCON0
      000000DEH   SFRSYM    DATA     BYTE      ADCON1
      000000E9H   SFRSYM    DATA     BYTE      ADCON2
      000000B8H   SFRSYM    DATA     BYTE      IP
      000000CEH   SFRSYM    DATA     BYTE      CCEN
      000000D0H.7 SFRSYM    DATA     BIT       CY
      000000D2H   SFRSYM    DATA     BYTE      T34MOD
      00000093H   SFRSYM    DATA     BYTE      DPX0
      00000095H   SFRSYM    DATA     BYTE      DPX1
      000000F4H   SFRSYM    DATA     BYTE      I2CMSA
      000000F5H   SFRSYM    DATA     BYTE      I2CMCR
      00000081H   SFRSYM    DATA     BYTE      SP
      000000D0H.2 SFRSYM    DATA     BIT       OV
      000000F2H   SFRSYM    DATA     BYTE      I2CSCR
      000000C8H.7 SFRSYM    DATA     BIT       T2PS
      000000D1H   SFRSYM    DATA     BYTE      ADCMPC
      000000CBH   SFRSYM    DATA     BYTE      RLDH
      000000D5H   SFRSYM    DATA     BYTE      ADCMPH
      000000CAH   SFRSYM    DATA     BYTE      RLDL
      00000080H.0 SFRSYM    DATA     BIT       P00
      00000090H.0 SFRSYM    DATA     BIT       P10
      00000080H.1 SFRSYM    DATA     BIT       P01
      000000F7H   SFRSYM    DATA     BYTE      I2CMTP
      00000099H   SFRSYM    DATA     BYTE      SBUF
      00000087H   SFRSYM    DATA     BYTE      PCON
      000000A0H.0 SFRSYM    DATA     BIT       P20
      00000090H.1 SFRSYM    DATA     BIT       P11
      00000080H.2 SFRSYM    DATA     BIT       P02
      000000F5H   SFRSYM    DATA     BYTE      I2CMSR
      000000B0H.0 SFRSYM    DATA     BIT       P30
      000000A0H.1 SFRSYM    DATA     BIT       P21
LX51 LINKER/LOCATER V4.66.97.0                                                        05/18/2025  17:01:21  PAGE 57


      00000090H.2 SFRSYM    DATA     BIT       P12
      00000080H.3 SFRSYM    DATA     BIT       P03
      000000D4H   SFRSYM    DATA     BYTE      ADCMPL
      000000B0H.1 SFRSYM    DATA     BIT       P31
      000000A0H.2 SFRSYM    DATA     BIT       P22
      00000090H.3 SFRSYM    DATA     BIT       P13
      00000080H.4 SFRSYM    DATA     BIT       P04
      000000B0H.2 SFRSYM    DATA     BIT       P32
      000000A0H.3 SFRSYM    DATA     BIT       P23
      00000090H.4 SFRSYM    DATA     BIT       P14
      00000080H.5 SFRSYM    DATA     BIT       P05
      00000089H   SFRSYM    DATA     BYTE      TMOD
      00000088H   SFRSYM    DATA     BYTE      TCON
      000000B0H.3 SFRSYM    DATA     BIT       P33
      000000A0H.4 SFRSYM    DATA     BIT       P24
      00000090H.5 SFRSYM    DATA     BIT       P15
      00000080H.6 SFRSYM    DATA     BIT       P06
      000000B0H.4 SFRSYM    DATA     BIT       P34
      000000A0H.5 SFRSYM    DATA     BIT       P25
      00000090H.6 SFRSYM    DATA     BIT       P16
      00000080H.7 SFRSYM    DATA     BIT       P07
      000000B0H.5 SFRSYM    DATA     BIT       P35
      000000A0H.6 SFRSYM    DATA     BIT       P26
      00000090H.7 SFRSYM    DATA     BIT       P17
      000000F2H   SFRSYM    DATA     BYTE      I2CSSR
      000000B0H.6 SFRSYM    DATA     BIT       P36
      000000A0H.7 SFRSYM    DATA     BIT       P27
      000000ECH   SFRSYM    DATA     BYTE      SPCR
      000000DDH   SFRSYM    DATA     BYTE      ADRESH
      000000B0H.7 SFRSYM    DATA     BIT       P37
      000000EEH   SFRSYM    DATA     BYTE      SPDR
      000000EFH   SFRSYM    DATA     BYTE      SSCR
      000000D3H   SFRSYM    DATA     BYTE      ADDLYL
      000000DCH   SFRSYM    DATA     BYTE      ADRESL
      00000088H.1 SFRSYM    DATA     BIT       IE0
      00000088H.3 SFRSYM    DATA     BIT       IE1
      0000008FH   SFRSYM    DATA     BYTE      CLKDIV
      000000F0H   SFRSYM    DATA     BYTE      B
      00000091H   SFRSYM    DATA     BYTE      FUNCCR
      0000009AH   SFRSYM    DATA     BYTE      P0TRIS
      000000A1H   SFRSYM    DATA     BYTE      P1TRIS
      000000A2H   SFRSYM    DATA     BYTE      P2TRIS
      000000E0H   SFRSYM    DATA     BYTE      ACC
      000000A3H   SFRSYM    DATA     BYTE      P3TRIS
      000000A8H.4 SFRSYM    DATA     BIT       ES0
      000000A8H.6 SFRSYM    DATA     BIT       ES1
      000000A8H.1 SFRSYM    DATA     BIT       ET0
      000000EDH   SFRSYM    DATA     BYTE      SPSR
      000000A8H.3 SFRSYM    DATA     BIT       ET1
      00000088H.5 SFRSYM    DATA     BIT       TF0
      000000A8H.5 SFRSYM    DATA     BIT       ET2
      00000098H.0 SFRSYM    DATA     BIT       RI0
      00000088H.7 SFRSYM    DATA     BIT       TF1
      0000008CH   SFRSYM    DATA     BYTE      TH0
      000000A8H.0 SFRSYM    DATA     BIT       EX0
      00000098H.1 SFRSYM    DATA     BIT       TI0
      00000088H.0 SFRSYM    DATA     BIT       IT0
      0000008DH   SFRSYM    DATA     BYTE      TH1
      000000A8H.2 SFRSYM    DATA     BIT       EX1
      00000088H.2 SFRSYM    DATA     BIT       IT1
      000000CDH   SFRSYM    DATA     BYTE      TH2
      000000D0H.0 SFRSYM    DATA     BIT       P
      000000DBH   SFRSYM    DATA     BYTE      TH3
      000000E3H   SFRSYM    DATA     BYTE      TH4
      0000008AH   SFRSYM    DATA     BYTE      TL0
LX51 LINKER/LOCATER V4.66.97.0                                                        05/18/2025  17:01:21  PAGE 58


      0000008BH   SFRSYM    DATA     BYTE      TL1
      00000098H.2 SFRSYM    DATA     BIT       U0RB8
      000000CCH   SFRSYM    DATA     BYTE      TL2
      000000B8H.4 SFRSYM    DATA     BIT       PS0
      000000DAH   SFRSYM    DATA     BYTE      TL3
      000000BFH   SFRSYM    DATA     BYTE      BUZCON
      000000B8H.6 SFRSYM    DATA     BIT       PS1
      000000B8H.1 SFRSYM    DATA     BIT       PT0
      00000098H.3 SFRSYM    DATA     BIT       U0TB8
      000000E2H   SFRSYM    DATA     BYTE      TL4
      000000D0H.3 SFRSYM    DATA     BIT       RS0
      000000B8H.3 SFRSYM    DATA     BIT       PT1
      000000D0H.4 SFRSYM    DATA     BIT       RS1
      000000B8H.5 SFRSYM    DATA     BIT       PT2
      00000098H.7 SFRSYM    DATA     BIT       U0SM0
      00000088H.4 SFRSYM    DATA     BIT       TR0
      000000BEH   SFRSYM    DATA     BYTE      BUZDIV
      00000098H.6 SFRSYM    DATA     BIT       U0SM1
      00000088H.6 SFRSYM    DATA     BIT       TR1
      000000B8H.0 SFRSYM    DATA     BIT       PX0
      00000098H.5 SFRSYM    DATA     BIT       U0SM2
      000000B8H.2 SFRSYM    DATA     BIT       PX1
      000000BDH   SFRSYM    DATA     BYTE      WUTCRH
      00000099H   SFRSYM    DATA     BYTE      SBUF0
      000000EBH   SFRSYM    DATA     BYTE      SBUF1
      000000BCH   SFRSYM    DATA     BYTE      WUTCRL
      00000098H   SFRSYM    DATA     BYTE      SCON0
      000000EAH   SFRSYM    DATA     BYTE      SCON1
      000000C8H   SFRSYM    DATA     BYTE      T2CON
      00000086H   SFRSYM    DATA     BYTE      DPS
      000000FEH   SFRSYM    DATA     BYTE      MDATA
      000000F6H   SFRSYM    DATA     BYTE      I2CMBUF
      000000F1H   SFRSYM    DATA     BYTE      I2CSADR
      00000098H.4 SFRSYM    DATA     BIT       U0REN
      000000C8H.5 SFRSYM    DATA     BIT       CAPES
      000000FDH   SFRSYM    DATA     BYTE      MADRH
      0000008EH   SFRSYM    DATA     BYTE      CKCON
      000000F3H   SFRSYM    DATA     BYTE      I2CSBUF
      000000FCH   SFRSYM    DATA     BYTE      MADRL
      000000D0H.5 SFRSYM    DATA     BIT       F0
      000000FBH   SFRSYM    DATA     BYTE      MLOCK
      000000D0H   SFRSYM    DATA     BYTE      PSW
      00000097H   SFRSYM    DATA     BYTE      WDCON
      00000021H.7 SYMBOL    BIT      BIT       IsNeedToEnableMOS
      01003D60H   SYMBOL    CODE     ---       UploadPWMValue
      00000022H.1 SYMBOL    BIT      BIT       IsNeedToEnableOutput
      00000022H.2 SYMBOL    BIT      BIT       IsPWMLoading

      01003BA6H   BLOCK     CODE     ---       LVL=0
      ---         BLOCKEND  ---      ---       LVL=0

      01003B8BH   BLOCK     CODE     ---       LVL=0
      01003B8BH   LINE      CODE     ---       #15
      01003B8BH   LINE      CODE     ---       #16
      01003B8BH   LINE      CODE     ---       #18
      01003B94H   LINE      CODE     ---       #20
      01003B99H   LINE      CODE     ---       #21
      01003B9DH   LINE      CODE     ---       #22
      01003BA1H   LINE      CODE     ---       #23
      01003BA5H   LINE      CODE     ---       #24
      ---         BLOCKEND  ---      ---       LVL=0

      01003D60H   BLOCK     CODE     ---       LVL=0
      01003D60H   LINE      CODE     ---       #27
      01003D60H   LINE      CODE     ---       #28
LX51 LINKER/LOCATER V4.66.97.0                                                        05/18/2025  17:01:21  PAGE 59


      01003D60H   LINE      CODE     ---       #29
      01003D66H   LINE      CODE     ---       #30
      01003D6EH   LINE      CODE     ---       #31
      ---         BLOCKEND  ---      ---       LVL=0

      01001CA2H   BLOCK     CODE     ---       LVL=0
      01001CA2H   BLOCK     CODE     NEAR LAB  LVL=1
      00000024H   SYMBOL    DATA     ---       PWMInitCfg
      ---         BLOCKEND  ---      ---       LVL=1
      01001CA2H   LINE      CODE     ---       #34
      01001CA2H   LINE      CODE     ---       #35
      01001CA2H   LINE      CODE     ---       #38
      01001CA5H   LINE      CODE     ---       #39
      01001CA8H   LINE      CODE     ---       #40
      01001CABH   LINE      CODE     ---       #42
      01001CB4H   LINE      CODE     ---       #43
      01001CBDH   LINE      CODE     ---       #44
      01001CCAH   LINE      CODE     ---       #45
      01001CD7H   LINE      CODE     ---       #47
      01001CE0H   LINE      CODE     ---       #48
      01001CE9H   LINE      CODE     ---       #50
      01001CEEH   LINE      CODE     ---       #51
      01001CF2H   LINE      CODE     ---       #52
      01001CF8H   LINE      CODE     ---       #53
      01001CFCH   LINE      CODE     ---       #54
      01001D02H   LINE      CODE     ---       #55
      01001D06H   LINE      CODE     ---       #56
      01001D0BH   LINE      CODE     ---       #57
      01001D11H   LINE      CODE     ---       #58
      01001D13H   LINE      CODE     ---       #59
      01001D18H   LINE      CODE     ---       #60
      01001D1CH   LINE      CODE     ---       #61
      01001D22H   LINE      CODE     ---       #63
      01001D28H   LINE      CODE     ---       #64
      01001D2EH   LINE      CODE     ---       #65
      01001D34H   LINE      CODE     ---       #66
      01001D3AH   LINE      CODE     ---       #68
      01001D3FH   LINE      CODE     ---       #69
      01001D43H   LINE      CODE     ---       #70
      01001D47H   LINE      CODE     ---       #71
      01001D4BH   LINE      CODE     ---       #73
      01001D55H   LINE      CODE     ---       #74
      01001D5CH   LINE      CODE     ---       #75
      01001D5EH   LINE      CODE     ---       #76
      01001D60H   LINE      CODE     ---       #78
      01001D6AH   LINE      CODE     ---       #79
      ---         BLOCKEND  ---      ---       LVL=0

      01003607H   BLOCK     CODE     ---       LVL=0
      00000020H.2 SYMBOL    BIT      BIT       IsEnable
      01003607H   LINE      CODE     ---       #83
      01003607H   LINE      CODE     ---       #84
      01003607H   LINE      CODE     ---       #85
      01003613H   LINE      CODE     ---       #86
      0100361FH   LINE      CODE     ---       #87
      0100362BH   LINE      CODE     ---       #88
      0100362EH   LINE      CODE     ---       #89
      01003639H   LINE      CODE     ---       #90
      0100363CH   LINE      CODE     ---       #91
      ---         BLOCKEND  ---      ---       LVL=0

      010016F9H   BLOCK     CODE     ---       LVL=0
      010016F9H   BLOCK     CODE     NEAR LAB  LVL=1
      00000004H   SYMBOL    DATA     INT       value
      00000024H   SYMBOL    DATA     FLOAT     buf
LX51 LINKER/LOCATER V4.66.97.0                                                        05/18/2025  17:01:21  PAGE 60


      ---         BLOCKEND  ---      ---       LVL=1
      010016F9H   LINE      CODE     ---       #94
      010016F9H   LINE      CODE     ---       #95
      010016F9H   LINE      CODE     ---       #99
      010016FFH   LINE      CODE     ---       #100
      01001702H   LINE      CODE     ---       #101
      01001702H   LINE      CODE     ---       #102
      0100170DH   LINE      CODE     ---       #104
      01001719H   LINE      CODE     ---       #105
      0100171CH   LINE      CODE     ---       #106
      01001728H   LINE      CODE     ---       #107
      0100172BH   LINE      CODE     ---       #108
      0100172DH   LINE      CODE     ---       #109
      01001730H   LINE      CODE     ---       #111
      01001730H   LINE      CODE     ---       #113
      0100174BH   LINE      CODE     ---       #114
      0100175DH   LINE      CODE     ---       #115
      01001772H   LINE      CODE     ---       #116
      0100177EH   LINE      CODE     ---       #118
      0100178EH   LINE      CODE     ---       #119
      010017A2H   LINE      CODE     ---       #121
      010017C1H   LINE      CODE     ---       #122
      010017D3H   LINE      CODE     ---       #123
      010017DAH   LINE      CODE     ---       #124
      010017E9H   LINE      CODE     ---       #125
      010017EEH   LINE      CODE     ---       #126
      010017F5H   LINE      CODE     ---       #127
      010017FAH   LINE      CODE     ---       #129
      010017FCH   LINE      CODE     ---       #130
      01001803H   LINE      CODE     ---       #131
      ---         BLOCKEND  ---      ---       LVL=0

      ---         MODULE    ---      ---       OUTPUTCHANNEL
      0200002FH   PUBLIC    XDATA    INT       Current
      0200002BH   PUBLIC    XDATA    INT       CurrentBuf
      00000022H.6 PUBLIC    BIT      BIT       IsCurrentRampUp
      01000740H   PUBLIC    CODE     ---       OutputChannel_Calc
      01002885H   PUBLIC    CODE     ---       OutputChannel_TestRun
      01003C51H   PUBLIC    CODE     ---       GetIfSystemInPOFFSeq
      01003C3BH   PUBLIC    CODE     ---       GetIfOutputEnabled
      01003A45H   PUBLIC    CODE     ---       OutputChannel_DeInit
      010032CCH   PUBLIC    CODE     ---       OCFSM_TIMHandler
      0100339DH   PUBLIC    CODE     ---       OutputChannel_Init
      000000B0H.2 SFRSYM    DATA     BIT       BOOSTRUN
      000000C8H.0 SFRSYM    DATA     BIT       T2I0
      000000C3H   SFRSYM    DATA     BYTE      CCH1
      00000080H   SFRSYM    DATA     BYTE      P0
      000000C8H.1 SFRSYM    DATA     BIT       T2I1
      000000C5H   SFRSYM    DATA     BYTE      CCH2
      00000090H   SFRSYM    DATA     BYTE      P1
      000000C7H   SFRSYM    DATA     BYTE      CCH3
      000000ACH   SFRSYM    DATA     BYTE      P0EXTIE
      000000A0H   SFRSYM    DATA     BYTE      P2
      000000A0H.6 SFRSYM    DATA     BIT       AUXEN
      000000B4H   SFRSYM    DATA     BYTE      P0EXTIF
      000000B0H   SFRSYM    DATA     BYTE      P3
      000000ADH   SFRSYM    DATA     BYTE      P1EXTIE
      000000D0H.6 SFRSYM    DATA     BIT       AC
      000000FFH   SFRSYM    DATA     BYTE      MCTRL
      000000C2H   SFRSYM    DATA     BYTE      CCL1
      000000B5H   SFRSYM    DATA     BYTE      P1EXTIF
      000000AEH   SFRSYM    DATA     BYTE      P2EXTIE
      000000C4H   SFRSYM    DATA     BYTE      CCL2
      000000B6H   SFRSYM    DATA     BYTE      P2EXTIF
      000000AFH   SFRSYM    DATA     BYTE      P3EXTIE
LX51 LINKER/LOCATER V4.66.97.0                                                        05/18/2025  17:01:21  PAGE 61


      000000A8H.7 SFRSYM    DATA     BIT       EA
      000000C6H   SFRSYM    DATA     BYTE      CCL3
      000000B7H   SFRSYM    DATA     BYTE      P3EXTIF
      000000AAH   SFRSYM    DATA     BYTE      EIE2
      000000B2H   SFRSYM    DATA     BYTE      EIF2
      000000C8H.3 SFRSYM    DATA     BIT       T2R0
      000000C8H.4 SFRSYM    DATA     BIT       T2R1
      00000083H   SFRSYM    DATA     BYTE      DPH0
      000000A8H   SFRSYM    DATA     BYTE      IE
      00000085H   SFRSYM    DATA     BYTE      DPH1
      000000B9H   SFRSYM    DATA     BYTE      EIP1
      000000BAH   SFRSYM    DATA     BYTE      EIP2
      00000082H   SFRSYM    DATA     BYTE      DPL0
      00000084H   SFRSYM    DATA     BYTE      DPL1
      000000C8H.6 SFRSYM    DATA     BIT       I3FR
      000000CFH   SFRSYM    DATA     BYTE      T2IE
      00000096H   SFRSYM    DATA     BYTE      TA
      000000C9H   SFRSYM    DATA     BYTE      T2IF
      000000C8H.2 SFRSYM    DATA     BIT       T2CM
      000000DFH   SFRSYM    DATA     BYTE      ADCON0
      000000DEH   SFRSYM    DATA     BYTE      ADCON1
      000000E9H   SFRSYM    DATA     BYTE      ADCON2
      000000B8H   SFRSYM    DATA     BYTE      IP
      000000CEH   SFRSYM    DATA     BYTE      CCEN
      000000D0H.7 SFRSYM    DATA     BIT       CY
      000000D2H   SFRSYM    DATA     BYTE      T34MOD
      00000093H   SFRSYM    DATA     BYTE      DPX0
      00000095H   SFRSYM    DATA     BYTE      DPX1
      000000F4H   SFRSYM    DATA     BYTE      I2CMSA
      000000F5H   SFRSYM    DATA     BYTE      I2CMCR
      00000081H   SFRSYM    DATA     BYTE      SP
      000000D0H.2 SFRSYM    DATA     BIT       OV
      000000F2H   SFRSYM    DATA     BYTE      I2CSCR
      000000C8H.7 SFRSYM    DATA     BIT       T2PS
      000000D1H   SFRSYM    DATA     BYTE      ADCMPC
      000000CBH   SFRSYM    DATA     BYTE      RLDH
      000000D5H   SFRSYM    DATA     BYTE      ADCMPH
      000000CAH   SFRSYM    DATA     BYTE      RLDL
      00000080H.0 SFRSYM    DATA     BIT       P00
      00000090H.0 SFRSYM    DATA     BIT       P10
      00000080H.1 SFRSYM    DATA     BIT       P01
      000000F7H   SFRSYM    DATA     BYTE      I2CMTP
      00000099H   SFRSYM    DATA     BYTE      SBUF
      00000087H   SFRSYM    DATA     BYTE      PCON
      000000A0H.0 SFRSYM    DATA     BIT       P20
      00000090H.1 SFRSYM    DATA     BIT       P11
      00000080H.2 SFRSYM    DATA     BIT       P02
      000000F5H   SFRSYM    DATA     BYTE      I2CMSR
      000000B0H.0 SFRSYM    DATA     BIT       P30
      000000A0H.1 SFRSYM    DATA     BIT       P21
      00000090H.2 SFRSYM    DATA     BIT       P12
      00000080H.3 SFRSYM    DATA     BIT       P03
      000000D4H   SFRSYM    DATA     BYTE      ADCMPL
      000000B0H.1 SFRSYM    DATA     BIT       P31
      000000A0H.2 SFRSYM    DATA     BIT       P22
      00000090H.3 SFRSYM    DATA     BIT       P13
      00000080H.4 SFRSYM    DATA     BIT       P04
      000000B0H.2 SFRSYM    DATA     BIT       P32
      000000A0H.3 SFRSYM    DATA     BIT       P23
      00000090H.4 SFRSYM    DATA     BIT       P14
      00000080H.5 SFRSYM    DATA     BIT       P05
      00000089H   SFRSYM    DATA     BYTE      TMOD
      00000088H   SFRSYM    DATA     BYTE      TCON
      000000B0H.3 SFRSYM    DATA     BIT       P33
      000000A0H.4 SFRSYM    DATA     BIT       P24
LX51 LINKER/LOCATER V4.66.97.0                                                        05/18/2025  17:01:21  PAGE 62


      00000090H.5 SFRSYM    DATA     BIT       P15
      00000080H.6 SFRSYM    DATA     BIT       P06
      000000B0H.4 SFRSYM    DATA     BIT       P34
      000000A0H.5 SFRSYM    DATA     BIT       P25
      00000090H.6 SFRSYM    DATA     BIT       P16
      00000080H.7 SFRSYM    DATA     BIT       P07
      000000B0H.5 SFRSYM    DATA     BIT       P35
      000000A0H.6 SFRSYM    DATA     BIT       P26
      00000090H.7 SFRSYM    DATA     BIT       P17
      000000F2H   SFRSYM    DATA     BYTE      I2CSSR
      000000B0H.6 SFRSYM    DATA     BIT       P36
      000000A0H.7 SFRSYM    DATA     BIT       P27
      000000ECH   SFRSYM    DATA     BYTE      SPCR
      000000DDH   SFRSYM    DATA     BYTE      ADRESH
      000000B0H.7 SFRSYM    DATA     BIT       P37
      000000EEH   SFRSYM    DATA     BYTE      SPDR
      000000EFH   SFRSYM    DATA     BYTE      SSCR
      000000D3H   SFRSYM    DATA     BYTE      ADDLYL
      000000DCH   SFRSYM    DATA     BYTE      ADRESL
      00000088H.1 SFRSYM    DATA     BIT       IE0
      00000088H.3 SFRSYM    DATA     BIT       IE1
      0000008FH   SFRSYM    DATA     BYTE      CLKDIV
      000000F0H   SFRSYM    DATA     BYTE      B
      00000091H   SFRSYM    DATA     BYTE      FUNCCR
      0000009AH   SFRSYM    DATA     BYTE      P0TRIS
      000000A1H   SFRSYM    DATA     BYTE      P1TRIS
      000000A0H.5 SFRSYM    DATA     BIT       LEDMOS
      000000A2H   SFRSYM    DATA     BYTE      P2TRIS
      000000E0H   SFRSYM    DATA     BYTE      ACC
      000000A3H   SFRSYM    DATA     BYTE      P3TRIS
      000000A8H.4 SFRSYM    DATA     BIT       ES0
      000000A8H.6 SFRSYM    DATA     BIT       ES1
      000000A8H.1 SFRSYM    DATA     BIT       ET0
      000000EDH   SFRSYM    DATA     BYTE      SPSR
      000000A8H.3 SFRSYM    DATA     BIT       ET1
      00000088H.5 SFRSYM    DATA     BIT       TF0
      000000A8H.5 SFRSYM    DATA     BIT       ET2
      00000098H.0 SFRSYM    DATA     BIT       RI0
      00000088H.7 SFRSYM    DATA     BIT       TF1
      0000008CH   SFRSYM    DATA     BYTE      TH0
      000000A8H.0 SFRSYM    DATA     BIT       EX0
      00000098H.1 SFRSYM    DATA     BIT       TI0
      00000088H.0 SFRSYM    DATA     BIT       IT0
      0000008DH   SFRSYM    DATA     BYTE      TH1
      000000A8H.2 SFRSYM    DATA     BIT       EX1
      00000088H.2 SFRSYM    DATA     BIT       IT1
      000000CDH   SFRSYM    DATA     BYTE      TH2
      000000D0H.0 SFRSYM    DATA     BIT       P
      000000DBH   SFRSYM    DATA     BYTE      TH3
      000000E3H   SFRSYM    DATA     BYTE      TH4
      0000008AH   SFRSYM    DATA     BYTE      TL0
      0000008BH   SFRSYM    DATA     BYTE      TL1
      000000A0H.3 SFRSYM    DATA     BIT       PWMDACEN
      00000098H.2 SFRSYM    DATA     BIT       U0RB8
      000000CCH   SFRSYM    DATA     BYTE      TL2
      000000B8H.4 SFRSYM    DATA     BIT       PS0
      000000DAH   SFRSYM    DATA     BYTE      TL3
      000000BFH   SFRSYM    DATA     BYTE      BUZCON
      000000B8H.6 SFRSYM    DATA     BIT       PS1
      000000B8H.1 SFRSYM    DATA     BIT       PT0
      00000098H.3 SFRSYM    DATA     BIT       U0TB8
      000000E2H   SFRSYM    DATA     BYTE      TL4
      000000D0H.3 SFRSYM    DATA     BIT       RS0
      000000B8H.3 SFRSYM    DATA     BIT       PT1
      000000D0H.4 SFRSYM    DATA     BIT       RS1
LX51 LINKER/LOCATER V4.66.97.0                                                        05/18/2025  17:01:21  PAGE 63


      000000B8H.5 SFRSYM    DATA     BIT       PT2
      00000098H.7 SFRSYM    DATA     BIT       U0SM0
      00000088H.4 SFRSYM    DATA     BIT       TR0
      000000BEH   SFRSYM    DATA     BYTE      BUZDIV
      00000098H.6 SFRSYM    DATA     BIT       U0SM1
      00000088H.6 SFRSYM    DATA     BIT       TR1
      000000B8H.0 SFRSYM    DATA     BIT       PX0
      00000098H.5 SFRSYM    DATA     BIT       U0SM2
      000000B8H.2 SFRSYM    DATA     BIT       PX1
      000000BDH   SFRSYM    DATA     BYTE      WUTCRH
      00000080H.4 SFRSYM    DATA     BIT       SYSHBLED
      00000099H   SFRSYM    DATA     BYTE      SBUF0
      000000EBH   SFRSYM    DATA     BYTE      SBUF1
      000000BCH   SFRSYM    DATA     BYTE      WUTCRL
      00000098H   SFRSYM    DATA     BYTE      SCON0
      000000EAH   SFRSYM    DATA     BYTE      SCON1
      000000C8H   SFRSYM    DATA     BYTE      T2CON
      00000086H   SFRSYM    DATA     BYTE      DPS
      000000FEH   SFRSYM    DATA     BYTE      MDATA
      000000F6H   SFRSYM    DATA     BYTE      I2CMBUF
      000000F1H   SFRSYM    DATA     BYTE      I2CSADR
      00000098H.4 SFRSYM    DATA     BIT       U0REN
      000000C8H.5 SFRSYM    DATA     BIT       CAPES
      000000FDH   SFRSYM    DATA     BYTE      MADRH
      0000008EH   SFRSYM    DATA     BYTE      CKCON
      000000F3H   SFRSYM    DATA     BYTE      I2CSBUF
      000000FCH   SFRSYM    DATA     BYTE      MADRL
      000000D0H.5 SFRSYM    DATA     BIT       F0
      000000FBH   SFRSYM    DATA     BYTE      MLOCK
      000000D0H   SFRSYM    DATA     BYTE      PSW
      00000097H   SFRSYM    DATA     BYTE      WDCON
      0200002AH   SYMBOL    XDATA    BYTE      OutputFSMState
      0200002DH   SYMBOL    XDATA    CHAR      HBTimer
      0200002EH   SYMBOL    XDATA    CHAR      PreChargeFSMTimer
      00000022H.7 SYMBOL    BIT      BIT       IsEnableSlowILEDRamp
      010030F3H   SYMBOL    CODE     ---       _Duty_Calc

      01002E5BH   BLOCK     CODE     ---       LVL=0
      ---         BLOCKEND  ---      ---       LVL=0

      010030F3H   BLOCK     CODE     ---       LVL=0
      00000006H   SYMBOL    DATA     INT       CurrentInput
      010030F3H   BLOCK     CODE     NEAR LAB  LVL=1
      00000028H   SYMBOL    DATA     FLOAT     buf
      ---         BLOCKEND  ---      ---       LVL=1
      010030F3H   LINE      CODE     ---       #35
      010030F3H   LINE      CODE     ---       #36
      010030F3H   LINE      CODE     ---       #39
      010030FEH   LINE      CODE     ---       #40
      01003109H   LINE      CODE     ---       #41
      0100310EH   LINE      CODE     ---       #42
      0100313EH   LINE      CODE     ---       #43
      01003143H   LINE      CODE     ---       #45
      01003143H   LINE      CODE     ---       #46
      ---         BLOCKEND  ---      ---       LVL=0

      0100339DH   BLOCK     CODE     ---       LVL=0
      0100339DH   BLOCK     CODE     NEAR LAB  LVL=1
      00000024H   SYMBOL    DATA     ---       OCInitCfg
      ---         BLOCKEND  ---      ---       LVL=1
      0100339DH   LINE      CODE     ---       #53
      0100339DH   LINE      CODE     ---       #54
      0100339DH   LINE      CODE     ---       #57
      010033A0H   LINE      CODE     ---       #58
      010033A3H   LINE      CODE     ---       #59
LX51 LINKER/LOCATER V4.66.97.0                                                        05/18/2025  17:01:21  PAGE 64


      010033A6H   LINE      CODE     ---       #61
      010033A9H   LINE      CODE     ---       #63
      010033ABH   LINE      CODE     ---       #64
      010033B5H   LINE      CODE     ---       #65
      010033C2H   LINE      CODE     ---       #66
      010033C4H   LINE      CODE     ---       #67
      010033CEH   LINE      CODE     ---       #68
      ---         BLOCKEND  ---      ---       LVL=0

      010032CCH   BLOCK     CODE     ---       LVL=0
      010032CCH   LINE      CODE     ---       #71
      010032CCH   LINE      CODE     ---       #72
      010032CCH   LINE      CODE     ---       #74
      010032D3H   LINE      CODE     ---       #75
      010032DCH   LINE      CODE     ---       #76
      010032E5H   LINE      CODE     ---       #78
      010032E5H   LINE      CODE     ---       #79
      010032FEH   LINE      CODE     ---       #81
      010032FEH   LINE      CODE     ---       #82
      01003305H   LINE      CODE     ---       #83
      0100330AH   LINE      CODE     ---       #84
      0100330AH   LINE      CODE     ---       #85
      0100330AH   LINE      CODE     ---       #87
      01003312H   LINE      CODE     ---       #88
      ---         BLOCKEND  ---      ---       LVL=0

      01003A45H   BLOCK     CODE     ---       LVL=0
      01003A45H   LINE      CODE     ---       #91
      01003A45H   LINE      CODE     ---       #92
      01003A45H   LINE      CODE     ---       #93
      01003A47H   LINE      CODE     ---       #94
      01003A49H   LINE      CODE     ---       #95
      01003A4BH   LINE      CODE     ---       #96
      01003A4DH   LINE      CODE     ---       #97
      01003A4FH   LINE      CODE     ---       #99
      01003A56H   LINE      CODE     ---       #100
      01003A5CH   LINE      CODE     ---       #101
      01003A5EH   LINE      CODE     ---       #102
      01003A60H   LINE      CODE     ---       #104
      01003A62H   LINE      CODE     ---       #105
      01003A66H   LINE      CODE     ---       #106
      ---         BLOCKEND  ---      ---       LVL=0

      01003C3BH   BLOCK     CODE     ---       LVL=0
      01003C3BH   LINE      CODE     ---       #109
      01003C3BH   LINE      CODE     ---       #110
      01003C3BH   LINE      CODE     ---       #111
      01003C48H   LINE      CODE     ---       #112
      01003C50H   LINE      CODE     ---       #114
      01003C50H   LINE      CODE     ---       #115
      ---         BLOCKEND  ---      ---       LVL=0

      01003C51H   BLOCK     CODE     ---       LVL=0
      01003C51H   LINE      CODE     ---       #118
      01003C51H   LINE      CODE     ---       #119
      01003C51H   LINE      CODE     ---       #121
      01003C5EH   LINE      CODE     ---       #122
      01003C66H   LINE      CODE     ---       #124
      01003C66H   LINE      CODE     ---       #125
      ---         BLOCKEND  ---      ---       LVL=0

      01002885H   BLOCK     CODE     ---       LVL=0
      01002885H   BLOCK     CODE     NEAR LAB  LVL=1
      00000024H   SYMBOL    DATA     CHAR      retry
      00000020H.1 SYMBOL    BIT      BIT       IsDCDCOV
LX51 LINKER/LOCATER V4.66.97.0                                                        05/18/2025  17:01:21  PAGE 65


      ---         BLOCKEND  ---      ---       LVL=1
      01002885H   LINE      CODE     ---       #128
      01002885H   LINE      CODE     ---       #129
      01002885H   LINE      CODE     ---       #130
      01002888H   LINE      CODE     ---       #131
      0100288AH   LINE      CODE     ---       #133
      0100288CH   LINE      CODE     ---       #134
      0100288EH   LINE      CODE     ---       #135
      01002893H   LINE      CODE     ---       #137
      0100289AH   LINE      CODE     ---       #138
      0100289DH   LINE      CODE     ---       #139
      010028B6H   LINE      CODE     ---       #141
      010028B6H   LINE      CODE     ---       #142
      010028BBH   LINE      CODE     ---       #143
      010028BEH   LINE      CODE     ---       #145
      010028BEH   LINE      CODE     ---       #148
      010028BEH   LINE      CODE     ---       #149
      010028C1H   LINE      CODE     ---       #150
      010028CEH   LINE      CODE     ---       #151
      010028D5H   LINE      CODE     ---       #152
      010028D5H   LINE      CODE     ---       #154
      010028D7H   LINE      CODE     ---       #155
      010028DEH   LINE      CODE     ---       #157
      010028E0H   LINE      CODE     ---       #158
      010028E5H   LINE      CODE     ---       #160
      010028E8H   LINE      CODE     ---       #162
      010028E8H   LINE      CODE     ---       #164
      010028EFH   LINE      CODE     ---       #165
      010028F1H   LINE      CODE     ---       #166
      010028F1H   LINE      CODE     ---       #167
      010028F9H   LINE      CODE     ---       #169
      01002903H   LINE      CODE     ---       #170
      ---         BLOCKEND  ---      ---       LVL=0

      01000740H   BLOCK     CODE     ---       LVL=0
      01000740H   BLOCK     CODE     NEAR LAB  LVL=1
      00000024H   SYMBOL    DATA     INT       TargetCurrent
      00000026H   SYMBOL    DATA     INT       ILIM
      ---         BLOCKEND  ---      ---       LVL=1
      01000740H   LINE      CODE     ---       #173
      01000740H   LINE      CODE     ---       #174
      01000740H   LINE      CODE     ---       #178
      0100074AH   LINE      CODE     ---       #179
      0100075BH   LINE      CODE     ---       #180
      0100075BH   LINE      CODE     ---       #182
      01000762H   LINE      CODE     ---       #183
      01000779H   LINE      CODE     ---       #184
      01000779H   LINE      CODE     ---       #186
      010007B0H   LINE      CODE     ---       #187
      010007B0H   LINE      CODE     ---       #189
      010007B0H   LINE      CODE     ---       #190
      010007B3H   LINE      CODE     ---       #191
      010007B3H   LINE      CODE     ---       #193
      010007B3H   LINE      CODE     ---       #195
      010007B5H   LINE      CODE     ---       #196
      010007B7H   LINE      CODE     ---       #197
      010007B9H   LINE      CODE     ---       #198
      010007BBH   LINE      CODE     ---       #200
      010007BDH   LINE      CODE     ---       #202
      010007E0H   LINE      CODE     ---       #203
      010007E0H   LINE      CODE     ---       #204
      010007E3H   LINE      CODE     ---       #205
      010007EDH   LINE      CODE     ---       #206
      010007EFH   LINE      CODE     ---       #207
      010007EFH   LINE      CODE     ---       #209
LX51 LINKER/LOCATER V4.66.97.0                                                        05/18/2025  17:01:21  PAGE 66


      010007FDH   LINE      CODE     ---       #210
      010007FEH   LINE      CODE     ---       #212
      010007FEH   LINE      CODE     ---       #214
      01000800H   LINE      CODE     ---       #216
      0100081FH   LINE      CODE     ---       #217
      01000822H   LINE      CODE     ---       #219
      01000822H   LINE      CODE     ---       #221
      01000825H   LINE      CODE     ---       #222
      0100082BH   LINE      CODE     ---       #223
      0100082CH   LINE      CODE     ---       #225
      0100082CH   LINE      CODE     ---       #227
      01000832H   LINE      CODE     ---       #228
      01000839H   LINE      CODE     ---       #230
      0100083BH   LINE      CODE     ---       #231
      01000841H   LINE      CODE     ---       #232
      01000847H   LINE      CODE     ---       #233
      01000848H   LINE      CODE     ---       #235
      01000848H   LINE      CODE     ---       #237
      0100084AH   LINE      CODE     ---       #238
      01000857H   LINE      CODE     ---       #240
      0100085FH   LINE      CODE     ---       #241
      01000864H   LINE      CODE     ---       #242
      01000864H   LINE      CODE     ---       #243
      01000867H   LINE      CODE     ---       #245
      01000867H   LINE      CODE     ---       #247
      01000869H   LINE      CODE     ---       #249
      01000872H   LINE      CODE     ---       #251
      0100087DH   LINE      CODE     ---       #252
      0100087DH   LINE      CODE     ---       #254
      01000894H   LINE      CODE     ---       #255
      01000895H   LINE      CODE     ---       #256
      01000895H   LINE      CODE     ---       #258
      0100089BH   LINE      CODE     ---       #259
      010008AAH   LINE      CODE     ---       #260
      010008BDH   LINE      CODE     ---       #261
      010008D4H   LINE      CODE     ---       #262
      010008DFH   LINE      CODE     ---       #263
      010008E1H   LINE      CODE     ---       #264
      010008E2H   LINE      CODE     ---       #266
      010008E2H   LINE      CODE     ---       #267
      010008E8H   LINE      CODE     ---       #268
      010008F1H   LINE      CODE     ---       #270
      0100090FH   LINE      CODE     ---       #271
      0100091CH   LINE      CODE     ---       #272
      0100091CH   LINE      CODE     ---       #273
      0100092DH   LINE      CODE     ---       #274
      0100092DH   LINE      CODE     ---       #275
      01000946H   LINE      CODE     ---       #276
      01000956H   LINE      CODE     ---       #277
      01000966H   LINE      CODE     ---       #278
      01000976H   LINE      CODE     ---       #279
      01000984H   LINE      CODE     ---       #280
      01000984H   LINE      CODE     ---       #281
      01000999H   LINE      CODE     ---       #282
      01000999H   LINE      CODE     ---       #283
      0100099BH   LINE      CODE     ---       #284
      0100099BH   LINE      CODE     ---       #285
      0100099BH   LINE      CODE     ---       #286
      0100099DH   LINE      CODE     ---       #287
      010009A7H   LINE      CODE     ---       #289
      010009A9H   LINE      CODE     ---       #290
      010009B4H   LINE      CODE     ---       #292
      010009C5H   LINE      CODE     ---       #293
      010009C5H   LINE      CODE     ---       #294
      010009C7H   LINE      CODE     ---       #295
LX51 LINKER/LOCATER V4.66.97.0                                                        05/18/2025  17:01:21  PAGE 67


      010009CDH   LINE      CODE     ---       #296
      010009CDH   LINE      CODE     ---       #297
      010009CEH   LINE      CODE     ---       #299
      010009CEH   LINE      CODE     ---       #300
      010009D8H   LINE      CODE     ---       #301
      010009E9H   LINE      CODE     ---       #302
      010009FAH   LINE      CODE     ---       #303
      010009FDH   LINE      CODE     ---       #305
      010009FDH   LINE      CODE     ---       #307
      010009FFH   LINE      CODE     ---       #308
      01000A01H   LINE      CODE     ---       #310
      01000A03H   LINE      CODE     ---       #311
      01000A0DH   LINE      CODE     ---       #312
      01000A17H   LINE      CODE     ---       #313
      01000A19H   LINE      CODE     ---       #315
      01000A1FH   LINE      CODE     ---       #316
      01000A25H   LINE      CODE     ---       #317
      01000A26H   LINE      CODE     ---       #319
      01000A26H   LINE      CODE     ---       #321
      01000A39H   LINE      CODE     ---       #323
      01000A3CH   LINE      CODE     ---       #324
      01000A3EH   LINE      CODE     ---       #326
      01000A40H   LINE      CODE     ---       #327
      01000A42H   LINE      CODE     ---       #328
      01000A46H   LINE      CODE     ---       #329
      01000A4AH   LINE      CODE     ---       #330
      01000A4BH   LINE      CODE     ---       #332
      01000A4BH   LINE      CODE     ---       #334
      01000A4BH   LINE      CODE     ---       #335
      01000A4EH   LINE      CODE     ---       #337
      01000A62H   LINE      CODE     ---       #338
      01000A64H   LINE      CODE     ---       #339
      01000A6AH   LINE      CODE     ---       #340
      01000A6BH   LINE      CODE     ---       #342
      01000A6BH   LINE      CODE     ---       #343
      01000A74H   LINE      CODE     ---       #344
      01000A79H   LINE      CODE     ---       #345
      01000A79H   LINE      CODE     ---       #346
      01000A7BH   LINE      CODE     ---       #347
      01000A7EH   LINE      CODE     ---       #348
      01000A80H   LINE      CODE     ---       #349
      01000A86H   LINE      CODE     ---       #350
      01000A86H   LINE      CODE     ---       #351
      01000A87H   LINE      CODE     ---       #353
      01000A8DH   LINE      CODE     ---       #354
      01000A8DH   LINE      CODE     ---       #355
      ---         BLOCKEND  ---      ---       LVL=0

      ---         MODULE    ---      ---       FLASH
      0100373FH   PUBLIC    CODE     ---       _Flash_Operation
      00000020H.3 PUBLIC    BIT      BIT       ?SetFlashState?BIT
      01003D3EH   PUBLIC    CODE     ---       SetFlashState
      000000C8H.0 SFRSYM    DATA     BIT       T2I0
      000000C3H   SFRSYM    DATA     BYTE      CCH1
      00000080H   SFRSYM    DATA     BYTE      P0
      000000C8H.1 SFRSYM    DATA     BIT       T2I1
      000000C5H   SFRSYM    DATA     BYTE      CCH2
      00000090H   SFRSYM    DATA     BYTE      P1
      000000C7H   SFRSYM    DATA     BYTE      CCH3
      000000ACH   SFRSYM    DATA     BYTE      P0EXTIE
      000000A0H   SFRSYM    DATA     BYTE      P2
      000000B4H   SFRSYM    DATA     BYTE      P0EXTIF
      000000B0H   SFRSYM    DATA     BYTE      P3
      000000ADH   SFRSYM    DATA     BYTE      P1EXTIE
      000000D0H.6 SFRSYM    DATA     BIT       AC
LX51 LINKER/LOCATER V4.66.97.0                                                        05/18/2025  17:01:21  PAGE 68


      000000FFH   SFRSYM    DATA     BYTE      MCTRL
      000000C2H   SFRSYM    DATA     BYTE      CCL1
      000000B5H   SFRSYM    DATA     BYTE      P1EXTIF
      000000AEH   SFRSYM    DATA     BYTE      P2EXTIE
      000000C4H   SFRSYM    DATA     BYTE      CCL2
      000000B6H   SFRSYM    DATA     BYTE      P2EXTIF
      000000AFH   SFRSYM    DATA     BYTE      P3EXTIE
      000000A8H.7 SFRSYM    DATA     BIT       EA
      000000C6H   SFRSYM    DATA     BYTE      CCL3
      000000B7H   SFRSYM    DATA     BYTE      P3EXTIF
      000000AAH   SFRSYM    DATA     BYTE      EIE2
      000000B2H   SFRSYM    DATA     BYTE      EIF2
      000000C8H.3 SFRSYM    DATA     BIT       T2R0
      000000C8H.4 SFRSYM    DATA     BIT       T2R1
      00000083H   SFRSYM    DATA     BYTE      DPH0
      000000A8H   SFRSYM    DATA     BYTE      IE
      00000085H   SFRSYM    DATA     BYTE      DPH1
      000000B9H   SFRSYM    DATA     BYTE      EIP1
      000000BAH   SFRSYM    DATA     BYTE      EIP2
      00000082H   SFRSYM    DATA     BYTE      DPL0
      00000084H   SFRSYM    DATA     BYTE      DPL1
      000000C8H.6 SFRSYM    DATA     BIT       I3FR
      000000CFH   SFRSYM    DATA     BYTE      T2IE
      00000096H   SFRSYM    DATA     BYTE      TA
      000000C9H   SFRSYM    DATA     BYTE      T2IF
      000000C8H.2 SFRSYM    DATA     BIT       T2CM
      000000DFH   SFRSYM    DATA     BYTE      ADCON0
      000000DEH   SFRSYM    DATA     BYTE      ADCON1
      000000E9H   SFRSYM    DATA     BYTE      ADCON2
      000000B8H   SFRSYM    DATA     BYTE      IP
      000000CEH   SFRSYM    DATA     BYTE      CCEN
      000000D0H.7 SFRSYM    DATA     BIT       CY
      000000D2H   SFRSYM    DATA     BYTE      T34MOD
      00000093H   SFRSYM    DATA     BYTE      DPX0
      00000095H   SFRSYM    DATA     BYTE      DPX1
      000000F4H   SFRSYM    DATA     BYTE      I2CMSA
      000000F5H   SFRSYM    DATA     BYTE      I2CMCR
      00000081H   SFRSYM    DATA     BYTE      SP
      000000D0H.2 SFRSYM    DATA     BIT       OV
      000000F2H   SFRSYM    DATA     BYTE      I2CSCR
      000000C8H.7 SFRSYM    DATA     BIT       T2PS
      000000D1H   SFRSYM    DATA     BYTE      ADCMPC
      000000CBH   SFRSYM    DATA     BYTE      RLDH
      000000D5H   SFRSYM    DATA     BYTE      ADCMPH
      000000CAH   SFRSYM    DATA     BYTE      RLDL
      00000080H.0 SFRSYM    DATA     BIT       P00
      00000090H.0 SFRSYM    DATA     BIT       P10
      00000080H.1 SFRSYM    DATA     BIT       P01
      000000F7H   SFRSYM    DATA     BYTE      I2CMTP
      00000099H   SFRSYM    DATA     BYTE      SBUF
      00000087H   SFRSYM    DATA     BYTE      PCON
      000000A0H.0 SFRSYM    DATA     BIT       P20
      00000090H.1 SFRSYM    DATA     BIT       P11
      00000080H.2 SFRSYM    DATA     BIT       P02
      000000F5H   SFRSYM    DATA     BYTE      I2CMSR
      000000B0H.0 SFRSYM    DATA     BIT       P30
      000000A0H.1 SFRSYM    DATA     BIT       P21
      00000090H.2 SFRSYM    DATA     BIT       P12
      00000080H.3 SFRSYM    DATA     BIT       P03
      000000D4H   SFRSYM    DATA     BYTE      ADCMPL
      000000B0H.1 SFRSYM    DATA     BIT       P31
      000000A0H.2 SFRSYM    DATA     BIT       P22
      00000090H.3 SFRSYM    DATA     BIT       P13
      00000080H.4 SFRSYM    DATA     BIT       P04
      000000B0H.2 SFRSYM    DATA     BIT       P32
LX51 LINKER/LOCATER V4.66.97.0                                                        05/18/2025  17:01:21  PAGE 69


      000000A0H.3 SFRSYM    DATA     BIT       P23
      00000090H.4 SFRSYM    DATA     BIT       P14
      00000080H.5 SFRSYM    DATA     BIT       P05
      00000089H   SFRSYM    DATA     BYTE      TMOD
      00000088H   SFRSYM    DATA     BYTE      TCON
      000000B0H.3 SFRSYM    DATA     BIT       P33
      000000A0H.4 SFRSYM    DATA     BIT       P24
      00000090H.5 SFRSYM    DATA     BIT       P15
      00000080H.6 SFRSYM    DATA     BIT       P06
      000000B0H.4 SFRSYM    DATA     BIT       P34
      000000A0H.5 SFRSYM    DATA     BIT       P25
      00000090H.6 SFRSYM    DATA     BIT       P16
      00000080H.7 SFRSYM    DATA     BIT       P07
      000000B0H.5 SFRSYM    DATA     BIT       P35
      000000A0H.6 SFRSYM    DATA     BIT       P26
      00000090H.7 SFRSYM    DATA     BIT       P17
      000000F2H   SFRSYM    DATA     BYTE      I2CSSR
      000000B0H.6 SFRSYM    DATA     BIT       P36
      000000A0H.7 SFRSYM    DATA     BIT       P27
      000000ECH   SFRSYM    DATA     BYTE      SPCR
      000000DDH   SFRSYM    DATA     BYTE      ADRESH
      000000B0H.7 SFRSYM    DATA     BIT       P37
      000000EEH   SFRSYM    DATA     BYTE      SPDR
      000000EFH   SFRSYM    DATA     BYTE      SSCR
      000000D3H   SFRSYM    DATA     BYTE      ADDLYL
      000000DCH   SFRSYM    DATA     BYTE      ADRESL
      00000088H.1 SFRSYM    DATA     BIT       IE0
      00000088H.3 SFRSYM    DATA     BIT       IE1
      0000008FH   SFRSYM    DATA     BYTE      CLKDIV
      000000F0H   SFRSYM    DATA     BYTE      B
      00000091H   SFRSYM    DATA     BYTE      FUNCCR
      0000009AH   SFRSYM    DATA     BYTE      P0TRIS
      000000A1H   SFRSYM    DATA     BYTE      P1TRIS
      000000A2H   SFRSYM    DATA     BYTE      P2TRIS
      000000E0H   SFRSYM    DATA     BYTE      ACC
      000000A3H   SFRSYM    DATA     BYTE      P3TRIS
      000000A8H.4 SFRSYM    DATA     BIT       ES0
      000000A8H.6 SFRSYM    DATA     BIT       ES1
      000000A8H.1 SFRSYM    DATA     BIT       ET0
      000000EDH   SFRSYM    DATA     BYTE      SPSR
      000000A8H.3 SFRSYM    DATA     BIT       ET1
      00000088H.5 SFRSYM    DATA     BIT       TF0
      000000A8H.5 SFRSYM    DATA     BIT       ET2
      00000098H.0 SFRSYM    DATA     BIT       RI0
      00000088H.7 SFRSYM    DATA     BIT       TF1
      0000008CH   SFRSYM    DATA     BYTE      TH0
      000000A8H.0 SFRSYM    DATA     BIT       EX0
      00000098H.1 SFRSYM    DATA     BIT       TI0
      00000088H.0 SFRSYM    DATA     BIT       IT0
      0000008DH   SFRSYM    DATA     BYTE      TH1
      000000A8H.2 SFRSYM    DATA     BIT       EX1
      00000088H.2 SFRSYM    DATA     BIT       IT1
      000000CDH   SFRSYM    DATA     BYTE      TH2
      000000D0H.0 SFRSYM    DATA     BIT       P
      000000DBH   SFRSYM    DATA     BYTE      TH3
      000000E3H   SFRSYM    DATA     BYTE      TH4
      0000008AH   SFRSYM    DATA     BYTE      TL0
      0000008BH   SFRSYM    DATA     BYTE      TL1
      00000098H.2 SFRSYM    DATA     BIT       U0RB8
      000000CCH   SFRSYM    DATA     BYTE      TL2
      000000B8H.4 SFRSYM    DATA     BIT       PS0
      000000DAH   SFRSYM    DATA     BYTE      TL3
      000000BFH   SFRSYM    DATA     BYTE      BUZCON
      000000B8H.6 SFRSYM    DATA     BIT       PS1
      000000B8H.1 SFRSYM    DATA     BIT       PT0
LX51 LINKER/LOCATER V4.66.97.0                                                        05/18/2025  17:01:21  PAGE 70


      00000098H.3 SFRSYM    DATA     BIT       U0TB8
      000000E2H   SFRSYM    DATA     BYTE      TL4
      000000D0H.3 SFRSYM    DATA     BIT       RS0
      000000B8H.3 SFRSYM    DATA     BIT       PT1
      000000D0H.4 SFRSYM    DATA     BIT       RS1
      000000B8H.5 SFRSYM    DATA     BIT       PT2
      00000098H.7 SFRSYM    DATA     BIT       U0SM0
      00000088H.4 SFRSYM    DATA     BIT       TR0
      000000BEH   SFRSYM    DATA     BYTE      BUZDIV
      00000098H.6 SFRSYM    DATA     BIT       U0SM1
      00000088H.6 SFRSYM    DATA     BIT       TR1
      000000B8H.0 SFRSYM    DATA     BIT       PX0
      00000098H.5 SFRSYM    DATA     BIT       U0SM2
      000000B8H.2 SFRSYM    DATA     BIT       PX1
      000000BDH   SFRSYM    DATA     BYTE      WUTCRH
      00000099H   SFRSYM    DATA     BYTE      SBUF0
      000000EBH   SFRSYM    DATA     BYTE      SBUF1
      000000BCH   SFRSYM    DATA     BYTE      WUTCRL
      00000098H   SFRSYM    DATA     BYTE      SCON0
      000000EAH   SFRSYM    DATA     BYTE      SCON1
      000000C8H   SFRSYM    DATA     BYTE      T2CON
      00000086H   SFRSYM    DATA     BYTE      DPS
      000000FEH   SFRSYM    DATA     BYTE      MDATA
      000000F6H   SFRSYM    DATA     BYTE      I2CMBUF
      000000F1H   SFRSYM    DATA     BYTE      I2CSADR
      00000098H.4 SFRSYM    DATA     BIT       U0REN
      000000C8H.5 SFRSYM    DATA     BIT       CAPES
      000000FDH   SFRSYM    DATA     BYTE      MADRH
      0000008EH   SFRSYM    DATA     BYTE      CKCON
      000000F3H   SFRSYM    DATA     BYTE      I2CSBUF
      000000FCH   SFRSYM    DATA     BYTE      MADRL
      000000D0H.5 SFRSYM    DATA     BIT       F0
      000000FBH   SFRSYM    DATA     BYTE      MLOCK
      000000D0H   SFRSYM    DATA     BYTE      PSW
      00000097H   SFRSYM    DATA     BYTE      WDCON

      01003D3EH   BLOCK     CODE     ---       LVL=0
      00000020H.3 SYMBOL    BIT      BIT       IsUnlocked
      01003D3EH   LINE      CODE     ---       #5
      01003D3EH   LINE      CODE     ---       #6
      01003D3EH   LINE      CODE     ---       #8
      01003D41H   LINE      CODE     ---       #9
      01003D41H   LINE      CODE     ---       #10
      01003D43H   LINE      CODE     ---       #11
      01003D44H   LINE      CODE     ---       #12
      01003D47H   LINE      CODE     ---       #13
      01003D48H   LINE      CODE     ---       #16
      01003D48H   LINE      CODE     ---       #17
      01003D4BH   LINE      CODE     ---       #18
      01003D4CH   LINE      CODE     ---       #19
      01003D4EH   LINE      CODE     ---       #20
      01003D4EH   LINE      CODE     ---       #21
      ---         BLOCKEND  ---      ---       LVL=0

      0100373FH   BLOCK     CODE     ---       LVL=0
      00000031H   SYMBOL    DATA     BYTE      Operation
      00000004H   SYMBOL    DATA     INT       ADDR
      00000001H   SYMBOL    DATA     ---       Data
      0100373FH   LINE      CODE     ---       #24
      01003741H   LINE      CODE     ---       #25
      01003741H   LINE      CODE     ---       #26
      0100374BH   LINE      CODE     ---       #27
      0100374EH   LINE      CODE     ---       #28
      01003753H   LINE      CODE     ---       #29
      01003754H   LINE      CODE     ---       #30
LX51 LINKER/LOCATER V4.66.97.0                                                        05/18/2025  17:01:21  PAGE 71


      01003757H   LINE      CODE     ---       #31
      01003758H   LINE      CODE     ---       #32
      01003759H   LINE      CODE     ---       #33
      0100375AH   LINE      CODE     ---       #34
      0100375BH   LINE      CODE     ---       #35
      0100375CH   LINE      CODE     ---       #36
      0100375DH   LINE      CODE     ---       #37
      01003762H   LINE      CODE     ---       #38
      0100376DH   LINE      CODE     ---       #39
      ---         BLOCKEND  ---      ---       LVL=0

      ---         MODULE    ---      ---       BATTVOLTDISPLAY
      0200000CH   PUBLIC    XDATA    FLOAT     Battery
      00000023H.1 PUBLIC    BIT      BIT       IsBatteryFault
      00000023H.0 PUBLIC    BIT      BIT       IsBatteryAlert
      00000056H   PUBLIC    DATA     BYTE      BattState
      02000002H   PUBLIC    XDATA    BYTE      VshowFSMState
      01002535H   PUBLIC    CODE     ---       BatteryTelemHandler
      010015D2H   PUBLIC    CODE     ---       BattDisplayTIM
      010034E2H   PUBLIC    CODE     ---       DisplayVBattAtStart
      010038A0H   PUBLIC    CODE     ---       LowPowerStrobe
      01003BC1H   PUBLIC    CODE     ---       TriggerVshowDisplay
      02000000H   SYMBOL    XDATA    INT       VshowTIM
      0100379CH   SYMBOL    CODE     ---       _VshowFSMGenTIMValue
      01001372H   SYMBOL    CODE     ---       BatVshowFSM
      01003A67H   SYMBOL    CODE     ---       ResetBattAvg
      02000003H   SYMBOL    XDATA    ---       BattVolt
      00000057H   SYMBOL    DATA     CHAR      BattShowTimer
      01003B4EH   SYMBOL    CODE     ---       SetPowerLEDBasedOnVbatt
      00000058H   SYMBOL    DATA     CHAR      LowVoltStrobeTIM
      01003045H   SYMBOL    CODE     ---       _VshowGenerateSideStrobe
      01002199H   SYMBOL    CODE     ---       BatteryStateFSM
      02000010H   SYMBOL    XDATA    FLOAT     VbattSample

      01002CB2H   BLOCK     CODE     ---       LVL=0
      ---         BLOCKEND  ---      ---       LVL=0

      01003BC1H   BLOCK     CODE     ---       LVL=0
      01003BC1H   LINE      CODE     ---       #27
      01003BC1H   LINE      CODE     ---       #28
      01003BC1H   LINE      CODE     ---       #29
      01003BC7H   LINE      CODE     ---       #30
      01003BC9H   LINE      CODE     ---       #31
      01003BCEH   LINE      CODE     ---       #32
      01003BCEH   LINE      CODE     ---       #33
      01003BD1H   LINE      CODE     ---       #34
      01003BD9H   LINE      CODE     ---       #35
      01003BD9H   LINE      CODE     ---       #36
      ---         BLOCKEND  ---      ---       LVL=0

      010038A0H   BLOCK     CODE     ---       LVL=0
      010038A0H   LINE      CODE     ---       #39
      010038A0H   LINE      CODE     ---       #40
      010038A0H   LINE      CODE     ---       #42
      010038ABH   LINE      CODE     ---       #44
      010038B4H   LINE      CODE     ---       #45
      010038C8H   LINE      CODE     ---       #47
      010038C9H   LINE      CODE     ---       #48
      ---         BLOCKEND  ---      ---       LVL=0

      01003045H   BLOCK     CODE     ---       LVL=0
      00000026H   SYMBOL    DATA     BYTE      Color
      00000027H   SYMBOL    DATA     BYTE      NextStep
      01003045H   LINE      CODE     ---       #51
      01003049H   LINE      CODE     ---       #52
LX51 LINKER/LOCATER V4.66.97.0                                                        05/18/2025  17:01:21  PAGE 72


      01003049H   LINE      CODE     ---       #54
      01003055H   LINE      CODE     ---       #55
      01003055H   LINE      CODE     ---       #56
      01003058H   LINE      CODE     ---       #57
      0100305FH   LINE      CODE     ---       #58
      0100305FH   LINE      CODE     ---       #60
      01003082H   LINE      CODE     ---       #62
      0100308DH   LINE      CODE     ---       #63
      0100308DH   LINE      CODE     ---       #64
      01003090H   LINE      CODE     ---       #65
      01003098H   LINE      CODE     ---       #66
      0100309CH   LINE      CODE     ---       #67
      0100309CH   LINE      CODE     ---       #68
      ---         BLOCKEND  ---      ---       LVL=0

      0100379CH   BLOCK     CODE     ---       LVL=0
      00000006H   SYMBOL    DATA     INT       Vsample
      00000005H   SYMBOL    DATA     BYTE      NextStep
      0100379CH   LINE      CODE     ---       #70
      0100379CH   LINE      CODE     ---       #71
      0100379CH   LINE      CODE     ---       #72
      010037A1H   LINE      CODE     ---       #73
      010037ACH   LINE      CODE     ---       #74
      010037C3H   LINE      CODE     ---       #75
      010037C8H   LINE      CODE     ---       #76
      ---         BLOCKEND  ---      ---       LVL=0

      01003B4EH   BLOCK     CODE     ---       LVL=0
      01003B4EH   LINE      CODE     ---       #79
      01003B4EH   LINE      CODE     ---       #80
      01003B4EH   LINE      CODE     ---       #81
      01003B5DH   LINE      CODE     ---       #82
      01003B5DH   LINE      CODE     ---       #83
      01003B61H   LINE      CODE     ---       #84
      01003B65H   LINE      CODE     ---       #85
      01003B69H   LINE      CODE     ---       #86
      01003B6CH   LINE      CODE     ---       #87
      01003B6CH   LINE      CODE     ---       #88
      ---         BLOCKEND  ---      ---       LVL=0

      01001372H   BLOCK     CODE     ---       LVL=0
      01001372H   LINE      CODE     ---       #91
      01001372H   LINE      CODE     ---       #92
      01001372H   LINE      CODE     ---       #94
      010013A8H   LINE      CODE     ---       #95
      010013A8H   LINE      CODE     ---       #96
      010013A8H   LINE      CODE     ---       #97
      010013B5H   LINE      CODE     ---       #98
      010013BDH   LINE      CODE     ---       #99
      010013C1H   LINE      CODE     ---       #100
      010013C2H   LINE      CODE     ---       #102
      010013C2H   LINE      CODE     ---       #103
      010013D9H   LINE      CODE     ---       #104
      010013E9H   LINE      CODE     ---       #105
      010013F9H   LINE      CODE     ---       #106
      010013FCH   LINE      CODE     ---       #108
      0100140AH   LINE      CODE     ---       #109
      01001418H   LINE      CODE     ---       #110
      01001431H   LINE      CODE     ---       #111
      01001431H   LINE      CODE     ---       #112
      01001434H   LINE      CODE     ---       #113
      01001434H   LINE      CODE     ---       #114
      01001436H   LINE      CODE     ---       #115
      01001436H   LINE      CODE     ---       #116
      01001443H   LINE      CODE     ---       #117
LX51 LINKER/LOCATER V4.66.97.0                                                        05/18/2025  17:01:21  PAGE 73


      01001445H   LINE      CODE     ---       #119
      01001445H   LINE      CODE     ---       #120
      01001449H   LINE      CODE     ---       #121
      0100144BH   LINE      CODE     ---       #123
      0100144BH   LINE      CODE     ---       #124
      01001457H   LINE      CODE     ---       #125
      01001459H   LINE      CODE     ---       #127
      01001459H   LINE      CODE     ---       #128
      0100145DH   LINE      CODE     ---       #129
      0100145FH   LINE      CODE     ---       #131
      0100145FH   LINE      CODE     ---       #132
      01001477H   LINE      CODE     ---       #133
      01001477H   LINE      CODE     ---       #135
      01001477H   LINE      CODE     ---       #136
      0100147EH   LINE      CODE     ---       #137
      0100147EH   LINE      CODE     ---       #139
      0100147EH   LINE      CODE     ---       #140
      01001483H   LINE      CODE     ---       #141
      0100148EH   LINE      CODE     ---       #142
      01001494H   LINE      CODE     ---       #143
      01001495H   LINE      CODE     ---       #145
      01001495H   LINE      CODE     ---       #146
      0100149CH   LINE      CODE     ---       #147
      010014A6H   LINE      CODE     ---       #148
      010014A6H   LINE      CODE     ---       #149
      010014A6H   LINE      CODE     ---       #150
      ---         BLOCKEND  ---      ---       LVL=0

      01002199H   BLOCK     CODE     ---       LVL=0
      01002199H   BLOCK     CODE     NEAR LAB  LVL=1
      00000026H   SYMBOL    DATA     FLOAT     Thres
      ---         BLOCKEND  ---      ---       LVL=1
      01002199H   LINE      CODE     ---       #152
      01002199H   LINE      CODE     ---       #153
      01002199H   LINE      CODE     ---       #156
      010021ABH   LINE      CODE     ---       #157
      010021B6H   LINE      CODE     ---       #159
      010021C5H   LINE      CODE     ---       #160
      010021C5H   LINE      CODE     ---       #162
      010021C5H   LINE      CODE     ---       #163
      010021D8H   LINE      CODE     ---       #164
      010021D9H   LINE      CODE     ---       #166
      010021D9H   LINE      CODE     ---       #167
      010021F9H   LINE      CODE     ---       #168
      01002201H   LINE      CODE     ---       #169
      01002203H   LINE      CODE     ---       #171
      01002203H   LINE      CODE     ---       #172
      01002218H   LINE      CODE     ---       #173
      0100222AH   LINE      CODE     ---       #174
      0100222BH   LINE      CODE     ---       #176
      0100222BH   LINE      CODE     ---       #177
      01002238H   LINE      CODE     ---       #178
      01002238H   LINE      CODE     ---       #179
      01002238H   LINE      CODE     ---       #180
      ---         BLOCKEND  ---      ---       LVL=0

      01003A67H   BLOCK     CODE     ---       LVL=0
      01003A67H   LINE      CODE     ---       #183
      01003A67H   LINE      CODE     ---       #184
      01003A67H   LINE      CODE     ---       #185
      01003A71H   LINE      CODE     ---       #186
      01003A79H   LINE      CODE     ---       #187
      01003A7EH   LINE      CODE     ---       #188
      01003A88H   LINE      CODE     ---       #189
      ---         BLOCKEND  ---      ---       LVL=0
LX51 LINKER/LOCATER V4.66.97.0                                                        05/18/2025  17:01:21  PAGE 74



      010034E2H   BLOCK     CODE     ---       LVL=0
      010034E2H   BLOCK     CODE     NEAR LAB  LVL=1
      00000024H   SYMBOL    DATA     CHAR      i
      ---         BLOCKEND  ---      ---       LVL=1
      010034E2H   LINE      CODE     ---       #192
      010034E2H   LINE      CODE     ---       #193
      010034E2H   LINE      CODE     ---       #196
      010034E5H   LINE      CODE     ---       #198
      010034EAH   LINE      CODE     ---       #199
      010034FEH   LINE      CODE     ---       #200
      010034FEH   LINE      CODE     ---       #201
      01003501H   LINE      CODE     ---       #202
      0100350FH   LINE      CODE     ---       #203
      01003512H   LINE      CODE     ---       #204
      01003516H   LINE      CODE     ---       #206
      0100351BH   LINE      CODE     ---       #207
      0100351EH   LINE      CODE     ---       #208
      ---         BLOCKEND  ---      ---       LVL=0

      010015D2H   BLOCK     CODE     ---       LVL=0
      010015D2H   BLOCK     CODE     NEAR LAB  LVL=1
      00000024H   SYMBOL    DATA     LONG      buf
      ---         BLOCKEND  ---      ---       LVL=1
      010015D2H   LINE      CODE     ---       #210
      010015D2H   LINE      CODE     ---       #211
      010015D2H   LINE      CODE     ---       #214
      010015DFH   LINE      CODE     ---       #215
      010015DFH   LINE      CODE     ---       #216
      010015FCH   LINE      CODE     ---       #217
      01001602H   LINE      CODE     ---       #218
      0100161AH   LINE      CODE     ---       #219
      0100162DH   LINE      CODE     ---       #220
      01001646H   LINE      CODE     ---       #221
      01001648H   LINE      CODE     ---       #223
      01001648H   LINE      CODE     ---       #224
      01001688H   LINE      CODE     ---       #225
      010016A7H   LINE      CODE     ---       #226
      010016BFH   LINE      CODE     ---       #227
      010016C2H   LINE      CODE     ---       #228
      010016C2H   LINE      CODE     ---       #230
      010016D4H   LINE      CODE     ---       #231
      010016DAH   LINE      CODE     ---       #233
      010016F2H   LINE      CODE     ---       #235
      010016F8H   LINE      CODE     ---       #236
      ---         BLOCKEND  ---      ---       LVL=0

      01002535H   BLOCK     CODE     ---       LVL=0
      01002535H   BLOCK     CODE     NEAR LAB  LVL=1
      00000024H   SYMBOL    DATA     INT       AlertThr
      00000006H   SYMBOL    DATA     INT       VBatt
      ---         BLOCKEND  ---      ---       LVL=1
      01002535H   LINE      CODE     ---       #239
      01002535H   LINE      CODE     ---       #240
      01002535H   LINE      CODE     ---       #243
      01002544H   LINE      CODE     ---       #244
      0100254FH   LINE      CODE     ---       #245
      0100255CH   LINE      CODE     ---       #246
      0100256CH   LINE      CODE     ---       #247
      01002573H   LINE      CODE     ---       #248
      01002587H   LINE      CODE     ---       #250
      0100258AH   LINE      CODE     ---       #252
      01002596H   LINE      CODE     ---       #253
      0100259FH   LINE      CODE     ---       #254
      010025A8H   LINE      CODE     ---       #255
LX51 LINKER/LOCATER V4.66.97.0                                                        05/18/2025  17:01:21  PAGE 75


      010025B6H   LINE      CODE     ---       #256
      010025C2H   LINE      CODE     ---       #257
      010025C5H   LINE      CODE     ---       #258
      ---         BLOCKEND  ---      ---       LVL=0

      ---         MODULE    ---      ---       TEMPCONTROL
      00000021H.1 PUBLIC    BIT      BIT       IsForceLeaveTurbo
      00000020H.6 PUBLIC    BIT      BIT       IsDisableTurbo
      010027FDH   PUBLIC    CODE     ---       ThermalMgmtProcess
      01002BD2H   PUBLIC    CODE     ---       ShowThermalStepDown
      010010A0H   PUBLIC    CODE     ---       ThermalPILoopCalc
      01002D89H   PUBLIC    CODE     ---       ThermalILIMCalc
      01003195H   PUBLIC    CODE     ---       _RecalcPILoop
      01003CCFH   SYMBOL    CODE     ---       QueryConstantTemp
      00000020H.7 SYMBOL    BIT      BIT       IsSystemShutDown
      01003CA7H   SYMBOL    CODE     ---       QueryConstantILED
      00000021H.0 SYMBOL    BIT      BIT       IsTempLIMActive
      0000005BH   SYMBOL    DATA     CHAR      StepDownTIM
      00000021H.2 SYMBOL    BIT      BIT       IsThermalStepDown
      010038CAH   SYMBOL    CODE     ---       TempSchmittTrigger
      0200003CH   SYMBOL    XDATA    INT       TempIntegral
      0000005CH   SYMBOL    DATA     BYTE      StepUpLockTIM
      0200003EH   SYMBOL    XDATA    INT       TempProtBuf

      010031E4H   BLOCK     CODE     ---       LVL=0
      ---         BLOCKEND  ---      ---       LVL=0

      01003195H   BLOCK     CODE     ---       LVL=0
      0000002EH   SYMBOL    DATA     INT       LastCurrent
      01003199H   BLOCK     CODE     NEAR LAB  LVL=1
      00000006H   SYMBOL    DATA     INT       buf
      00000002H   SYMBOL    DATA     INT       ModeCur
      ---         BLOCKEND  ---      ---       LVL=1
      01003195H   LINE      CODE     ---       #31
      01003199H   LINE      CODE     ---       #32
      01003199H   LINE      CODE     ---       #35
      010031A6H   LINE      CODE     ---       #38
      010031A6H   LINE      CODE     ---       #40
      010031AFH   LINE      CODE     ---       #42
      010031BCH   LINE      CODE     ---       #43
      010031C1H   LINE      CODE     ---       #44
      010031C1H   LINE      CODE     ---       #45
      010031D1H   LINE      CODE     ---       #46
      010031E0H   LINE      CODE     ---       #47
      010031E0H   LINE      CODE     ---       #49
      010031E3H   LINE      CODE     ---       #50
      ---         BLOCKEND  ---      ---       LVL=0

      01002D89H   BLOCK     CODE     ---       LVL=0
      01002D89H   BLOCK     CODE     NEAR LAB  LVL=1
      00000006H   SYMBOL    DATA     INT       result
      ---         BLOCKEND  ---      ---       LVL=1
      01002D89H   LINE      CODE     ---       #53
      01002D89H   LINE      CODE     ---       #54
      01002D89H   LINE      CODE     ---       #57
      01002D96H   LINE      CODE     ---       #60
      01002D96H   LINE      CODE     ---       #61
      01002DA5H   LINE      CODE     ---       #62
      01002DAFH   LINE      CODE     ---       #63
      01002DBCH   LINE      CODE     ---       #64
      01002DC7H   LINE      CODE     ---       #65
      01002DC7H   LINE      CODE     ---       #66
      01002DD8H   LINE      CODE     ---       #67
      01002DDBH   LINE      CODE     ---       #68
      01002DDFH   LINE      CODE     ---       #69
LX51 LINKER/LOCATER V4.66.97.0                                                        05/18/2025  17:01:21  PAGE 76


      01002DDFH   LINE      CODE     ---       #70
      01002DDFH   LINE      CODE     ---       #72
      01002DF1H   LINE      CODE     ---       #73
      01002DF1H   LINE      CODE     ---       #74
      ---         BLOCKEND  ---      ---       LVL=0

      01003CCFH   BLOCK     CODE     ---       LVL=0
      01003CCFH   LINE      CODE     ---       #76
      01003CCFH   LINE      CODE     ---       #77
      01003CCFH   LINE      CODE     ---       #79
      01003CE1H   LINE      CODE     ---       #80
      ---         BLOCKEND  ---      ---       LVL=0

      01003CA7H   BLOCK     CODE     ---       LVL=0
      01003CA7H   LINE      CODE     ---       #83
      01003CA7H   LINE      CODE     ---       #84
      01003CA7H   LINE      CODE     ---       #85
      01003CBAH   LINE      CODE     ---       #86
      ---         BLOCKEND  ---      ---       LVL=0

      010010A0H   BLOCK     CODE     ---       LVL=0
      010010A0H   BLOCK     CODE     NEAR LAB  LVL=1
      00000024H   SYMBOL    DATA     INT       ProtFact
      00000026H   SYMBOL    DATA     INT       Err
      ---         BLOCKEND  ---      ---       LVL=1
      010010A0H   LINE      CODE     ---       #89
      010010A0H   LINE      CODE     ---       #90
      010010A0H   LINE      CODE     ---       #93
      010010A3H   LINE      CODE     ---       #94
      010010A3H   LINE      CODE     ---       #95
      010010A6H   LINE      CODE     ---       #96
      010010AAH   LINE      CODE     ---       #97
      010010ACH   LINE      CODE     ---       #98
      010010ADH   LINE      CODE     ---       #100
      010010BFH   LINE      CODE     ---       #101
      010010BFH   LINE      CODE     ---       #103
      010010C6H   LINE      CODE     ---       #105
      010010CFH   LINE      CODE     ---       #106
      010010CFH   LINE      CODE     ---       #108
      010010DBH   LINE      CODE     ---       #110
      010010DEH   LINE      CODE     ---       #111
      010010EEH   LINE      CODE     ---       #112
      010010EEH   LINE      CODE     ---       #114
      01001101H   LINE      CODE     ---       #115
      0100111DH   LINE      CODE     ---       #117
      01001126H   LINE      CODE     ---       #118
      01001126H   LINE      CODE     ---       #120
      01001132H   LINE      CODE     ---       #121
      01001132H   LINE      CODE     ---       #122
      0100113FH   LINE      CODE     ---       #123
      01001142H   LINE      CODE     ---       #124
      01001142H   LINE      CODE     ---       #125
      01001144H   LINE      CODE     ---       #127
      0100115BH   LINE      CODE     ---       #129
      0100117BH   LINE      CODE     ---       #130
      0100117EH   LINE      CODE     ---       #131
      0100117EH   LINE      CODE     ---       #133
      01001198H   LINE      CODE     ---       #134
      01001199H   LINE      CODE     ---       #136
      010011A2H   LINE      CODE     ---       #137
      010011A2H   LINE      CODE     ---       #139
      010011AFH   LINE      CODE     ---       #141
      010011B7H   LINE      CODE     ---       #143
      010011B7H   LINE      CODE     ---       #145
      010011C8H   LINE      CODE     ---       #146
LX51 LINKER/LOCATER V4.66.97.0                                                        05/18/2025  17:01:21  PAGE 77


      010011C8H   LINE      CODE     ---       #148
      010011D4H   LINE      CODE     ---       #149
      010011D4H   LINE      CODE     ---       #150
      010011E2H   LINE      CODE     ---       #151
      010011E6H   LINE      CODE     ---       #152
      010011E6H   LINE      CODE     ---       #153
      010011E8H   LINE      CODE     ---       #156
      010011E8H   LINE      CODE     ---       #157
      010011FDH   LINE      CODE     ---       #158
      01001206H   LINE      CODE     ---       #159
      01001206H   LINE      CODE     ---       #160
      01001206H   LINE      CODE     ---       #162
      0100120FH   LINE      CODE     ---       #164
      0100122CH   LINE      CODE     ---       #165
      0100122CH   LINE      CODE     ---       #166
      0100122CH   LINE      CODE     ---       #167
      ---         BLOCKEND  ---      ---       LVL=0

      01002BD2H   BLOCK     CODE     ---       LVL=0
      01002BD2H   BLOCK     CODE     NEAR LAB  LVL=1
      00000024H   SYMBOL    DATA     BYTE      Reason
      ---         BLOCKEND  ---      ---       LVL=1
      01002BD2H   LINE      CODE     ---       #169
      01002BD2H   LINE      CODE     ---       #170
      01002BD2H   LINE      CODE     ---       #173
      01002BDAH   LINE      CODE     ---       #174
      01002BE2H   LINE      CODE     ---       #175
      01002C09H   LINE      CODE     ---       #176
      01002C0CH   LINE      CODE     ---       #178
      01002C18H   LINE      CODE     ---       #179
      01002C18H   LINE      CODE     ---       #180
      01002C1DH   LINE      CODE     ---       #181
      01002C1DH   LINE      CODE     ---       #183
      01002C2AH   LINE      CODE     ---       #184
      01002C2AH   LINE      CODE     ---       #185
      01002C2CH   LINE      CODE     ---       #186
      01002C2EH   LINE      CODE     ---       #187
      01002C2EH   LINE      CODE     ---       #188
      01002C2EH   LINE      CODE     ---       #189
      01002C30H   LINE      CODE     ---       #190
      01002C3DH   LINE      CODE     ---       #191
      01002C3DH   LINE      CODE     ---       #192
      01002C3FH   LINE      CODE     ---       #193
      01002C41H   LINE      CODE     ---       #194
      01002C41H   LINE      CODE     ---       #195
      01002C41H   LINE      CODE     ---       #196
      01002C41H   LINE      CODE     ---       #198
      01002C42H   LINE      CODE     ---       #199
      ---         BLOCKEND  ---      ---       LVL=0

      010038CAH   BLOCK     CODE     ---       LVL=0
      00000020H.2 SYMBOL    BIT      BIT       ValueIN
      00000024H   SYMBOL    DATA     CHAR      HighThreshold
      00000025H   SYMBOL    DATA     CHAR      LowThreshold
      010038CAH   LINE      CODE     ---       #202
      010038CAH   LINE      CODE     ---       #203
      010038CAH   LINE      CODE     ---       #204
      010038DDH   LINE      CODE     ---       #205
      010038F0H   LINE      CODE     ---       #207
      010038F2H   LINE      CODE     ---       #208
      ---         BLOCKEND  ---      ---       LVL=0

      010027FDH   BLOCK     CODE     ---       LVL=0
      010027FDH   BLOCK     CODE     NEAR LAB  LVL=1
      00000020H.1 SYMBOL    BIT      BIT       ThermalStatus
LX51 LINKER/LOCATER V4.66.97.0                                                        05/18/2025  17:01:21  PAGE 78


      ---         BLOCKEND  ---      ---       LVL=1
      010027FDH   LINE      CODE     ---       #211
      010027FDH   LINE      CODE     ---       #212
      010027FDH   LINE      CODE     ---       #215
      01002801H   LINE      CODE     ---       #216
      01002801H   LINE      CODE     ---       #217
      01002806H   LINE      CODE     ---       #219
      01002806H   LINE      CODE     ---       #221
      01002815H   LINE      CODE     ---       #222
      01002824H   LINE      CODE     ---       #224
      01002833H   LINE      CODE     ---       #225
      0100283DH   LINE      CODE     ---       #226
      01002848H   LINE      CODE     ---       #228
      01002856H   LINE      CODE     ---       #230
      01002856H   LINE      CODE     ---       #231
      01002867H   LINE      CODE     ---       #232
      0100286DH   LINE      CODE     ---       #233
      01002884H   LINE      CODE     ---       #234
      01002884H   LINE      CODE     ---       #235
      ---         BLOCKEND  ---      ---       LVL=0

      ---         MODULE    ---      ---       SLEEP
      0000005DH   PUBLIC    DATA     INT       SleepTimer
      01002DF2H   PUBLIC    CODE     ---       SleepMgmt
      01003CBBH   PUBLIC    CODE     ---       LoadSleepTimer
      00000020H.2 PUBLIC    BIT      BIT       ?SystemPeripheralCTRL?BIT
      01003ACCH   PUBLIC    CODE     ---       SystemPeripheralCTRL
      000000C8H.0 SFRSYM    DATA     BIT       T2I0
      000000C3H   SFRSYM    DATA     BYTE      CCH1
      00000080H   SFRSYM    DATA     BYTE      P0
      000000C8H.1 SFRSYM    DATA     BIT       T2I1
      000000C5H   SFRSYM    DATA     BYTE      CCH2
      00000090H   SFRSYM    DATA     BYTE      P1
      000000C7H   SFRSYM    DATA     BYTE      CCH3
      000000ACH   SFRSYM    DATA     BYTE      P0EXTIE
      000000A0H   SFRSYM    DATA     BYTE      P2
      000000B4H   SFRSYM    DATA     BYTE      P0EXTIF
      000000B0H   SFRSYM    DATA     BYTE      P3
      000000ADH   SFRSYM    DATA     BYTE      P1EXTIE
      000000D0H.6 SFRSYM    DATA     BIT       AC
      000000FFH   SFRSYM    DATA     BYTE      MCTRL
      000000C2H   SFRSYM    DATA     BYTE      CCL1
      000000B5H   SFRSYM    DATA     BYTE      P1EXTIF
      000000AEH   SFRSYM    DATA     BYTE      P2EXTIE
      000000C4H   SFRSYM    DATA     BYTE      CCL2
      000000B6H   SFRSYM    DATA     BYTE      P2EXTIF
      000000AFH   SFRSYM    DATA     BYTE      P3EXTIE
      000000A8H.7 SFRSYM    DATA     BIT       EA
      000000C6H   SFRSYM    DATA     BYTE      CCL3
      000000B7H   SFRSYM    DATA     BYTE      P3EXTIF
      000000AAH   SFRSYM    DATA     BYTE      EIE2
      000000B2H   SFRSYM    DATA     BYTE      EIF2
      000000C8H.3 SFRSYM    DATA     BIT       T2R0
      000000C8H.4 SFRSYM    DATA     BIT       T2R1
      00000083H   SFRSYM    DATA     BYTE      DPH0
      000000A8H   SFRSYM    DATA     BYTE      IE
      00000085H   SFRSYM    DATA     BYTE      DPH1
      000000B9H   SFRSYM    DATA     BYTE      EIP1
      000000BAH   SFRSYM    DATA     BYTE      EIP2
      00000082H   SFRSYM    DATA     BYTE      DPL0
      00000084H   SFRSYM    DATA     BYTE      DPL1
      000000C8H.6 SFRSYM    DATA     BIT       I3FR
      000000CFH   SFRSYM    DATA     BYTE      T2IE
      00000096H   SFRSYM    DATA     BYTE      TA
      000000C9H   SFRSYM    DATA     BYTE      T2IF
LX51 LINKER/LOCATER V4.66.97.0                                                        05/18/2025  17:01:21  PAGE 79


      000000C8H.2 SFRSYM    DATA     BIT       T2CM
      000000DFH   SFRSYM    DATA     BYTE      ADCON0
      000000DEH   SFRSYM    DATA     BYTE      ADCON1
      000000E9H   SFRSYM    DATA     BYTE      ADCON2
      000000B8H   SFRSYM    DATA     BYTE      IP
      000000CEH   SFRSYM    DATA     BYTE      CCEN
      000000D0H.7 SFRSYM    DATA     BIT       CY
      000000D2H   SFRSYM    DATA     BYTE      T34MOD
      00000093H   SFRSYM    DATA     BYTE      DPX0
      00000095H   SFRSYM    DATA     BYTE      DPX1
      000000F4H   SFRSYM    DATA     BYTE      I2CMSA
      000000F5H   SFRSYM    DATA     BYTE      I2CMCR
      00000081H   SFRSYM    DATA     BYTE      SP
      000000D0H.2 SFRSYM    DATA     BIT       OV
      000000F2H   SFRSYM    DATA     BYTE      I2CSCR
      000000C8H.7 SFRSYM    DATA     BIT       T2PS
      000000D1H   SFRSYM    DATA     BYTE      ADCMPC
      000000CBH   SFRSYM    DATA     BYTE      RLDH
      000000D5H   SFRSYM    DATA     BYTE      ADCMPH
      000000CAH   SFRSYM    DATA     BYTE      RLDL
      00000080H.0 SFRSYM    DATA     BIT       P00
      00000090H.0 SFRSYM    DATA     BIT       P10
      00000080H.1 SFRSYM    DATA     BIT       P01
      000000F7H   SFRSYM    DATA     BYTE      I2CMTP
      00000099H   SFRSYM    DATA     BYTE      SBUF
      00000087H   SFRSYM    DATA     BYTE      PCON
      000000A0H.0 SFRSYM    DATA     BIT       P20
      00000090H.1 SFRSYM    DATA     BIT       P11
      00000080H.2 SFRSYM    DATA     BIT       P02
      000000F5H   SFRSYM    DATA     BYTE      I2CMSR
      000000B0H.0 SFRSYM    DATA     BIT       P30
      000000A0H.1 SFRSYM    DATA     BIT       P21
      00000090H.2 SFRSYM    DATA     BIT       P12
      00000080H.3 SFRSYM    DATA     BIT       P03
      000000D4H   SFRSYM    DATA     BYTE      ADCMPL
      000000B0H.1 SFRSYM    DATA     BIT       P31
      000000A0H.2 SFRSYM    DATA     BIT       P22
      00000090H.3 SFRSYM    DATA     BIT       P13
      00000080H.4 SFRSYM    DATA     BIT       P04
      000000B0H.2 SFRSYM    DATA     BIT       P32
      000000A0H.3 SFRSYM    DATA     BIT       P23
      00000090H.4 SFRSYM    DATA     BIT       P14
      00000080H.5 SFRSYM    DATA     BIT       P05
      00000089H   SFRSYM    DATA     BYTE      TMOD
      00000088H   SFRSYM    DATA     BYTE      TCON
      000000B0H.3 SFRSYM    DATA     BIT       P33
      000000A0H.4 SFRSYM    DATA     BIT       P24
      00000090H.5 SFRSYM    DATA     BIT       P15
      00000080H.6 SFRSYM    DATA     BIT       P06
      000000B0H.4 SFRSYM    DATA     BIT       P34
      000000A0H.5 SFRSYM    DATA     BIT       P25
      00000090H.6 SFRSYM    DATA     BIT       P16
      00000080H.7 SFRSYM    DATA     BIT       P07
      000000B0H.5 SFRSYM    DATA     BIT       P35
      000000A0H.6 SFRSYM    DATA     BIT       P26
      00000090H.7 SFRSYM    DATA     BIT       P17
      000000F2H   SFRSYM    DATA     BYTE      I2CSSR
      000000B0H.6 SFRSYM    DATA     BIT       P36
      000000A0H.7 SFRSYM    DATA     BIT       P27
      000000ECH   SFRSYM    DATA     BYTE      SPCR
      000000DDH   SFRSYM    DATA     BYTE      ADRESH
      000000B0H.7 SFRSYM    DATA     BIT       P37
      000000EEH   SFRSYM    DATA     BYTE      SPDR
      000000EFH   SFRSYM    DATA     BYTE      SSCR
      000000D3H   SFRSYM    DATA     BYTE      ADDLYL
LX51 LINKER/LOCATER V4.66.97.0                                                        05/18/2025  17:01:21  PAGE 80


      000000DCH   SFRSYM    DATA     BYTE      ADRESL
      00000088H.1 SFRSYM    DATA     BIT       IE0
      00000088H.3 SFRSYM    DATA     BIT       IE1
      0000008FH   SFRSYM    DATA     BYTE      CLKDIV
      000000F0H   SFRSYM    DATA     BYTE      B
      00000091H   SFRSYM    DATA     BYTE      FUNCCR
      0000009AH   SFRSYM    DATA     BYTE      P0TRIS
      000000A1H   SFRSYM    DATA     BYTE      P1TRIS
      000000A2H   SFRSYM    DATA     BYTE      P2TRIS
      000000E0H   SFRSYM    DATA     BYTE      ACC
      000000A3H   SFRSYM    DATA     BYTE      P3TRIS
      000000A8H.4 SFRSYM    DATA     BIT       ES0
      000000A8H.6 SFRSYM    DATA     BIT       ES1
      000000A8H.1 SFRSYM    DATA     BIT       ET0
      000000EDH   SFRSYM    DATA     BYTE      SPSR
      000000A8H.3 SFRSYM    DATA     BIT       ET1
      00000088H.5 SFRSYM    DATA     BIT       TF0
      000000A8H.5 SFRSYM    DATA     BIT       ET2
      00000098H.0 SFRSYM    DATA     BIT       RI0
      00000088H.7 SFRSYM    DATA     BIT       TF1
      0000008CH   SFRSYM    DATA     BYTE      TH0
      000000A8H.0 SFRSYM    DATA     BIT       EX0
      00000098H.1 SFRSYM    DATA     BIT       TI0
      00000088H.0 SFRSYM    DATA     BIT       IT0
      0000008DH   SFRSYM    DATA     BYTE      TH1
      000000A8H.2 SFRSYM    DATA     BIT       EX1
      00000088H.2 SFRSYM    DATA     BIT       IT1
      000000CDH   SFRSYM    DATA     BYTE      TH2
      000000D0H.0 SFRSYM    DATA     BIT       P
      000000DBH   SFRSYM    DATA     BYTE      TH3
      000000E3H   SFRSYM    DATA     BYTE      TH4
      0000008AH   SFRSYM    DATA     BYTE      TL0
      0000008BH   SFRSYM    DATA     BYTE      TL1
      00000098H.2 SFRSYM    DATA     BIT       U0RB8
      000000CCH   SFRSYM    DATA     BYTE      TL2
      000000B8H.4 SFRSYM    DATA     BIT       PS0
      000000DAH   SFRSYM    DATA     BYTE      TL3
      000000BFH   SFRSYM    DATA     BYTE      BUZCON
      000000B8H.6 SFRSYM    DATA     BIT       PS1
      000000B8H.1 SFRSYM    DATA     BIT       PT0
      00000098H.3 SFRSYM    DATA     BIT       U0TB8
      000000E2H   SFRSYM    DATA     BYTE      TL4
      000000D0H.3 SFRSYM    DATA     BIT       RS0
      000000B8H.3 SFRSYM    DATA     BIT       PT1
      000000D0H.4 SFRSYM    DATA     BIT       RS1
      000000B8H.5 SFRSYM    DATA     BIT       PT2
      00000098H.7 SFRSYM    DATA     BIT       U0SM0
      00000088H.4 SFRSYM    DATA     BIT       TR0
      000000BEH   SFRSYM    DATA     BYTE      BUZDIV
      00000098H.6 SFRSYM    DATA     BIT       U0SM1
      00000088H.6 SFRSYM    DATA     BIT       TR1
      000000B8H.0 SFRSYM    DATA     BIT       PX0
      00000098H.5 SFRSYM    DATA     BIT       U0SM2
      000000B8H.2 SFRSYM    DATA     BIT       PX1
      000000BDH   SFRSYM    DATA     BYTE      WUTCRH
      00000099H   SFRSYM    DATA     BYTE      SBUF0
      000000EBH   SFRSYM    DATA     BYTE      SBUF1
      000000BCH   SFRSYM    DATA     BYTE      WUTCRL
      00000098H   SFRSYM    DATA     BYTE      SCON0
      000000EAH   SFRSYM    DATA     BYTE      SCON1
      000000C8H   SFRSYM    DATA     BYTE      T2CON
      00000086H   SFRSYM    DATA     BYTE      DPS
      000000FEH   SFRSYM    DATA     BYTE      MDATA
      000000F6H   SFRSYM    DATA     BYTE      I2CMBUF
      000000F1H   SFRSYM    DATA     BYTE      I2CSADR
LX51 LINKER/LOCATER V4.66.97.0                                                        05/18/2025  17:01:21  PAGE 81


      00000098H.4 SFRSYM    DATA     BIT       U0REN
      000000C8H.5 SFRSYM    DATA     BIT       CAPES
      000000FDH   SFRSYM    DATA     BYTE      MADRH
      0000008EH   SFRSYM    DATA     BYTE      CKCON
      000000F3H   SFRSYM    DATA     BYTE      I2CSBUF
      000000FCH   SFRSYM    DATA     BYTE      MADRL
      000000D0H.5 SFRSYM    DATA     BIT       F0
      000000FBH   SFRSYM    DATA     BYTE      MLOCK
      000000D0H   SFRSYM    DATA     BYTE      PSW
      00000097H   SFRSYM    DATA     BYTE      WDCON
      01003A89H   SYMBOL    CODE     ---       QueryIsSystemNotAllowToSleep

      01003DBCH   BLOCK     CODE     ---       LVL=0
      ---         BLOCKEND  ---      ---       LVL=0

      01003ACCH   BLOCK     CODE     ---       LVL=0
      00000020H.2 SYMBOL    BIT      BIT       IsEnable
      01003ACCH   LINE      CODE     ---       #18
      01003ACCH   LINE      CODE     ---       #19
      01003ACCH   LINE      CODE     ---       #20
      01003ACFH   LINE      CODE     ---       #21
      01003ACFH   LINE      CODE     ---       #22
      01003AD2H   LINE      CODE     ---       #23
      01003AD5H   LINE      CODE     ---       #24
      01003AD8H   LINE      CODE     ---       #25
      01003ADBH   LINE      CODE     ---       #27
      01003ADBH   LINE      CODE     ---       #29
      01003AE0H   LINE      CODE     ---       #30
      01003AE3H   LINE      CODE     ---       #31
      01003AE6H   LINE      CODE     ---       #32
      01003AE9H   LINE      CODE     ---       #33
      01003AECH   LINE      CODE     ---       #34
      ---         BLOCKEND  ---      ---       LVL=0

      01003CBBH   BLOCK     CODE     ---       LVL=0
      01003CBBH   LINE      CODE     ---       #37
      01003CBBH   LINE      CODE     ---       #38
      01003CBBH   LINE      CODE     ---       #40
      01003CCEH   LINE      CODE     ---       #41
      ---         BLOCKEND  ---      ---       LVL=0

      01003A89H   BLOCK     CODE     ---       LVL=0
      01003A89H   LINE      CODE     ---       #44
      01003A89H   LINE      CODE     ---       #45
      01003A89H   LINE      CODE     ---       #47
      01003A92H   LINE      CODE     ---       #49
      01003A9BH   LINE      CODE     ---       #51
      01003AAAH   LINE      CODE     ---       #53
      01003AAAH   LINE      CODE     ---       #54
      ---         BLOCKEND  ---      ---       LVL=0

      01002DF2H   BLOCK     CODE     ---       LVL=0
      01002DF2H   BLOCK     CODE     NEAR LAB  LVL=1
      00000020H.1 SYMBOL    BIT      BIT       sleepsel
      ---         BLOCKEND  ---      ---       LVL=1
      01002DF2H   LINE      CODE     ---       #57
      01002DF2H   LINE      CODE     ---       #58
      01002DF2H   LINE      CODE     ---       #61
      01002DFBH   LINE      CODE     ---       #63
      01002E11H   LINE      CODE     ---       #66
      01002E11H   LINE      CODE     ---       #67
      01002E19H   LINE      CODE     ---       #68
      01002E1EH   LINE      CODE     ---       #69
      01002E23H   LINE      CODE     ---       #70
      01002E29H   LINE      CODE     ---       #72
LX51 LINKER/LOCATER V4.66.97.0                                                        05/18/2025  17:01:21  PAGE 82


      01002E2CH   LINE      CODE     ---       #73
      01002E31H   LINE      CODE     ---       #74
      01002E34H   LINE      CODE     ---       #76
      01002E34H   LINE      CODE     ---       #77
      01002E3BH   LINE      CODE     ---       #78
      01002E3EH   LINE      CODE     ---       #80
      01002E41H   LINE      CODE     ---       #81
      01002E43H   LINE      CODE     ---       #82
      01002E45H   LINE      CODE     ---       #83
      01002E4BH   LINE      CODE     ---       #84
      01002E4BH   LINE      CODE     ---       #85
      01002E50H   LINE      CODE     ---       #87
      01002E55H   LINE      CODE     ---       #89
      01002E5AH   LINE      CODE     ---       #90
      01002E5AH   LINE      CODE     ---       #91
      ---         BLOCKEND  ---      ---       LVL=0

      ---         MODULE    ---      ---       MODECONTROL
      0000004DH   PUBLIC    DATA     ---       CurrentMode
      00000044H   PUBLIC    DATA     ---       SysCfg
      02000042H   PUBLIC    XDATA    CHAR      HoldChangeGearTIM
      02000041H   PUBLIC    XDATA    BYTE      LastMode
      02000040H   PUBLIC    XDATA    CHAR      DisplayLockedTIM
      00000022H.4 PUBLIC    BIT      BIT       IsRampEnabled
      01003F76H   PUBLIC    CONST    ---       ModeSettings
      01000A98H   PUBLIC    CODE     ---       ModeSwitchFSM
      01002D1EH   PUBLIC    CODE     ---       HoldSwitchGearCmdHandler
      01003BDAH   PUBLIC    CODE     ---       ReturnToOFFState
      010026E4H   PUBLIC    CODE     ---       _SwitchToGear
      010038F3H   PUBLIC    CODE     ---       ModeFSMTIMHandler
      010024A1H   PUBLIC    CODE     ---       ModeFSMInit
      01003B2EH   SYMBOL    CODE     ---       QueryTurboCurrent
      01003D7DH   SYMBOL    CODE     ---       _SideKey1HRevGearHandler
      00000022H.5 SYMBOL    BIT      BIT       IsNotifyMaxRampLimitReached
      0100376EH   SYMBOL    CODE     ---       _DetectIfNeedsOFF
      02000043H   SYMBOL    XDATA    CHAR      RampDIVCNT
      01001AD2H   SYMBOL    CODE     ---       RampAdjHandler
      01003C67H   SYMBOL    CODE     ---       _SideKeySwitchGearHandler

      01002F26H   BLOCK     CODE     ---       LVL=0
      ---         BLOCKEND  ---      ---       LVL=0

      01003B2EH   BLOCK     CODE     ---       LVL=0
      01003B2EH   LINE      CODE     ---       #180
      01003B2EH   LINE      CODE     ---       #181
      01003B2EH   LINE      CODE     ---       #183
      01003B49H   LINE      CODE     ---       #185
      01003B4DH   LINE      CODE     ---       #186
      ---         BLOCKEND  ---      ---       LVL=0

      010024A1H   BLOCK     CODE     ---       LVL=0
      010024A1H   BLOCK     CODE     NEAR LAB  LVL=1
      00000007H   SYMBOL    DATA     CHAR      i
      ---         BLOCKEND  ---      ---       LVL=1
      010024A1H   LINE      CODE     ---       #189
      010024A1H   LINE      CODE     ---       #190
      010024A1H   LINE      CODE     ---       #193
      010024A4H   LINE      CODE     ---       #194
      010024A7H   LINE      CODE     ---       #195
      010024C4H   LINE      CODE     ---       #196
      010024C4H   LINE      CODE     ---       #197
      010024D6H   LINE      CODE     ---       #198
      010024E3H   LINE      CODE     ---       #200
      01002500H   LINE      CODE     ---       #201
      01002512H   LINE      CODE     ---       #203
LX51 LINKER/LOCATER V4.66.97.0                                                        05/18/2025  17:01:21  PAGE 83


      01002514H   LINE      CODE     ---       #204
      01002517H   LINE      CODE     ---       #206
      0100251DH   LINE      CODE     ---       #208
      01002520H   LINE      CODE     ---       #209
      01002526H   LINE      CODE     ---       #210
      0100252BH   LINE      CODE     ---       #211
      01002534H   LINE      CODE     ---       #212
      ---         BLOCKEND  ---      ---       LVL=0

      010038F3H   BLOCK     CODE     ---       LVL=0
      010038F3H   LINE      CODE     ---       #215
      010038F3H   LINE      CODE     ---       #216
      010038F3H   LINE      CODE     ---       #218
      01003903H   LINE      CODE     ---       #219
      0100390BH   LINE      CODE     ---       #220
      0100390BH   LINE      CODE     ---       #221
      0100390EH   LINE      CODE     ---       #222
      01003910H   LINE      CODE     ---       #223
      01003910H   LINE      CODE     ---       #225
      0100391BH   LINE      CODE     ---       #226
      ---         BLOCKEND  ---      ---       LVL=0

      010026E4H   BLOCK     CODE     ---       LVL=0
      00000028H   SYMBOL    DATA     BYTE      TargetMode
      010026E6H   BLOCK     CODE     NEAR LAB  LVL=1
      00000029H   SYMBOL    DATA     CHAR      i
      0000002AH   SYMBOL    DATA     INT       LastICC
      0000002CH   SYMBOL    DATA     BYTE      IsLastModeNeedStepDown
      0000002DH   SYMBOL    DATA     BYTE      BeforeMode
      ---         BLOCKEND  ---      ---       LVL=1
      010026E4H   LINE      CODE     ---       #229
      010026E6H   LINE      CODE     ---       #230
      010026E6H   LINE      CODE     ---       #235
      010026ECH   LINE      CODE     ---       #236
      010026F4H   LINE      CODE     ---       #237
      01002702H   LINE      CODE     ---       #238
      0100270AH   LINE      CODE     ---       #240
      0100272DH   LINE      CODE     ---       #241
      0100272DH   LINE      CODE     ---       #243
      01002730H   LINE      CODE     ---       #244
      01002733H   LINE      CODE     ---       #245
      01002736H   LINE      CODE     ---       #248
      01002752H   LINE      CODE     ---       #250
      01002761H   LINE      CODE     ---       #251
      0100276CH   LINE      CODE     ---       #253
      0100276CH   LINE      CODE     ---       #254
      01002770H   LINE      CODE     ---       #255
      ---         BLOCKEND  ---      ---       LVL=0

      01003BDAH   BLOCK     CODE     ---       LVL=0
      01003BDAH   LINE      CODE     ---       #258
      01003BDAH   LINE      CODE     ---       #259
      01003BDAH   LINE      CODE     ---       #260
      01003BE0H   LINE      CODE     ---       #261
      01003BEDH   LINE      CODE     ---       #262
      01003BF2H   LINE      CODE     ---       #263
      ---         BLOCKEND  ---      ---       LVL=0

      01002D1EH   BLOCK     CODE     ---       LVL=0
      01002D1EH   BLOCK     CODE     NEAR LAB  LVL=1
      00000024H   SYMBOL    DATA     CHAR      buf
      ---         BLOCKEND  ---      ---       LVL=1
      01002D1EH   LINE      CODE     ---       #266
      01002D1EH   LINE      CODE     ---       #267
      01002D1EH   LINE      CODE     ---       #269
LX51 LINKER/LOCATER V4.66.97.0                                                        05/18/2025  17:01:21  PAGE 84


      01002D2BH   LINE      CODE     ---       #270
      01002D3BH   LINE      CODE     ---       #272
      01002D3BH   LINE      CODE     ---       #273
      01002D44H   LINE      CODE     ---       #274
      01002D61H   LINE      CODE     ---       #275
      01002D68H   LINE      CODE     ---       #276
      01002D7EH   LINE      CODE     ---       #277
      01002D81H   LINE      CODE     ---       #278
      01002D88H   LINE      CODE     ---       #279
      01002D88H   LINE      CODE     ---       #280
      ---         BLOCKEND  ---      ---       LVL=0

      01003C67H   BLOCK     CODE     ---       LVL=0
      00000003H   SYMBOL    DATA     BYTE      TargetMode
      01003C67H   LINE      CODE     ---       #283
      01003C67H   LINE      CODE     ---       #284
      01003C67H   LINE      CODE     ---       #285
      01003C75H   LINE      CODE     ---       #286
      01003C79H   LINE      CODE     ---       #287
      01003C7CH   LINE      CODE     ---       #288
      ---         BLOCKEND  ---      ---       LVL=0

      01003D7DH   BLOCK     CODE     ---       LVL=0
      00000005H   SYMBOL    DATA     BYTE      TargetMode
      01003D7DH   LINE      CODE     ---       #291
      01003D7DH   LINE      CODE     ---       #292
      01003D7DH   LINE      CODE     ---       #293
      01003D84H   LINE      CODE     ---       #294
      01003D87H   LINE      CODE     ---       #295
      01003D8AH   LINE      CODE     ---       #296
      ---         BLOCKEND  ---      ---       LVL=0

      01001AD2H   BLOCK     CODE     ---       LVL=0
      01001AD2H   BLOCK     CODE     NEAR LAB  LVL=1
      00000022H.3 SYMBOL    BIT      BIT       IsKeyPressed
      00000025H   SYMBOL    DATA     INT       Limit
      00000020H.1 SYMBOL    BIT      BIT       IsPress
      ---         BLOCKEND  ---      ---       LVL=1
      01001AD2H   LINE      CODE     ---       #299
      01001AD2H   LINE      CODE     ---       #300
      01001AD2H   LINE      CODE     ---       #305
      01001AE2H   LINE      CODE     ---       #306
      01001B05H   LINE      CODE     ---       #307
      01001B2AH   LINE      CODE     ---       #309
      01001B32H   LINE      CODE     ---       #310
      01001B32H   LINE      CODE     ---       #311
      01001B39H   LINE      CODE     ---       #313
      01001B39H   LINE      CODE     ---       #315
      01001B49H   LINE      CODE     ---       #317
      01001B49H   LINE      CODE     ---       #318
      01001B4BH   LINE      CODE     ---       #319
      01001B4EH   LINE      CODE     ---       #320
      01001B54H   LINE      CODE     ---       #321
      01001B56H   LINE      CODE     ---       #322
      01001B56H   LINE      CODE     ---       #324
      01001B56H   LINE      CODE     ---       #325
      01001B56H   LINE      CODE     ---       #326
      01001B58H   LINE      CODE     ---       #327
      01001B60H   LINE      CODE     ---       #328
      01001B60H   LINE      CODE     ---       #329
      01001B6AH   LINE      CODE     ---       #331
      01001B6AH   LINE      CODE     ---       #332
      01001B87H   LINE      CODE     ---       #334
      01001B87H   LINE      CODE     ---       #335
      01001B89H   LINE      CODE     ---       #336
LX51 LINKER/LOCATER V4.66.97.0                                                        05/18/2025  17:01:21  PAGE 85


      01001B8CH   LINE      CODE     ---       #337
      01001B90H   LINE      CODE     ---       #338
      01001B92H   LINE      CODE     ---       #339
      01001B92H   LINE      CODE     ---       #341
      01001B92H   LINE      CODE     ---       #342
      01001B92H   LINE      CODE     ---       #343
      01001B94H   LINE      CODE     ---       #344
      01001B9AH   LINE      CODE     ---       #345
      01001B9AH   LINE      CODE     ---       #346
      01001B9CH   LINE      CODE     ---       #347
      01001BA2H   LINE      CODE     ---       #348
      01001BA2H   LINE      CODE     ---       #350
      01001BA9H   LINE      CODE     ---       #351
      01001BB6H   LINE      CODE     ---       #352
      01001BB6H   LINE      CODE     ---       #353
      01001BB8H   LINE      CODE     ---       #354
      01001BBDH   LINE      CODE     ---       #355
      01001BBDH   LINE      CODE     ---       #356
      ---         BLOCKEND  ---      ---       LVL=0

      0100376EH   BLOCK     CODE     ---       LVL=0
      00000025H   SYMBOL    DATA     INT       ClickCount
      0100376EH   LINE      CODE     ---       #359
      01003772H   LINE      CODE     ---       #360
      01003772H   LINE      CODE     ---       #361
      01003783H   LINE      CODE     ---       #362
      0100378FH   LINE      CODE     ---       #363
      01003798H   LINE      CODE     ---       #364
      0100379BH   LINE      CODE     ---       #365
      ---         BLOCKEND  ---      ---       LVL=0

      01000A98H   BLOCK     CODE     ---       LVL=0
      01000A98H   BLOCK     CODE     NEAR LAB  LVL=1
      00000024H   SYMBOL    DATA     CHAR      ClickCount
      ---         BLOCKEND  ---      ---       LVL=1
      01000A98H   LINE      CODE     ---       #368
      01000A98H   LINE      CODE     ---       #369
      01000A98H   LINE      CODE     ---       #372
      01000AA0H   LINE      CODE     ---       #373
      01000AA7H   LINE      CODE     ---       #375
      01000ABCH   LINE      CODE     ---       #377
      01000ABEH   LINE      CODE     ---       #378
      01000AF7H   LINE      CODE     ---       #379
      01000AF7H   LINE      CODE     ---       #381
      01000AF7H   LINE      CODE     ---       #382
      01000AFAH   LINE      CODE     ---       #383
      01000B0AH   LINE      CODE     ---       #384
      01000B0DH   LINE      CODE     ---       #385
      01000B10H   LINE      CODE     ---       #387
      01000B10H   LINE      CODE     ---       #389
      01000B16H   LINE      CODE     ---       #390
      01000B16H   LINE      CODE     ---       #391
      01000B1BH   LINE      CODE     ---       #392
      01000B22H   LINE      CODE     ---       #393
      01000B22H   LINE      CODE     ---       #395
      01000B2DH   LINE      CODE     ---       #397
      01000B40H   LINE      CODE     ---       #399
      01000B45H   LINE      CODE     ---       #400
      01000B4FH   LINE      CODE     ---       #401
      01000B58H   LINE      CODE     ---       #402
      01000B58H   LINE      CODE     ---       #403
      01000B5AH   LINE      CODE     ---       #404
      01000B63H   LINE      CODE     ---       #405
      01000B68H   LINE      CODE     ---       #406
      01000B68H   LINE      CODE     ---       #408
LX51 LINKER/LOCATER V4.66.97.0                                                        05/18/2025  17:01:21  PAGE 86


      01000B74H   LINE      CODE     ---       #409
      01000B77H   LINE      CODE     ---       #411
      01000B77H   LINE      CODE     ---       #412
      01000B79H   LINE      CODE     ---       #413
      01000B7BH   LINE      CODE     ---       #414
      01000B7EH   LINE      CODE     ---       #416
      01000B86H   LINE      CODE     ---       #417
      01000B86H   LINE      CODE     ---       #418
      01000B8BH   LINE      CODE     ---       #419
      01000B95H   LINE      CODE     ---       #420
      01000B9BH   LINE      CODE     ---       #421
      01000BA2H   LINE      CODE     ---       #422
      01000BA2H   LINE      CODE     ---       #423
      01000BA5H   LINE      CODE     ---       #425
      01000BA5H   LINE      CODE     ---       #426
      01000BA8H   LINE      CODE     ---       #427
      01000BABH   LINE      CODE     ---       #429
      01000BAEH   LINE      CODE     ---       #430
      01000BB1H   LINE      CODE     ---       #431
      01000BB4H   LINE      CODE     ---       #433
      01000BB4H   LINE      CODE     ---       #434
      01000BB6H   LINE      CODE     ---       #435
      01000BB9H   LINE      CODE     ---       #436
      01000BBEH   LINE      CODE     ---       #437
      01000BC0H   LINE      CODE     ---       #438
      01000BC3H   LINE      CODE     ---       #440
      01000BC3H   LINE      CODE     ---       #441
      01000BC5H   LINE      CODE     ---       #442
      01000BC5H   LINE      CODE     ---       #443
      01000BCBH   LINE      CODE     ---       #445
      01000BD0H   LINE      CODE     ---       #446
      01000BD2H   LINE      CODE     ---       #447
      01000BD5H   LINE      CODE     ---       #449
      01000BD5H   LINE      CODE     ---       #450
      01000BD7H   LINE      CODE     ---       #451
      01000BD7H   LINE      CODE     ---       #452
      01000BDDH   LINE      CODE     ---       #454
      01000BE2H   LINE      CODE     ---       #455
      01000BE4H   LINE      CODE     ---       #456
      01000BE6H   LINE      CODE     ---       #458
      01000BE6H   LINE      CODE     ---       #459
      01000BE8H   LINE      CODE     ---       #460
      01000BEBH   LINE      CODE     ---       #461
      01000BEEH   LINE      CODE     ---       #463
      01000BF3H   LINE      CODE     ---       #464
      01000BF5H   LINE      CODE     ---       #465
      01000BF7H   LINE      CODE     ---       #467
      01000BF7H   LINE      CODE     ---       #468
      01000BF9H   LINE      CODE     ---       #469
      01000BFFH   LINE      CODE     ---       #470
      01000C04H   LINE      CODE     ---       #472
      01000C09H   LINE      CODE     ---       #473
      01000C0EH   LINE      CODE     ---       #474
      01000C10H   LINE      CODE     ---       #476
      01000C10H   LINE      CODE     ---       #477
      01000C13H   LINE      CODE     ---       #478
      01000C19H   LINE      CODE     ---       #479
      01000C1EH   LINE      CODE     ---       #480
      01000C34H   LINE      CODE     ---       #481
      01000C42H   LINE      CODE     ---       #482
      01000C44H   LINE      CODE     ---       #484
      01000C44H   LINE      CODE     ---       #485
      01000C46H   LINE      CODE     ---       #486
      01000C46H   LINE      CODE     ---       #487
      01000C4CH   LINE      CODE     ---       #489
LX51 LINKER/LOCATER V4.66.97.0                                                        05/18/2025  17:01:21  PAGE 87


      01000C4EH   LINE      CODE     ---       #490
      01000C50H   LINE      CODE     ---       #492
      01000C50H   LINE      CODE     ---       #493
      01000C52H   LINE      CODE     ---       #494
      01000C52H   LINE      CODE     ---       #495
      01000C58H   LINE      CODE     ---       #497
      01000C5AH   LINE      CODE     ---       #498
      01000C5CH   LINE      CODE     ---       #500
      01000C5CH   LINE      CODE     ---       #501
      01000C63H   LINE      CODE     ---       #502
      01000C69H   LINE      CODE     ---       #503
      01000C6EH   LINE      CODE     ---       #505
      01000C73H   LINE      CODE     ---       #506
      01000C73H   LINE      CODE     ---       #507
      01000C73H   LINE      CODE     ---       #509
      01000C88H   LINE      CODE     ---       #510
      01000C98H   LINE      CODE     ---       #511
      01000C98H   LINE      CODE     ---       #512
      01000C9EH   LINE      CODE     ---       #513
      01000C9EH   LINE      CODE     ---       #514
      01000C9EH   LINE      CODE     ---       #515
      01000C9EH   LINE      CODE     ---       #516
      01000CADH   LINE      CODE     ---       #517
      01000CADH   LINE      CODE     ---       #518
      01000CBCH   LINE      CODE     ---       #519
      01000CC8H   LINE      CODE     ---       #520
      01000CD4H   LINE      CODE     ---       #521
      01000CDEH   LINE      CODE     ---       #522
      01000CDEH   LINE      CODE     ---       #524
      01000CEDH   LINE      CODE     ---       #525
      01000CFDH   LINE      CODE     ---       #526
      01000D10H   LINE      CODE     ---       #527
      01000D10H   LINE      CODE     ---       #528
      01000D12H   LINE      CODE     ---       #529
      01000D1DH   LINE      CODE     ---       #530
      01000D1DH   LINE      CODE     ---       #531
      01000D1DH   LINE      CODE     ---       #532
      01000D1DH   LINE      CODE     ---       #534
      01000D1DH   LINE      CODE     ---       #535
      01000D27H   LINE      CODE     ---       #536
      01000D4FH   LINE      CODE     ---       #537
      01000D5FH   LINE      CODE     ---       #538
      01000D5FH   LINE      CODE     ---       #540
      01000D83H   LINE      CODE     ---       #542
      01000D88H   LINE      CODE     ---       #543
      ---         BLOCKEND  ---      ---       LVL=0

      ---         MODULE    ---      ---       SELFTEST
      02000039H   PUBLIC    XDATA    BYTE      ErrCode
      00000023H.4 PUBLIC    BIT      BIT       IsInputLimited
      010014A7H   PUBLIC    CODE     ---       OutputFaultDetect
      01002C43H   PUBLIC    CODE     ---       DisplayErrorIDHandler
      01003422H   PUBLIC    CODE     ---       DisplayErrorTIMHandler
      01003DEDH   PUBLIC    CODE     ---       ClearError
      01003C0BH   PUBLIC    CODE     ---       _ReportError
      01003673H   PUBLIC    CODE     ---       IsErrorFatal
      02000037H   SYMBOL    XDATA    INT       ErrDisplayIndex
      0200003AH   SYMBOL    XDATA    CHAR      ShortDetectTIM
      01003FF9H   SYMBOL    CONST    ---       NonCriticalFault
      0200003BH   SYMBOL    XDATA    CHAR      ShortBlankTIM
      01003C23H   SYMBOL    CODE     ---       _ErrTIMCounter

      0100396BH   BLOCK     CODE     ---       LVL=0
      ---         BLOCKEND  ---      ---       LVL=0

LX51 LINKER/LOCATER V4.66.97.0                                                        05/18/2025  17:01:21  PAGE 88


      01003673H   BLOCK     CODE     ---       LVL=0
      01003673H   BLOCK     CODE     NEAR LAB  LVL=1
      00000007H   SYMBOL    DATA     CHAR      i
      ---         BLOCKEND  ---      ---       LVL=1
      01003673H   LINE      CODE     ---       #25
      01003673H   LINE      CODE     ---       #26
      01003673H   LINE      CODE     ---       #28
      01003686H   LINE      CODE     ---       #29
      010036A6H   LINE      CODE     ---       #31
      010036A7H   LINE      CODE     ---       #32
      ---         BLOCKEND  ---      ---       LVL=0

      01003C0BH   BLOCK     CODE     ---       LVL=0
      00000007H   SYMBOL    DATA     BYTE      Code
      01003C0BH   LINE      CODE     ---       #35
      01003C0BH   LINE      CODE     ---       #36
      01003C0BH   LINE      CODE     ---       #37
      01003C10H   LINE      CODE     ---       #38
      01003C1DH   LINE      CODE     ---       #39
      01003C22H   LINE      CODE     ---       #40
      ---         BLOCKEND  ---      ---       LVL=0

      01003DEDH   BLOCK     CODE     ---       LVL=0
      01003DEDH   LINE      CODE     ---       #43
      01003DEDH   LINE      CODE     ---       #44
      01003DEDH   LINE      CODE     ---       #45
      01003DF2H   LINE      CODE     ---       #46
      ---         BLOCKEND  ---      ---       LVL=0

      01003422H   BLOCK     CODE     ---       LVL=0
      01003422H   LINE      CODE     ---       #50
      01003422H   LINE      CODE     ---       #51
      01003422H   LINE      CODE     ---       #53
      01003430H   LINE      CODE     ---       #55
      01003430H   LINE      CODE     ---       #56
      0100343EH   LINE      CODE     ---       #57
      01003463H   LINE      CODE     ---       #58
      01003463H   LINE      CODE     ---       #59
      ---         BLOCKEND  ---      ---       LVL=0

      01002C43H   BLOCK     CODE     ---       LVL=0
      01002C43H   BLOCK     CODE     NEAR LAB  LVL=1
      00000006H   SYMBOL    DATA     INT       buf
      ---         BLOCKEND  ---      ---       LVL=1
      01002C43H   LINE      CODE     ---       #62
      01002C43H   LINE      CODE     ---       #63
      01002C43H   LINE      CODE     ---       #66
      01002C55H   LINE      CODE     ---       #67
      01002C55H   LINE      CODE     ---       #68
      01002C65H   LINE      CODE     ---       #72
      01002C8EH   LINE      CODE     ---       #73
      01002C8EH   LINE      CODE     ---       #74
      01002C9DH   LINE      CODE     ---       #75
      01002CACH   LINE      CODE     ---       #76
      01002CACH   LINE      CODE     ---       #77
      01002CAEH   LINE      CODE     ---       #78
      01002CB1H   LINE      CODE     ---       #79
      ---         BLOCKEND  ---      ---       LVL=0

      01003C23H   BLOCK     CODE     ---       LVL=0
      00000007H   SYMBOL    DATA     CHAR      buf
      00000005H   SYMBOL    DATA     CHAR      Count
      01003C23H   LINE      CODE     ---       #81
      01003C23H   LINE      CODE     ---       #82
      01003C23H   LINE      CODE     ---       #84
LX51 LINKER/LOCATER V4.66.97.0                                                        05/18/2025  17:01:21  PAGE 89


      01003C3AH   LINE      CODE     ---       #85
      ---         BLOCKEND  ---      ---       LVL=0

      010014A7H   BLOCK     CODE     ---       LVL=0
      010014A7H   BLOCK     CODE     NEAR LAB  LVL=1
      00000024H   SYMBOL    DATA     CHAR      buf
      00000025H   SYMBOL    DATA     CHAR      OErrID
      ---         BLOCKEND  ---      ---       LVL=1
      010014A7H   LINE      CODE     ---       #88
      010014A7H   LINE      CODE     ---       #89
      010014A7H   LINE      CODE     ---       #92
      010014BAH   LINE      CODE     ---       #93
      010014BAH   LINE      CODE     ---       #94
      010014BCH   LINE      CODE     ---       #95
      010014C6H   LINE      CODE     ---       #96
      010014C8H   LINE      CODE     ---       #97
      010014EEH   LINE      CODE     ---       #98
      010014F0H   LINE      CODE     ---       #100
      010014FBH   LINE      CODE     ---       #101
      01001513H   LINE      CODE     ---       #103
      01001513H   LINE      CODE     ---       #104
      0100151BH   LINE      CODE     ---       #106
      01001537H   LINE      CODE     ---       #108
      01001551H   LINE      CODE     ---       #109
      01001551H   LINE      CODE     ---       #110
      0100155AH   LINE      CODE     ---       #111
      0100155DH   LINE      CODE     ---       #112
      0100155FH   LINE      CODE     ---       #114
      01001573H   LINE      CODE     ---       #115
      01001573H   LINE      CODE     ---       #116
      0100157CH   LINE      CODE     ---       #117
      0100157FH   LINE      CODE     ---       #118
      01001581H   LINE      CODE     ---       #119
      0100159DH   LINE      CODE     ---       #121
      010015A8H   LINE      CODE     ---       #123
      010015BAH   LINE      CODE     ---       #124
      010015C8H   LINE      CODE     ---       #125
      010015C8H   LINE      CODE     ---       #126
      010015CCH   LINE      CODE     ---       #127
      010015D1H   LINE      CODE     ---       #128
      010015D1H   LINE      CODE     ---       #129
      010015D1H   LINE      CODE     ---       #130
      ---         BLOCKEND  ---      ---       LVL=0

      ---         MODULE    ---      ---       SOS
      01002AEDH   PUBLIC    CODE     ---       SOSFSM
      01003DC6H   PUBLIC    CODE     ---       ResetSOSModule
      01003D1AH   PUBLIC    CODE     ---       SOSTIMHandler
      010039DBH   SYMBOL    CODE     ---       _SOSTIMDetect
      01003DA5H   SYMBOL    CODE     ---       _SOSFSM_Jump
      0200004AH   SYMBOL    XDATA    CHAR      SOSTIM
      0200004BH   SYMBOL    XDATA    BYTE      SOSState

      01003DD0H   BLOCK     CODE     ---       LVL=0
      ---         BLOCKEND  ---      ---       LVL=0

      01003DA5H   BLOCK     CODE     ---       LVL=0
      00000007H   SYMBOL    DATA     BYTE      State
      00000005H   SYMBOL    DATA     CHAR      Time
      01003DA5H   LINE      CODE     ---       #9
      01003DA5H   LINE      CODE     ---       #10
      01003DA5H   LINE      CODE     ---       #11
      01003DABH   LINE      CODE     ---       #12
      01003DADH   LINE      CODE     ---       #13
      01003DB0H   LINE      CODE     ---       #14
LX51 LINKER/LOCATER V4.66.97.0                                                        05/18/2025  17:01:21  PAGE 90


      ---         BLOCKEND  ---      ---       LVL=0

      01003D1AH   BLOCK     CODE     ---       LVL=0
      01003D1AH   LINE      CODE     ---       #17
      01003D1AH   LINE      CODE     ---       #18
      01003D1AH   LINE      CODE     ---       #20
      01003D2BH   LINE      CODE     ---       #21
      ---         BLOCKEND  ---      ---       LVL=0

      01003DC6H   BLOCK     CODE     ---       LVL=0
      01003DC6H   LINE      CODE     ---       #24
      01003DC6H   LINE      CODE     ---       #25
      01003DC6H   LINE      CODE     ---       #26
      01003DCBH   LINE      CODE     ---       #27
      01003DCFH   LINE      CODE     ---       #28
      ---         BLOCKEND  ---      ---       LVL=0

      010039DBH   BLOCK     CODE     ---       LVL=0
      00000003H   SYMBOL    DATA     CHAR      Time
      010039DBH   LINE      CODE     ---       #30
      010039DDH   LINE      CODE     ---       #31
      010039DDH   LINE      CODE     ---       #33
      010039FDH   LINE      CODE     ---       #35
      010039FEH   LINE      CODE     ---       #36
      ---         BLOCKEND  ---      ---       LVL=0

      01002AEDH   BLOCK     CODE     ---       LVL=0
      01002AEDH   LINE      CODE     ---       #39
      01002AEDH   LINE      CODE     ---       #40
      01002AEDH   LINE      CODE     ---       #41
      01002B12H   LINE      CODE     ---       #42
      01002B12H   LINE      CODE     ---       #44
      01002B12H   LINE      CODE     ---       #45
      01002B17H   LINE      CODE     ---       #46
      01002B1BH   LINE      CODE     ---       #47
      01002B1DH   LINE      CODE     ---       #49
      01002B1DH   LINE      CODE     ---       #50
      01002B1DH   LINE      CODE     ---       #51
      01002B27H   LINE      CODE     ---       #52
      01002B35H   LINE      CODE     ---       #53
      01002B39H   LINE      CODE     ---       #54
      01002B3BH   LINE      CODE     ---       #56
      01002B3BH   LINE      CODE     ---       #57
      01002B3FH   LINE      CODE     ---       #58
      01002B41H   LINE      CODE     ---       #60
      01002B41H   LINE      CODE     ---       #61
      01002B4BH   LINE      CODE     ---       #62
      01002B4FH   LINE      CODE     ---       #63
      01002B51H   LINE      CODE     ---       #65
      01002B51H   LINE      CODE     ---       #66
      01002B55H   LINE      CODE     ---       #67
      01002B57H   LINE      CODE     ---       #69
      01002B57H   LINE      CODE     ---       #70
      01002B5DH   LINE      CODE     ---       #71
      01002B5DH   LINE      CODE     ---       #72
      01002B5DH   LINE      CODE     ---       #74
      01002B5FH   LINE      CODE     ---       #75
      ---         BLOCKEND  ---      ---       LVL=0

      ---         MODULE    ---      ---       LOWVOLTAGEPROT
      02000028H   PUBLIC    XDATA    INT       TurboILIM
      02000024H   PUBLIC    XDATA    FLOAT     BeforeRawBattVolt
      01001804H   PUBLIC    CODE     ---       RampLowVoltHandler
      01003CE2H   PUBLIC    CODE     ---       RampRestoreLVProtToMax
      0100309DH   PUBLIC    CODE     ---       _BatteryLowAlertProcess
LX51 LINKER/LOCATER V4.66.97.0                                                        05/18/2025  17:01:21  PAGE 91


      010025C6H   PUBLIC    CODE     ---       TurboLVILIMProcess
      0100391CH   PUBLIC    CODE     ---       CalcTurboILIM
      0100351FH   PUBLIC    CODE     ---       BattAlertTIMHandler
      02000022H   SYMBOL    XDATA    CHAR      BattAlertTimer
      02000023H   SYMBOL    XDATA    CHAR      RampCurrentRiseAttmTIM
      01003DF6H   SYMBOL    CODE     ---       StartBattAlertTimer
      0000005FH   SYMBOL    DATA     CHAR      MPPTStepdownWaitTimer

      010037C9H   BLOCK     CODE     ---       LVL=0
      ---         BLOCKEND  ---      ---       LVL=0

      01003DF6H   BLOCK     CODE     ---       LVL=0
      01003DF6H   LINE      CODE     ---       #19
      01003DF6H   LINE      CODE     ---       #20
      01003DF6H   LINE      CODE     ---       #22
      01003DFCH   LINE      CODE     ---       #23
      01003DFEH   LINE      CODE     ---       #24
      ---         BLOCKEND  ---      ---       LVL=0

      0100351FH   BLOCK     CODE     ---       LVL=0
      0100351FH   LINE      CODE     ---       #27
      0100351FH   LINE      CODE     ---       #28
      0100351FH   LINE      CODE     ---       #30
      0100352CH   LINE      CODE     ---       #32
      01003544H   LINE      CODE     ---       #34
      01003559H   LINE      CODE     ---       #35
      ---         BLOCKEND  ---      ---       LVL=0

      0100391CH   BLOCK     CODE     ---       LVL=0
      0100391CH   LINE      CODE     ---       #38
      0100391CH   LINE      CODE     ---       #39
      0100391CH   LINE      CODE     ---       #40
      0100391EH   LINE      CODE     ---       #41
      0100392BH   LINE      CODE     ---       #42
      ---         BLOCKEND  ---      ---       LVL=0

      010025C6H   BLOCK     CODE     ---       LVL=0
      010025C6H   LINE      CODE     ---       #46
      010025C6H   LINE      CODE     ---       #47
      010025C6H   LINE      CODE     ---       #49
      010025CCH   LINE      CODE     ---       #50
      010025CCH   LINE      CODE     ---       #52
      010025CFH   LINE      CODE     ---       #53
      010025E3H   LINE      CODE     ---       #55
      010025E5H   LINE      CODE     ---       #56
      010025ECH   LINE      CODE     ---       #57
      010025EEH   LINE      CODE     ---       #59
      010025F1H   LINE      CODE     ---       #60
      010025F1H   LINE      CODE     ---       #62
      010025F4H   LINE      CODE     ---       #63
      010025F4H   LINE      CODE     ---       #65
      010025F8H   LINE      CODE     ---       #67
      01002606H   LINE      CODE     ---       #68
      01002609H   LINE      CODE     ---       #70
      01002618H   LINE      CODE     ---       #72
      0100261FH   LINE      CODE     ---       #73
      01002629H   LINE      CODE     ---       #74
      01002629H   LINE      CODE     ---       #76
      01002642H   LINE      CODE     ---       #77
      01002642H   LINE      CODE     ---       #78
      01002645H   LINE      CODE     ---       #79
      0100264DH   LINE      CODE     ---       #80
      0100264FH   LINE      CODE     ---       #81
      0100264FH   LINE      CODE     ---       #82
      01002650H   LINE      CODE     ---       #84
LX51 LINKER/LOCATER V4.66.97.0                                                        05/18/2025  17:01:21  PAGE 92


      01002655H   LINE      CODE     ---       #85
      ---         BLOCKEND  ---      ---       LVL=0

      0100309DH   BLOCK     CODE     ---       LVL=0
      00000025H   SYMBOL    DATA     BYTE      IsNeedToShutOff
      00000026H   SYMBOL    DATA     BYTE      ModeJump
      010030A1H   BLOCK     CODE     NEAR LAB  LVL=1
      00000027H   SYMBOL    DATA     CHAR      Thr
      00000020H.1 SYMBOL    BIT      BIT       IsChangingGear
      ---         BLOCKEND  ---      ---       LVL=1
      0100309DH   LINE      CODE     ---       #88
      010030A1H   LINE      CODE     ---       #89
      010030A1H   LINE      CODE     ---       #90
      010030A4H   LINE      CODE     ---       #93
      010030ADH   LINE      CODE     ---       #94
      010030B2H   LINE      CODE     ---       #96
      010030B5H   LINE      CODE     ---       #97
      010030B5H   LINE      CODE     ---       #98
      010030B8H   LINE      CODE     ---       #100
      010030C5H   LINE      CODE     ---       #103
      010030C8H   LINE      CODE     ---       #105
      010030D9H   LINE      CODE     ---       #106
      010030D9H   LINE      CODE     ---       #108
      010030DFH   LINE      CODE     ---       #110
      010030E8H   LINE      CODE     ---       #113
      010030E8H   LINE      CODE     ---       #114
      010030EDH   LINE      CODE     ---       #115
      010030F2H   LINE      CODE     ---       #116
      010030F2H   LINE      CODE     ---       #117
      010030F2H   LINE      CODE     ---       #118
      ---         BLOCKEND  ---      ---       LVL=0

      01003CE2H   BLOCK     CODE     ---       LVL=0
      01003CE2H   LINE      CODE     ---       #121
      01003CE2H   LINE      CODE     ---       #122
      01003CE2H   LINE      CODE     ---       #123
      01003CE8H   LINE      CODE     ---       #124
      01003CF4H   LINE      CODE     ---       #125
      ---         BLOCKEND  ---      ---       LVL=0

      01001804H   BLOCK     CODE     ---       LVL=0
      01001804H   LINE      CODE     ---       #128
      01001804H   LINE      CODE     ---       #129
      01001804H   LINE      CODE     ---       #130
      01001810H   LINE      CODE     ---       #131
      01001810H   LINE      CODE     ---       #132
      01001815H   LINE      CODE     ---       #133
      0100181CH   LINE      CODE     ---       #134
      0100181CH   LINE      CODE     ---       #135
      01001828H   LINE      CODE     ---       #136
      01001828H   LINE      CODE     ---       #137
      01001833H   LINE      CODE     ---       #138
      01001846H   LINE      CODE     ---       #139
      0100184CH   LINE      CODE     ---       #140
      0100186AH   LINE      CODE     ---       #141
      01001875H   LINE      CODE     ---       #142
      01001884H   LINE      CODE     ---       #143
      0100188FH   LINE      CODE     ---       #144
      01001890H   LINE      CODE     ---       #145
      01001895H   LINE      CODE     ---       #146
      01001896H   LINE      CODE     ---       #148
      01001896H   LINE      CODE     ---       #149
      0100189BH   LINE      CODE     ---       #151
      0100189EH   LINE      CODE     ---       #152
      010018B0H   LINE      CODE     ---       #153
LX51 LINKER/LOCATER V4.66.97.0                                                        05/18/2025  17:01:21  PAGE 93


      010018BCH   LINE      CODE     ---       #154
      010018BCH   LINE      CODE     ---       #155
      010018D5H   LINE      CODE     ---       #156
      010018EEH   LINE      CODE     ---       #157
      010018F4H   LINE      CODE     ---       #158
      010018F4H   LINE      CODE     ---       #159
      ---         BLOCKEND  ---      ---       LVL=0

      ---         MODULE    ---      ---       SPECIALMODE
      00000023H.5 PUBLIC    BIT      BIT       IsDisplayLocked
      00000060H   PUBLIC    DATA     BYTE      SysMode
      01002904H   PUBLIC    CODE     ---       _SpecialModeOperation
      01003464H   PUBLIC    CODE     ---       DisplayTacModeEnabled
      01003944H   PUBLIC    CODE     ---       _LeaveSpecialMode
      01003313H   PUBLIC    CODE     ---       _EnterTurboStrobe
      01003595H   PUBLIC    CODE     ---       _PowerToNormalMode
      01003C92H   SYMBOL    CODE     ---       EnterExitLock
      02000051H   SYMBOL    XDATA    CHAR      ShowTacModeTIM
      01003D4FH   SYMBOL    CODE     ---       EnterExitTac

      01003991H   BLOCK     CODE     ---       LVL=0
      ---         BLOCKEND  ---      ---       LVL=0

      01003C92H   BLOCK     CODE     ---       LVL=0
      01003C92H   LINE      CODE     ---       #17
      01003C92H   LINE      CODE     ---       #18
      01003C92H   LINE      CODE     ---       #19
      01003C98H   LINE      CODE     ---       #20
      01003CA2H   LINE      CODE     ---       #21
      ---         BLOCKEND  ---      ---       LVL=0

      01003D4FH   BLOCK     CODE     ---       LVL=0
      01003D4FH   LINE      CODE     ---       #25
      01003D4FH   LINE      CODE     ---       #26
      01003D4FH   LINE      CODE     ---       #27
      01003D55H   LINE      CODE     ---       #28
      01003D5FH   LINE      CODE     ---       #29
      ---         BLOCKEND  ---      ---       LVL=0

      01003595H   BLOCK     CODE     ---       LVL=0
      00000027H   SYMBOL    DATA     BYTE      Mode
      01003595H   LINE      CODE     ---       #32
      01003597H   LINE      CODE     ---       #33
      01003597H   LINE      CODE     ---       #34
      010035ADH   LINE      CODE     ---       #35
      010035C1H   LINE      CODE     ---       #36
      010035C4H   LINE      CODE     ---       #38
      010035CEH   LINE      CODE     ---       #39
      ---         BLOCKEND  ---      ---       LVL=0

      01003313H   BLOCK     CODE     ---       LVL=0
      00000026H   SYMBOL    DATA     CHAR      ClickCount
      01003313H   LINE      CODE     ---       #42
      01003315H   LINE      CODE     ---       #43
      01003315H   LINE      CODE     ---       #45
      0100331DH   LINE      CODE     ---       #46
      0100331DH   LINE      CODE     ---       #47
      01003331H   LINE      CODE     ---       #48
      01003339H   LINE      CODE     ---       #49
      01003339H   LINE      CODE     ---       #51
      01003343H   LINE      CODE     ---       #52
      01003343H   LINE      CODE     ---       #53
      01003355H   LINE      CODE     ---       #54
      01003358H   LINE      CODE     ---       #55
      01003358H   LINE      CODE     ---       #56
LX51 LINKER/LOCATER V4.66.97.0                                                        05/18/2025  17:01:21  PAGE 94


      ---         BLOCKEND  ---      ---       LVL=0

      01003944H   BLOCK     CODE     ---       LVL=0
      00000025H   SYMBOL    DATA     CHAR      ClickCount
      01003944H   LINE      CODE     ---       #59
      01003946H   LINE      CODE     ---       #60
      01003946H   LINE      CODE     ---       #61
      01003956H   LINE      CODE     ---       #62
      0100396AH   LINE      CODE     ---       #63
      ---         BLOCKEND  ---      ---       LVL=0

      01003464H   BLOCK     CODE     ---       LVL=0
      01003464H   LINE      CODE     ---       #66
      01003464H   LINE      CODE     ---       #67
      01003464H   LINE      CODE     ---       #69
      0100347DH   LINE      CODE     ---       #71
      0100347DH   LINE      CODE     ---       #72
      01003483H   LINE      CODE     ---       #73
      01003497H   LINE      CODE     ---       #74
      0100349DH   LINE      CODE     ---       #75
      0100349DH   LINE      CODE     ---       #76
      010034A1H   LINE      CODE     ---       #77
      010034A3H   LINE      CODE     ---       #78
      010034A3H   LINE      CODE     ---       #79
      010034A3H   LINE      CODE     ---       #81
      010034A4H   LINE      CODE     ---       #82
      ---         BLOCKEND  ---      ---       LVL=0

      01002904H   BLOCK     CODE     ---       LVL=0
      00000025H   SYMBOL    DATA     CHAR      Click
      01002904H   LINE      CODE     ---       #85
      01002906H   LINE      CODE     ---       #86
      01002906H   LINE      CODE     ---       #88
      01002908H   LINE      CODE     ---       #90
      01002917H   LINE      CODE     ---       #91
      01002917H   LINE      CODE     ---       #93
      01002917H   LINE      CODE     ---       #94
      01002922H   LINE      CODE     ---       #95
      0100292DH   LINE      CODE     ---       #96
      0100292DH   LINE      CODE     ---       #98
      0100292DH   LINE      CODE     ---       #99
      01002938H   LINE      CODE     ---       #100
      01002940H   LINE      CODE     ---       #101
      01002948H   LINE      CODE     ---       #102
      01002949H   LINE      CODE     ---       #104
      01002949H   LINE      CODE     ---       #105
      01002949H   LINE      CODE     ---       #106
      01002954H   LINE      CODE     ---       #107
      0100295CH   LINE      CODE     ---       #108
      0100295CH   LINE      CODE     ---       #109
      01002962H   LINE      CODE     ---       #110
      01002962H   LINE      CODE     ---       #111
      01002965H   LINE      CODE     ---       #112
      01002968H   LINE      CODE     ---       #113
      0100296AH   LINE      CODE     ---       #115
      0100296AH   LINE      CODE     ---       #116
      0100296DH   LINE      CODE     ---       #117
      01002970H   LINE      CODE     ---       #118
      01002970H   LINE      CODE     ---       #119
      01002970H   LINE      CODE     ---       #120
      01002982H   LINE      CODE     ---       #121
      01002982H   LINE      CODE     ---       #122
      01002982H   LINE      CODE     ---       #123
      ---         BLOCKEND  ---      ---       LVL=0

LX51 LINKER/LOCATER V4.66.97.0                                                        05/18/2025  17:01:21  PAGE 95


      ---         MODULE    ---      ---       BEACON
      01003144H   PUBLIC    CODE     ---       BeaconFSM
      01003DFFH   PUBLIC    CODE     ---       BeaconFSM_TIMHandler
      01003D2CH   PUBLIC    CODE     ---       BeaconFSM_Reset
      02000044H   SYMBOL    XDATA    BYTE      State
      02000045H   SYMBOL    XDATA    CHAR      BeaconOffTIM
      02000046H   SYMBOL    XDATA    CHAR      BeaconOnTIM

      01003CF5H   BLOCK     CODE     ---       LVL=0
      ---         BLOCKEND  ---      ---       LVL=0

      01003D2CH   BLOCK     CODE     ---       LVL=0
      01003D2CH   LINE      CODE     ---       #9
      01003D2CH   LINE      CODE     ---       #10
      01003D2CH   LINE      CODE     ---       #11
      01003D32H   LINE      CODE     ---       #12
      01003D37H   LINE      CODE     ---       #13
      01003D3DH   LINE      CODE     ---       #14
      ---         BLOCKEND  ---      ---       LVL=0

      01003DFFH   BLOCK     CODE     ---       LVL=0
      01003DFFH   LINE      CODE     ---       #17
      01003DFFH   LINE      CODE     ---       #18
      01003DFFH   LINE      CODE     ---       #19
      01003E07H   LINE      CODE     ---       #20
      ---         BLOCKEND  ---      ---       LVL=0

      01003144H   BLOCK     CODE     ---       LVL=0
      01003144H   LINE      CODE     ---       #23
      01003144H   LINE      CODE     ---       #24
      01003144H   LINE      CODE     ---       #25
      01003155H   LINE      CODE     ---       #26
      01003155H   LINE      CODE     ---       #27
      01003155H   LINE      CODE     ---       #28
      0100315DH   LINE      CODE     ---       #34
      0100315DH   LINE      CODE     ---       #35
      01003163H   LINE      CODE     ---       #36
      01003169H   LINE      CODE     ---       #37
      0100316CH   LINE      CODE     ---       #39
      0100316CH   LINE      CODE     ---       #40
      01003172H   LINE      CODE     ---       #41
      0100317AH   LINE      CODE     ---       #43
      01003180H   LINE      CODE     ---       #44
      01003186H   LINE      CODE     ---       #45
      01003188H   LINE      CODE     ---       #47
      01003188H   LINE      CODE     ---       #48
      01003192H   LINE      CODE     ---       #49
      01003192H   LINE      CODE     ---       #50
      01003192H   LINE      CODE     ---       #52
      01003194H   LINE      CODE     ---       #53
      ---         BLOCKEND  ---      ---       LVL=0

      ---         MODULE    ---      ---       SYSCONFIG
      00000020H.2 PUBLIC    BIT      BIT       ?SaveSysConfig?BIT
      01001D6DH   PUBLIC    CODE     ---       SaveSysConfig
      010036A8H   PUBLIC    CODE     ---       RestoreToMinimumSysCurrent
      01002656H   PUBLIC    CODE     ---       ReadSysConfig
      000000C8H.0 SFRSYM    DATA     BIT       T2I0
      000000C3H   SFRSYM    DATA     BYTE      CCH1
      00000080H   SFRSYM    DATA     BYTE      P0
      000000C8H.1 SFRSYM    DATA     BIT       T2I1
      000000C5H   SFRSYM    DATA     BYTE      CCH2
      00000090H   SFRSYM    DATA     BYTE      P1
      000000C7H   SFRSYM    DATA     BYTE      CCH3
      000000ACH   SFRSYM    DATA     BYTE      P0EXTIE
LX51 LINKER/LOCATER V4.66.97.0                                                        05/18/2025  17:01:21  PAGE 96


      000000A0H   SFRSYM    DATA     BYTE      P2
      000000B4H   SFRSYM    DATA     BYTE      P0EXTIF
      000000B0H   SFRSYM    DATA     BYTE      P3
      000000ADH   SFRSYM    DATA     BYTE      P1EXTIE
      000000D0H.6 SFRSYM    DATA     BIT       AC
      000000FFH   SFRSYM    DATA     BYTE      MCTRL
      000000C2H   SFRSYM    DATA     BYTE      CCL1
      000000B5H   SFRSYM    DATA     BYTE      P1EXTIF
      000000AEH   SFRSYM    DATA     BYTE      P2EXTIE
      000000C4H   SFRSYM    DATA     BYTE      CCL2
      000000B6H   SFRSYM    DATA     BYTE      P2EXTIF
      000000AFH   SFRSYM    DATA     BYTE      P3EXTIE
      000000A8H.7 SFRSYM    DATA     BIT       EA
      000000C6H   SFRSYM    DATA     BYTE      CCL3
      000000B7H   SFRSYM    DATA     BYTE      P3EXTIF
      000000AAH   SFRSYM    DATA     BYTE      EIE2
      000000B2H   SFRSYM    DATA     BYTE      EIF2
      000000C8H.3 SFRSYM    DATA     BIT       T2R0
      000000C8H.4 SFRSYM    DATA     BIT       T2R1
      00000083H   SFRSYM    DATA     BYTE      DPH0
      000000A8H   SFRSYM    DATA     BYTE      IE
      00000085H   SFRSYM    DATA     BYTE      DPH1
      000000B9H   SFRSYM    DATA     BYTE      EIP1
      000000BAH   SFRSYM    DATA     BYTE      EIP2
      00000082H   SFRSYM    DATA     BYTE      DPL0
      00000084H   SFRSYM    DATA     BYTE      DPL1
      000000C8H.6 SFRSYM    DATA     BIT       I3FR
      000000CFH   SFRSYM    DATA     BYTE      T2IE
      00000096H   SFRSYM    DATA     BYTE      TA
      000000C9H   SFRSYM    DATA     BYTE      T2IF
      000000C8H.2 SFRSYM    DATA     BIT       T2CM
      000000DFH   SFRSYM    DATA     BYTE      ADCON0
      000000DEH   SFRSYM    DATA     BYTE      ADCON1
      000000E9H   SFRSYM    DATA     BYTE      ADCON2
      000000B8H   SFRSYM    DATA     BYTE      IP
      000000CEH   SFRSYM    DATA     BYTE      CCEN
      000000D0H.7 SFRSYM    DATA     BIT       CY
      000000D2H   SFRSYM    DATA     BYTE      T34MOD
      00000093H   SFRSYM    DATA     BYTE      DPX0
      00000095H   SFRSYM    DATA     BYTE      DPX1
      000000F4H   SFRSYM    DATA     BYTE      I2CMSA
      000000F5H   SFRSYM    DATA     BYTE      I2CMCR
      00000081H   SFRSYM    DATA     BYTE      SP
      000000D0H.2 SFRSYM    DATA     BIT       OV
      000000F2H   SFRSYM    DATA     BYTE      I2CSCR
      000000C8H.7 SFRSYM    DATA     BIT       T2PS
      000000D1H   SFRSYM    DATA     BYTE      ADCMPC
      000000CBH   SFRSYM    DATA     BYTE      RLDH
      000000D5H   SFRSYM    DATA     BYTE      ADCMPH
      000000CAH   SFRSYM    DATA     BYTE      RLDL
      00000080H.0 SFRSYM    DATA     BIT       P00
      00000090H.0 SFRSYM    DATA     BIT       P10
      00000080H.1 SFRSYM    DATA     BIT       P01
      000000F7H   SFRSYM    DATA     BYTE      I2CMTP
      00000099H   SFRSYM    DATA     BYTE      SBUF
      00000087H   SFRSYM    DATA     BYTE      PCON
      000000A0H.0 SFRSYM    DATA     BIT       P20
      00000090H.1 SFRSYM    DATA     BIT       P11
      00000080H.2 SFRSYM    DATA     BIT       P02
      000000F5H   SFRSYM    DATA     BYTE      I2CMSR
      000000B0H.0 SFRSYM    DATA     BIT       P30
      000000A0H.1 SFRSYM    DATA     BIT       P21
      00000090H.2 SFRSYM    DATA     BIT       P12
      00000080H.3 SFRSYM    DATA     BIT       P03
      000000D4H   SFRSYM    DATA     BYTE      ADCMPL
LX51 LINKER/LOCATER V4.66.97.0                                                        05/18/2025  17:01:21  PAGE 97


      000000B0H.1 SFRSYM    DATA     BIT       P31
      000000A0H.2 SFRSYM    DATA     BIT       P22
      00000090H.3 SFRSYM    DATA     BIT       P13
      00000080H.4 SFRSYM    DATA     BIT       P04
      000000B0H.2 SFRSYM    DATA     BIT       P32
      000000A0H.3 SFRSYM    DATA     BIT       P23
      00000090H.4 SFRSYM    DATA     BIT       P14
      00000080H.5 SFRSYM    DATA     BIT       P05
      00000089H   SFRSYM    DATA     BYTE      TMOD
      00000088H   SFRSYM    DATA     BYTE      TCON
      000000B0H.3 SFRSYM    DATA     BIT       P33
      000000A0H.4 SFRSYM    DATA     BIT       P24
      00000090H.5 SFRSYM    DATA     BIT       P15
      00000080H.6 SFRSYM    DATA     BIT       P06
      000000B0H.4 SFRSYM    DATA     BIT       P34
      000000A0H.5 SFRSYM    DATA     BIT       P25
      00000090H.6 SFRSYM    DATA     BIT       P16
      00000080H.7 SFRSYM    DATA     BIT       P07
      000000B0H.5 SFRSYM    DATA     BIT       P35
      000000A0H.6 SFRSYM    DATA     BIT       P26
      00000090H.7 SFRSYM    DATA     BIT       P17
      000000F2H   SFRSYM    DATA     BYTE      I2CSSR
      000000B0H.6 SFRSYM    DATA     BIT       P36
      000000A0H.7 SFRSYM    DATA     BIT       P27
      000000ECH   SFRSYM    DATA     BYTE      SPCR
      000000DDH   SFRSYM    DATA     BYTE      ADRESH
      000000B0H.7 SFRSYM    DATA     BIT       P37
      000000EEH   SFRSYM    DATA     BYTE      SPDR
      000000EFH   SFRSYM    DATA     BYTE      SSCR
      000000D3H   SFRSYM    DATA     BYTE      ADDLYL
      000000DCH   SFRSYM    DATA     BYTE      ADRESL
      00000088H.1 SFRSYM    DATA     BIT       IE0
      00000088H.3 SFRSYM    DATA     BIT       IE1
      0000008FH   SFRSYM    DATA     BYTE      CLKDIV
      000000F0H   SFRSYM    DATA     BYTE      B
      00000091H   SFRSYM    DATA     BYTE      FUNCCR
      0000009AH   SFRSYM    DATA     BYTE      P0TRIS
      000000A1H   SFRSYM    DATA     BYTE      P1TRIS
      000000A2H   SFRSYM    DATA     BYTE      P2TRIS
      000000E0H   SFRSYM    DATA     BYTE      ACC
      000000A3H   SFRSYM    DATA     BYTE      P3TRIS
      000000A8H.4 SFRSYM    DATA     BIT       ES0
      000000A8H.6 SFRSYM    DATA     BIT       ES1
      000000A8H.1 SFRSYM    DATA     BIT       ET0
      000000EDH   SFRSYM    DATA     BYTE      SPSR
      000000A8H.3 SFRSYM    DATA     BIT       ET1
      00000088H.5 SFRSYM    DATA     BIT       TF0
      000000A8H.5 SFRSYM    DATA     BIT       ET2
      00000098H.0 SFRSYM    DATA     BIT       RI0
      00000088H.7 SFRSYM    DATA     BIT       TF1
      0000008CH   SFRSYM    DATA     BYTE      TH0
      000000A8H.0 SFRSYM    DATA     BIT       EX0
      00000098H.1 SFRSYM    DATA     BIT       TI0
      00000088H.0 SFRSYM    DATA     BIT       IT0
      0000008DH   SFRSYM    DATA     BYTE      TH1
      000000A8H.2 SFRSYM    DATA     BIT       EX1
      00000088H.2 SFRSYM    DATA     BIT       IT1
      000000CDH   SFRSYM    DATA     BYTE      TH2
      000000D0H.0 SFRSYM    DATA     BIT       P
      000000DBH   SFRSYM    DATA     BYTE      TH3
      000000E3H   SFRSYM    DATA     BYTE      TH4
      0000008AH   SFRSYM    DATA     BYTE      TL0
      0000008BH   SFRSYM    DATA     BYTE      TL1
      00000098H.2 SFRSYM    DATA     BIT       U0RB8
      000000CCH   SFRSYM    DATA     BYTE      TL2
LX51 LINKER/LOCATER V4.66.97.0                                                        05/18/2025  17:01:21  PAGE 98


      000000B8H.4 SFRSYM    DATA     BIT       PS0
      000000DAH   SFRSYM    DATA     BYTE      TL3
      000000BFH   SFRSYM    DATA     BYTE      BUZCON
      000000B8H.6 SFRSYM    DATA     BIT       PS1
      000000B8H.1 SFRSYM    DATA     BIT       PT0
      00000098H.3 SFRSYM    DATA     BIT       U0TB8
      000000E2H   SFRSYM    DATA     BYTE      TL4
      000000D0H.3 SFRSYM    DATA     BIT       RS0
      000000B8H.3 SFRSYM    DATA     BIT       PT1
      000000D0H.4 SFRSYM    DATA     BIT       RS1
      000000B8H.5 SFRSYM    DATA     BIT       PT2
      00000098H.7 SFRSYM    DATA     BIT       U0SM0
      00000088H.4 SFRSYM    DATA     BIT       TR0
      000000BEH   SFRSYM    DATA     BYTE      BUZDIV
      00000098H.6 SFRSYM    DATA     BIT       U0SM1
      00000088H.6 SFRSYM    DATA     BIT       TR1
      000000B8H.0 SFRSYM    DATA     BIT       PX0
      00000098H.5 SFRSYM    DATA     BIT       U0SM2
      000000B8H.2 SFRSYM    DATA     BIT       PX1
      000000BDH   SFRSYM    DATA     BYTE      WUTCRH
      00000099H   SFRSYM    DATA     BYTE      SBUF0
      000000EBH   SFRSYM    DATA     BYTE      SBUF1
      000000BCH   SFRSYM    DATA     BYTE      WUTCRL
      00000098H   SFRSYM    DATA     BYTE      SCON0
      000000EAH   SFRSYM    DATA     BYTE      SCON1
      000000C8H   SFRSYM    DATA     BYTE      T2CON
      00000086H   SFRSYM    DATA     BYTE      DPS
      000000FEH   SFRSYM    DATA     BYTE      MDATA
      000000F6H   SFRSYM    DATA     BYTE      I2CMBUF
      000000F1H   SFRSYM    DATA     BYTE      I2CSADR
      00000098H.4 SFRSYM    DATA     BIT       U0REN
      000000C8H.5 SFRSYM    DATA     BIT       CAPES
      000000FDH   SFRSYM    DATA     BYTE      MADRH
      0000008EH   SFRSYM    DATA     BYTE      CKCON
      000000F3H   SFRSYM    DATA     BYTE      I2CSBUF
      000000FCH   SFRSYM    DATA     BYTE      MADRL
      000000D0H.5 SFRSYM    DATA     BIT       F0
      000000FBH   SFRSYM    DATA     BYTE      MLOCK
      000000D0H   SFRSYM    DATA     BYTE      PSW
      00000097H   SFRSYM    DATA     BYTE      WDCON
      02000047H   SYMBOL    XDATA    INT       CurrentIdx
      02000049H   SYMBOL    XDATA    BYTE      CurrentCRC
      0100370EH   SYMBOL    CODE     ---       _PEC8Check
      010022D5H   SYMBOL    CODE     ---       _SearchSysConfig

      010039FFH   BLOCK     CODE     ---       LVL=0
      ---         BLOCKEND  ---      ---       LVL=0

      0100370EH   BLOCK     CODE     ---       LVL=0
      00000031H   SYMBOL    DATA     ---       DIN
      00000005H   SYMBOL    DATA     CHAR      Len
      01003714H   BLOCK     CODE     NEAR LAB  LVL=1
      00000007H   SYMBOL    DATA     BYTE      crcbuf
      00000006H   SYMBOL    DATA     CHAR      i
      ---         BLOCKEND  ---      ---       LVL=1
      0100370EH   LINE      CODE     ---       #16
      01003714H   LINE      CODE     ---       #17
      01003714H   LINE      CODE     ---       #18
      01003716H   LINE      CODE     ---       #21
      01003716H   LINE      CODE     ---       #23
      01003729H   LINE      CODE     ---       #25
      0100372BH   LINE      CODE     ---       #26
      0100372BH   LINE      CODE     ---       #27
      01003736H   LINE      CODE     ---       #28
      0100373AH   LINE      CODE     ---       #29
LX51 LINKER/LOCATER V4.66.97.0                                                        05/18/2025  17:01:21  PAGE 99


      0100373CH   LINE      CODE     ---       #30
      0100373CH   LINE      CODE     ---       #31
      0100373EH   LINE      CODE     ---       #33
      0100373EH   LINE      CODE     ---       #34
      ---         BLOCKEND  ---      ---       LVL=0

      010022D5H   BLOCK     CODE     ---       LVL=0
      0000002AH   SYMBOL    DATA     ---       ROMData
      010022DBH   BLOCK     CODE     NEAR LAB  LVL=1
      0000002DH   SYMBOL    DATA     CHAR      i
      0000002EH   SYMBOL    DATA     INT       Len
      ---         BLOCKEND  ---      ---       LVL=1
      010022D5H   LINE      CODE     ---       #37
      010022DBH   LINE      CODE     ---       #38
      010022DBH   LINE      CODE     ---       #40
      010022E0H   LINE      CODE     ---       #42
      010022E5H   LINE      CODE     ---       #44
      010022E5H   LINE      CODE     ---       #45
      010022F2H   LINE      CODE     ---       #46
      0100230CH   LINE      CODE     ---       #47
      01002314H   LINE      CODE     ---       #48
      01002314H   LINE      CODE     ---       #49
      0100231FH   LINE      CODE     ---       #51
      01002334H   LINE      CODE     ---       #52
      01002341H   LINE      CODE     ---       #54
      01002345H   LINE      CODE     ---       #55
      ---         BLOCKEND  ---      ---       LVL=0

      01002656H   BLOCK     CODE     ---       LVL=0
      01002656H   BLOCK     CODE     NEAR LAB  LVL=1
      00000024H   SYMBOL    DATA     ---       ROMData
      00000020H.1 SYMBOL    BIT      BIT       KState
      ---         BLOCKEND  ---      ---       LVL=1
      01002656H   LINE      CODE     ---       #58
      01002656H   LINE      CODE     ---       #59
      01002656H   LINE      CODE     ---       #62
      0100265BH   LINE      CODE     ---       #64
      0100266CH   LINE      CODE     ---       #66
      0100267FH   LINE      CODE     ---       #67
      0100267FH   LINE      CODE     ---       #69
      01002689H   LINE      CODE     ---       #70
      0100268CH   LINE      CODE     ---       #71
      01002692H   LINE      CODE     ---       #72
      0100269AH   LINE      CODE     ---       #74
      010026A0H   LINE      CODE     ---       #75
      010026AEH   LINE      CODE     ---       #76
      010026B0H   LINE      CODE     ---       #79
      010026B0H   LINE      CODE     ---       #80
      010026B3H   LINE      CODE     ---       #81
      010026B6H   LINE      CODE     ---       #82
      010026B9H   LINE      CODE     ---       #83
      010026BBH   LINE      CODE     ---       #84
      010026C0H   LINE      CODE     ---       #86
      010026C3H   LINE      CODE     ---       #87
      010026C3H   LINE      CODE     ---       #88
      010026C8H   LINE      CODE     ---       #89
      010026C8H   LINE      CODE     ---       #90
      010026CAH   LINE      CODE     ---       #91
      010026CFH   LINE      CODE     ---       #92
      010026D6H   LINE      CODE     ---       #93
      010026D8H   LINE      CODE     ---       #95
      010026DFH   LINE      CODE     ---       #96
      010026DFH   LINE      CODE     ---       #97
      010026DFH   LINE      CODE     ---       #99
      ---         BLOCKEND  ---      ---       LVL=0
LX51 LINKER/LOCATER V4.66.97.0                                                        05/18/2025  17:01:21  PAGE 100



      010036A8H   BLOCK     CODE     ---       LVL=0
      010036A8H   BLOCK     CODE     NEAR LAB  LVL=1
      00000007H   SYMBOL    DATA     CHAR      i
      ---         BLOCKEND  ---      ---       LVL=1
      010036A8H   LINE      CODE     ---       #103
      010036A8H   LINE      CODE     ---       #104
      010036A8H   LINE      CODE     ---       #107
      010036C5H   LINE      CODE     ---       #108
      010036DAH   LINE      CODE     ---       #109
      ---         BLOCKEND  ---      ---       LVL=0

      01001D6DH   BLOCK     CODE     ---       LVL=0
      00000020H.2 SYMBOL    BIT      BIT       IsForceSave
      01001D6DH   BLOCK     CODE     NEAR LAB  LVL=1
      0000002AH   SYMBOL    DATA     CHAR      i
      0000002BH   SYMBOL    DATA     ---       SavedData
      ---         BLOCKEND  ---      ---       LVL=1
      01001D6DH   LINE      CODE     ---       #112
      01001D6DH   LINE      CODE     ---       #113
      01001D6DH   LINE      CODE     ---       #117
      01001D72H   LINE      CODE     ---       #119
      01001D7EH   LINE      CODE     ---       #120
      01001D81H   LINE      CODE     ---       #121
      01001D87H   LINE      CODE     ---       #122
      01001D90H   LINE      CODE     ---       #123
      01001D9DH   LINE      CODE     ---       #125
      01001DA7H   LINE      CODE     ---       #126
      01001DA7H   LINE      CODE     ---       #127
      01001DA9H   LINE      CODE     ---       #129
      01001DA9H   LINE      CODE     ---       #131
      01001DBDH   LINE      CODE     ---       #132
      01001DBDH   LINE      CODE     ---       #134
      01001DCCH   LINE      CODE     ---       #135
      01001DDAH   LINE      CODE     ---       #137
      01001DE1H   LINE      CODE     ---       #138
      01001DE1H   LINE      CODE     ---       #140
      01001E11H   LINE      CODE     ---       #141
      01001E1FH   LINE      CODE     ---       #142
      01001E25H   LINE      CODE     ---       #143
      01001E2AH   LINE      CODE     ---       #144
      ---         BLOCKEND  ---      ---       LVL=0

      ---         MODULE    ---      ---       LOCATELED
      0200004DH   PUBLIC    XDATA    BYTE      LocLEDState
      01002A78H   PUBLIC    CODE     ---       _LocateLED_Edit
      0100355AH   PUBLIC    CODE     ---       LocateLED_Enable
      0100363DH   PUBLIC    CODE     ---       LocateLED_ShowType
      010039B6H   PUBLIC    CODE     ---       LocateLED_TIMHandler
      000000C8H.0 SFRSYM    DATA     BIT       T2I0
      000000C3H   SFRSYM    DATA     BYTE      CCH1
      00000080H   SFRSYM    DATA     BYTE      P0
      000000C8H.1 SFRSYM    DATA     BIT       T2I1
      000000C5H   SFRSYM    DATA     BYTE      CCH2
      00000090H   SFRSYM    DATA     BYTE      P1
      000000C7H   SFRSYM    DATA     BYTE      CCH3
      000000ACH   SFRSYM    DATA     BYTE      P0EXTIE
      000000A0H   SFRSYM    DATA     BYTE      P2
      000000B4H   SFRSYM    DATA     BYTE      P0EXTIF
      000000B0H   SFRSYM    DATA     BYTE      P3
      000000ADH   SFRSYM    DATA     BYTE      P1EXTIE
      000000D0H.6 SFRSYM    DATA     BIT       AC
      000000FFH   SFRSYM    DATA     BYTE      MCTRL
      000000C2H   SFRSYM    DATA     BYTE      CCL1
      000000B5H   SFRSYM    DATA     BYTE      P1EXTIF
LX51 LINKER/LOCATER V4.66.97.0                                                        05/18/2025  17:01:21  PAGE 101


      000000AEH   SFRSYM    DATA     BYTE      P2EXTIE
      000000C4H   SFRSYM    DATA     BYTE      CCL2
      000000B6H   SFRSYM    DATA     BYTE      P2EXTIF
      000000AFH   SFRSYM    DATA     BYTE      P3EXTIE
      000000A8H.7 SFRSYM    DATA     BIT       EA
      000000C6H   SFRSYM    DATA     BYTE      CCL3
      000000B7H   SFRSYM    DATA     BYTE      P3EXTIF
      000000AAH   SFRSYM    DATA     BYTE      EIE2
      000000B2H   SFRSYM    DATA     BYTE      EIF2
      000000C8H.3 SFRSYM    DATA     BIT       T2R0
      000000C8H.4 SFRSYM    DATA     BIT       T2R1
      00000083H   SFRSYM    DATA     BYTE      DPH0
      000000A8H   SFRSYM    DATA     BYTE      IE
      00000085H   SFRSYM    DATA     BYTE      DPH1
      000000B9H   SFRSYM    DATA     BYTE      EIP1
      000000BAH   SFRSYM    DATA     BYTE      EIP2
      00000082H   SFRSYM    DATA     BYTE      DPL0
      00000084H   SFRSYM    DATA     BYTE      DPL1
      000000C8H.6 SFRSYM    DATA     BIT       I3FR
      000000CFH   SFRSYM    DATA     BYTE      T2IE
      00000096H   SFRSYM    DATA     BYTE      TA
      000000C9H   SFRSYM    DATA     BYTE      T2IF
      000000C8H.2 SFRSYM    DATA     BIT       T2CM
      000000DFH   SFRSYM    DATA     BYTE      ADCON0
      000000DEH   SFRSYM    DATA     BYTE      ADCON1
      000000E9H   SFRSYM    DATA     BYTE      ADCON2
      000000B8H   SFRSYM    DATA     BYTE      IP
      000000CEH   SFRSYM    DATA     BYTE      CCEN
      000000D0H.7 SFRSYM    DATA     BIT       CY
      000000D2H   SFRSYM    DATA     BYTE      T34MOD
      00000093H   SFRSYM    DATA     BYTE      DPX0
      00000095H   SFRSYM    DATA     BYTE      DPX1
      000000F4H   SFRSYM    DATA     BYTE      I2CMSA
      000000F5H   SFRSYM    DATA     BYTE      I2CMCR
      00000081H   SFRSYM    DATA     BYTE      SP
      000000D0H.2 SFRSYM    DATA     BIT       OV
      000000F2H   SFRSYM    DATA     BYTE      I2CSCR
      000000C8H.7 SFRSYM    DATA     BIT       T2PS
      000000D1H   SFRSYM    DATA     BYTE      ADCMPC
      000000CBH   SFRSYM    DATA     BYTE      RLDH
      000000D5H   SFRSYM    DATA     BYTE      ADCMPH
      000000CAH   SFRSYM    DATA     BYTE      RLDL
      00000080H.0 SFRSYM    DATA     BIT       P00
      00000090H.0 SFRSYM    DATA     BIT       P10
      00000080H.1 SFRSYM    DATA     BIT       P01
      000000F7H   SFRSYM    DATA     BYTE      I2CMTP
      00000099H   SFRSYM    DATA     BYTE      SBUF
      00000087H   SFRSYM    DATA     BYTE      PCON
      000000A0H.0 SFRSYM    DATA     BIT       P20
      00000090H.1 SFRSYM    DATA     BIT       P11
      00000080H.2 SFRSYM    DATA     BIT       P02
      000000F5H   SFRSYM    DATA     BYTE      I2CMSR
      000000B0H.0 SFRSYM    DATA     BIT       P30
      000000A0H.1 SFRSYM    DATA     BIT       P21
      00000090H.2 SFRSYM    DATA     BIT       P12
      00000080H.3 SFRSYM    DATA     BIT       P03
      000000D4H   SFRSYM    DATA     BYTE      ADCMPL
      000000B0H.1 SFRSYM    DATA     BIT       P31
      000000A0H.2 SFRSYM    DATA     BIT       P22
      00000090H.3 SFRSYM    DATA     BIT       P13
      00000080H.4 SFRSYM    DATA     BIT       P04
      000000B0H.2 SFRSYM    DATA     BIT       P32
      000000A0H.3 SFRSYM    DATA     BIT       P23
      00000090H.4 SFRSYM    DATA     BIT       P14
      00000080H.5 SFRSYM    DATA     BIT       P05
LX51 LINKER/LOCATER V4.66.97.0                                                        05/18/2025  17:01:21  PAGE 102


      00000089H   SFRSYM    DATA     BYTE      TMOD
      00000088H   SFRSYM    DATA     BYTE      TCON
      000000B0H.3 SFRSYM    DATA     BIT       P33
      000000A0H.4 SFRSYM    DATA     BIT       P24
      00000090H.5 SFRSYM    DATA     BIT       P15
      00000080H.6 SFRSYM    DATA     BIT       P06
      000000B0H.4 SFRSYM    DATA     BIT       P34
      000000A0H.5 SFRSYM    DATA     BIT       P25
      00000090H.6 SFRSYM    DATA     BIT       P16
      00000080H.7 SFRSYM    DATA     BIT       P07
      000000B0H.5 SFRSYM    DATA     BIT       P35
      000000A0H.6 SFRSYM    DATA     BIT       P26
      00000090H.7 SFRSYM    DATA     BIT       P17
      000000F2H   SFRSYM    DATA     BYTE      I2CSSR
      000000B0H.6 SFRSYM    DATA     BIT       P36
      000000A0H.7 SFRSYM    DATA     BIT       P27
      000000ECH   SFRSYM    DATA     BYTE      SPCR
      000000DDH   SFRSYM    DATA     BYTE      ADRESH
      000000B0H.7 SFRSYM    DATA     BIT       P37
      000000EEH   SFRSYM    DATA     BYTE      SPDR
      000000EFH   SFRSYM    DATA     BYTE      SSCR
      000000D3H   SFRSYM    DATA     BYTE      ADDLYL
      000000DCH   SFRSYM    DATA     BYTE      ADRESL
      00000088H.1 SFRSYM    DATA     BIT       IE0
      00000088H.3 SFRSYM    DATA     BIT       IE1
      0000008FH   SFRSYM    DATA     BYTE      CLKDIV
      000000F0H   SFRSYM    DATA     BYTE      B
      00000091H   SFRSYM    DATA     BYTE      FUNCCR
      0000009AH   SFRSYM    DATA     BYTE      P0TRIS
      000000A1H   SFRSYM    DATA     BYTE      P1TRIS
      000000A2H   SFRSYM    DATA     BYTE      P2TRIS
      000000E0H   SFRSYM    DATA     BYTE      ACC
      000000A3H   SFRSYM    DATA     BYTE      P3TRIS
      000000A8H.4 SFRSYM    DATA     BIT       ES0
      000000A8H.6 SFRSYM    DATA     BIT       ES1
      000000A8H.1 SFRSYM    DATA     BIT       ET0
      000000EDH   SFRSYM    DATA     BYTE      SPSR
      000000A8H.3 SFRSYM    DATA     BIT       ET1
      00000088H.5 SFRSYM    DATA     BIT       TF0
      000000A8H.5 SFRSYM    DATA     BIT       ET2
      00000098H.0 SFRSYM    DATA     BIT       RI0
      00000088H.7 SFRSYM    DATA     BIT       TF1
      0000008CH   SFRSYM    DATA     BYTE      TH0
      000000A8H.0 SFRSYM    DATA     BIT       EX0
      00000098H.1 SFRSYM    DATA     BIT       TI0
      00000088H.0 SFRSYM    DATA     BIT       IT0
      0000008DH   SFRSYM    DATA     BYTE      TH1
      000000A8H.2 SFRSYM    DATA     BIT       EX1
      00000088H.2 SFRSYM    DATA     BIT       IT1
      000000CDH   SFRSYM    DATA     BYTE      TH2
      000000D0H.0 SFRSYM    DATA     BIT       P
      000000DBH   SFRSYM    DATA     BYTE      TH3
      000000E3H   SFRSYM    DATA     BYTE      TH4
      0000008AH   SFRSYM    DATA     BYTE      TL0
      0000008BH   SFRSYM    DATA     BYTE      TL1
      00000098H.2 SFRSYM    DATA     BIT       U0RB8
      000000CCH   SFRSYM    DATA     BYTE      TL2
      000000B8H.4 SFRSYM    DATA     BIT       PS0
      000000DAH   SFRSYM    DATA     BYTE      TL3
      000000BFH   SFRSYM    DATA     BYTE      BUZCON
      000000B8H.6 SFRSYM    DATA     BIT       PS1
      000000B8H.1 SFRSYM    DATA     BIT       PT0
      00000098H.3 SFRSYM    DATA     BIT       U0TB8
      000000E2H   SFRSYM    DATA     BYTE      TL4
      000000D0H.3 SFRSYM    DATA     BIT       RS0
LX51 LINKER/LOCATER V4.66.97.0                                                        05/18/2025  17:01:21  PAGE 103


      000000B8H.3 SFRSYM    DATA     BIT       PT1
      000000D0H.4 SFRSYM    DATA     BIT       RS1
      000000B8H.5 SFRSYM    DATA     BIT       PT2
      00000098H.7 SFRSYM    DATA     BIT       U0SM0
      00000088H.4 SFRSYM    DATA     BIT       TR0
      000000BEH   SFRSYM    DATA     BYTE      BUZDIV
      00000098H.6 SFRSYM    DATA     BIT       U0SM1
      00000088H.6 SFRSYM    DATA     BIT       TR1
      000000B8H.0 SFRSYM    DATA     BIT       PX0
      00000098H.5 SFRSYM    DATA     BIT       U0SM2
      000000B8H.2 SFRSYM    DATA     BIT       PX1
      000000BDH   SFRSYM    DATA     BYTE      WUTCRH
      00000099H   SFRSYM    DATA     BYTE      SBUF0
      000000EBH   SFRSYM    DATA     BYTE      SBUF1
      000000BCH   SFRSYM    DATA     BYTE      WUTCRL
      00000098H   SFRSYM    DATA     BYTE      SCON0
      000000EAH   SFRSYM    DATA     BYTE      SCON1
      000000C8H   SFRSYM    DATA     BYTE      T2CON
      00000086H   SFRSYM    DATA     BYTE      DPS
      000000FEH   SFRSYM    DATA     BYTE      MDATA
      000000F6H   SFRSYM    DATA     BYTE      I2CMBUF
      000000F1H   SFRSYM    DATA     BYTE      I2CSADR
      00000098H.4 SFRSYM    DATA     BIT       U0REN
      000000C8H.5 SFRSYM    DATA     BIT       CAPES
      000000FDH   SFRSYM    DATA     BYTE      MADRH
      0000008EH   SFRSYM    DATA     BYTE      CKCON
      000000F3H   SFRSYM    DATA     BYTE      I2CSBUF
      000000FCH   SFRSYM    DATA     BYTE      MADRL
      000000D0H.5 SFRSYM    DATA     BIT       F0
      000000FBH   SFRSYM    DATA     BYTE      MLOCK
      000000D0H   SFRSYM    DATA     BYTE      PSW
      00000097H   SFRSYM    DATA     BYTE      WDCON
      00000061H   SYMBOL    DATA     BYTE      LocSetTimeOutTIM
      0200004CH   SYMBOL    XDATA    CHAR      LocLEDTIM

      010039B6H   BLOCK     CODE     ---       LVL=0
      010039B6H   LINE      CODE     ---       #20
      010039B6H   LINE      CODE     ---       #21
      010039B6H   LINE      CODE     ---       #22
      010039CDH   LINE      CODE     ---       #23
      010039DAH   LINE      CODE     ---       #24
      ---         BLOCKEND  ---      ---       LVL=0

      0100363DH   BLOCK     CODE     ---       LVL=0
      0100363DH   LINE      CODE     ---       #27
      0100363DH   LINE      CODE     ---       #28
      0100363DH   LINE      CODE     ---       #29
      01003645H   LINE      CODE     ---       #31
      01003654H   LINE      CODE     ---       #32
      01003654H   LINE      CODE     ---       #33
      01003654H   LINE      CODE     ---       #34
      0100365AH   LINE      CODE     ---       #35
      0100365AH   LINE      CODE     ---       #36
      0100365FH   LINE      CODE     ---       #37
      01003665H   LINE      CODE     ---       #38
      01003665H   LINE      CODE     ---       #39
      01003667H   LINE      CODE     ---       #40
      0100366AH   LINE      CODE     ---       #41
      0100366DH   LINE      CODE     ---       #42
      01003670H   LINE      CODE     ---       #43
      01003670H   LINE      CODE     ---       #45
      01003672H   LINE      CODE     ---       #46
      ---         BLOCKEND  ---      ---       LVL=0

      0100355AH   BLOCK     CODE     ---       LVL=0
LX51 LINKER/LOCATER V4.66.97.0                                                        05/18/2025  17:01:21  PAGE 104


      0100355AH   BLOCK     CODE     NEAR LAB  LVL=1
      00000024H   SYMBOL    DATA     ---       LEDInitCfg
      ---         BLOCKEND  ---      ---       LVL=1
      0100355AH   LINE      CODE     ---       #49
      0100355AH   LINE      CODE     ---       #50
      0100355AH   LINE      CODE     ---       #53
      0100355DH   LINE      CODE     ---       #54
      01003560H   LINE      CODE     ---       #55
      01003563H   LINE      CODE     ---       #57
      0100356DH   LINE      CODE     ---       #58
      01003576H   LINE      CODE     ---       #60
      01003580H   LINE      CODE     ---       #61
      01003589H   LINE      CODE     ---       #62
      ---         BLOCKEND  ---      ---       LVL=0

      01002A78H   BLOCK     CODE     ---       LVL=0
      00000007H   SYMBOL    DATA     CHAR      ClickCount
      01002A78H   LINE      CODE     ---       #65
      01002A78H   LINE      CODE     ---       #66
      01002A78H   LINE      CODE     ---       #67
      01002A86H   LINE      CODE     ---       #68
      01002A86H   LINE      CODE     ---       #70
      01002A86H   LINE      CODE     ---       #72
      01002A95H   LINE      CODE     ---       #73
      01002A9AH   LINE      CODE     ---       #74
      01002A9DH   LINE      CODE     ---       #75
      01002AA0H   LINE      CODE     ---       #76
      01002AA2H   LINE      CODE     ---       #78
      01002AA2H   LINE      CODE     ---       #79
      01002ABAH   LINE      CODE     ---       #80
      01002ABEH   LINE      CODE     ---       #81
      01002ABEH   LINE      CODE     ---       #83
      01002AC2H   LINE      CODE     ---       #84
      01002AC5H   LINE      CODE     ---       #85
      01002AC5H   LINE      CODE     ---       #86
      01002ACAH   LINE      CODE     ---       #87
      01002AD0H   LINE      CODE     ---       #88
      01002AD6H   LINE      CODE     ---       #89
      01002ADBH   LINE      CODE     ---       #90
      01002ADDH   LINE      CODE     ---       #92
      01002ADDH   LINE      CODE     ---       #93
      01002AE2H   LINE      CODE     ---       #94
      01002AE5H   LINE      CODE     ---       #95
      01002AEAH   LINE      CODE     ---       #96
      01002AEAH   LINE      CODE     ---       #97
      01002AEAH   LINE      CODE     ---       #99
      01002AECH   LINE      CODE     ---       #100
      ---         BLOCKEND  ---      ---       LVL=0

      ---         MODULE    ---      ---       STROBE
      01003E08H   PUBLIC    CODE     ---       StrobeOutputHandler
      010036DBH   PUBLIC    CODE     ---       RandStrobeHandler
      01003DDAH   PUBLIC    CODE     ---       ResetStrobeModule
      00000023H.6 SYMBOL    BIT      BIT       StrobeFlagSel
      01003FEBH   SYMBOL    CONST    ---       StrobeSeq
      0200004EH   SYMBOL    XDATA    CHAR      StrobeSelIdx
      0200004FH   SYMBOL    XDATA    CHAR      StrobeCounter

      01003DDAH   BLOCK     CODE     ---       LVL=0
      01003DDAH   LINE      CODE     ---       #17
      01003DDAH   LINE      CODE     ---       #18
      01003DDAH   LINE      CODE     ---       #19
      01003DDCH   LINE      CODE     ---       #20
      01003DE1H   LINE      CODE     ---       #21
      01003DE3H   LINE      CODE     ---       #22
LX51 LINKER/LOCATER V4.66.97.0                                                        05/18/2025  17:01:21  PAGE 105


      ---         BLOCKEND  ---      ---       LVL=0

      010036DBH   BLOCK     CODE     ---       LVL=0
      010036DBH   LINE      CODE     ---       #25
      010036DBH   LINE      CODE     ---       #26
      010036DBH   LINE      CODE     ---       #27
      010036E4H   LINE      CODE     ---       #29
      010036E4H   LINE      CODE     ---       #31
      010036FEH   LINE      CODE     ---       #32
      0100370BH   LINE      CODE     ---       #34
      0100370DH   LINE      CODE     ---       #35
      0100370DH   LINE      CODE     ---       #36
      ---         BLOCKEND  ---      ---       LVL=0

      01003E08H   BLOCK     CODE     ---       LVL=0
      01003E08H   LINE      CODE     ---       #39
      01003E08H   LINE      CODE     ---       #40
      01003E08H   LINE      CODE     ---       #42
      01003E10H   LINE      CODE     ---       #43
      ---         BLOCKEND  ---      ---       LVL=0

      ---         MODULE    ---      ---       ?C?FPADD
      01000045H   PUBLIC    CODE     ---       ?C?FPADD
      01000041H   PUBLIC    CODE     ---       ?C?FPSUB

      ---         MODULE    ---      ---       ?C?FPMUL
      01000136H   PUBLIC    CODE     ---       ?C?FPMUL

      ---         MODULE    ---      ---       ?C?FPDIV
      0100023FH   PUBLIC    CODE     ---       ?C?FPDIV

      ---         MODULE    ---      ---       ?C?FPCMP
      010002DEH   PUBLIC    CODE     ---       ?C?FPCMP
      010002DCH   PUBLIC    CODE     ---       ?C?FPCMP3

      ---         MODULE    ---      ---       ?C?FCAST
      0100035FH   PUBLIC    CODE     ---       ?C?FCASTC
      0100035AH   PUBLIC    CODE     ---       ?C?FCASTI
      01000355H   PUBLIC    CODE     ---       ?C?FCASTL

      ---         MODULE    ---      ---       ?C?CASTF
      01000393H   PUBLIC    CODE     ---       ?C?CASTF

      ---         MODULE    ---      ---       ?C?FPGETOPN
      010003CAH   PUBLIC    CODE     ---       ?C?FPGETOPN2
      010003FFH   PUBLIC    CODE     ---       ?C?FPNANRESULT
      01000409H   PUBLIC    CODE     ---       ?C?FPOVERFLOW
      010003E1H   PUBLIC    CODE     ---       ?C?FPRESULT
      010003F5H   PUBLIC    CODE     ---       ?C?FPRESULT2
      01000406H   PUBLIC    CODE     ---       ?C?FPUNDERFLOW

      ---         MODULE    ---      ---       ?C_INIT
      010023C5H   PUBLIC    CODE     ---       ?C_START

      ---         MODULE    ---      ---       ?C?SCDIV
      01000414H   PUBLIC    CODE     ---       ?C?SCDIV

      ---         MODULE    ---      ---       ?C?CLDPTR
      01000436H   PUBLIC    CODE     ---       ?C?CLDPTR

      ---         MODULE    ---      ---       ?C?CLDOPTR
      0100044FH   PUBLIC    CODE     ---       ?C?CLDOPTR

      ---         MODULE    ---      ---       ?C?CSTPTR
      0100047CH   PUBLIC    CODE     ---       ?C?CSTPTR
LX51 LINKER/LOCATER V4.66.97.0                                                        05/18/2025  17:01:21  PAGE 106



      ---         MODULE    ---      ---       ?C?IMUL
      0100048EH   PUBLIC    CODE     ---       ?C?IMUL

      ---         MODULE    ---      ---       ?C?SIDIV
      010004A0H   PUBLIC    CODE     ---       ?C?SIDIV

      ---         MODULE    ---      ---       ?C?ILDOPTR
      010004D6H   PUBLIC    CODE     ---       ?C?ILDOPTR

      ---         MODULE    ---      ---       ?C?ISTPTR
      0100050EH   PUBLIC    CODE     ---       ?C?ISTPTR

      ---         MODULE    ---      ---       ?C?LMUL
      0100052DH   PUBLIC    CODE     ---       ?C?LMUL

      ---         MODULE    ---      ---       ?C?ULDIV
      010005B8H   PUBLIC    CODE     ---       ?C?ULDIV

      ---         MODULE    ---      ---       ?C?SLDIV
      01003359H   PUBLIC    CODE     ---       ?C?SLDIV

      ---         MODULE    ---      ---       ?C?LNEG
      0100064AH   PUBLIC    CODE     ---       ?C?LNEG

      ---         MODULE    ---      ---       ?C?SLCMP
      01000658H   PUBLIC    CODE     ---       ?C?SLCMP

      ---         MODULE    ---      ---       ?C?ULCMP
      0100066EH   PUBLIC    CODE     ---       ?C?ULCMP

      ---         MODULE    ---      ---       ?C?ULSHR
      0100067FH   PUBLIC    CODE     ---       ?C?ULSHR

      ---         MODULE    ---      ---       ?C?LLDCODE
      01000692H   PUBLIC    CODE     ---       ?C?LLDCODE

      ---         MODULE    ---      ---       ?C?LSTXDATA
      010006A2H   PUBLIC    CODE     ---       ?C?LSTXDATA

      ---         MODULE    ---      ---       ?C?LSTKXDATA
      010006AEH   PUBLIC    CODE     ---       ?C?LSTKXDATA

      ---         MODULE    ---      ---       ?C?OFFXADD
      010006DFH   PUBLIC    CODE     ---       ?C?OFFXADD

      ---         MODULE    ---      ---       ?C?UIDIV
      010006EBH   PUBLIC    CODE     ---       ?C?UIDIV

Program Size: data=98.7 xdata=82 const=476 code=15901
LX51 RUN COMPLETE.  0 WARNING(S),  0 ERROR(S)
