LX51 LINKER/LOCATER V4.66.97.0                                                          05/01/2025  09:54:43  PAGE 1


LX51 LINKER/LOCATER V4.66.97.0, INVOKED BY:
C:\KEIL_V5\C51\BIN\LX51.EXE .\Objects\STARTUP_CMS8S6990.obj, .\Objects\main.obj, .\Objects\gpio.obj, .\Objects\ADCCfg.ob
>> j, .\Objects\delay.obj, .\Objects\NTC.obj, .\Objects\SideKey.obj, .\Objects\LEDMgmt.obj, .\Objects\PWM.obj, .\Objects
>> \OutputChannel.obj, .\Objects\Flash.obj, .\Objects\SysReset.obj, .\Objects\BattVoltDisplay.obj, .\Objects\TempControl
>> .obj, .\Objects\Sleep.obj, .\Objects\ModeControl.obj, .\Objects\SelfTest.obj, .\Objects\SOS.obj, .\Objects\LowVoltage
>> Prot.obj, .\Objects\SpecialMode.obj, .\Objects\Beacon.obj, .\Objects\SysConfig.obj, .\Objects\LocateLED.obj, .\Object
>> s\Strobe.obj TO .\Objects\XTRBoost PRINT (.\Listings\XTRBoost.map) CLASSES (XDATA (X:0X0-X:0X3FF), HDATA (X:0X0-X:0X3
>> FF), CODE (C:0X0-C:0X3FFF), CONST (C:0X0-C:0X3FFF), ECODE (C:0X0-C:0X3FFF), HCONST (C:0X0-C:0X3FFF))


CPU MODE:     8051 MODE
MEMORY MODEL: SMALL WITH FLOATING POINT ARITHMETIC


INPUT MODULES INCLUDED:
  .\Objects\STARTUP_CMS8S6990.obj (?C_STARTUP)
         COMMENT TYPE 0: AX51 V3.15.3.0
  .\Objects\main.obj (MAIN)
         COMMENT TYPE 0: C51 V9.60.0.0
  .\Objects\gpio.obj (GPIO)
         COMMENT TYPE 0: C51 V9.60.0.0
  .\Objects\ADCCfg.obj (ADCCFG)
         COMMENT TYPE 0: C51 V9.60.0.0
  .\Objects\delay.obj (DELAY)
         COMMENT TYPE 0: C51 V9.60.0.0
  .\Objects\NTC.obj (NTC)
         COMMENT TYPE 0: C51 V9.60.0.0
  .\Objects\SideKey.obj (SIDEKEY)
         COMMENT TYPE 0: C51 V9.60.0.0
  .\Objects\LEDMgmt.obj (LEDMGMT)
         COMMENT TYPE 0: C51 V9.60.0.0
  .\Objects\PWM.obj (PWM)
         COMMENT TYPE 0: C51 V9.60.0.0
  .\Objects\OutputChannel.obj (OUTPUTCHANNEL)
         COMMENT TYPE 0: C51 V9.60.0.0
  .\Objects\Flash.obj (FLASH)
         COMMENT TYPE 0: C51 V9.60.0.0
  .\Objects\SysReset.obj (SYSRESET)
         COMMENT TYPE 0: C51 V9.60.0.0
  .\Objects\BattVoltDisplay.obj (BATTVOLTDISPLAY)
         COMMENT TYPE 0: C51 V9.60.0.0
  .\Objects\TempControl.obj (TEMPCONTROL)
         COMMENT TYPE 0: C51 V9.60.0.0
  .\Objects\Sleep.obj (SLEEP)
         COMMENT TYPE 0: C51 V9.60.0.0
  .\Objects\ModeControl.obj (MODECONTROL)
         COMMENT TYPE 0: C51 V9.60.0.0
  .\Objects\SelfTest.obj (SELFTEST)
         COMMENT TYPE 0: C51 V9.60.0.0
  .\Objects\SOS.obj (SOS)
         COMMENT TYPE 0: C51 V9.60.0.0
  .\Objects\LowVoltageProt.obj (LOWVOLTAGEPROT)
         COMMENT TYPE 0: C51 V9.60.0.0
  .\Objects\SpecialMode.obj (SPECIALMODE)
         COMMENT TYPE 0: C51 V9.60.0.0
  .\Objects\Beacon.obj (BEACON)
         COMMENT TYPE 0: C51 V9.60.0.0
  .\Objects\SysConfig.obj (SYSCONFIG)
         COMMENT TYPE 0: C51 V9.60.0.0
  .\Objects\LocateLED.obj (LOCATELED)
         COMMENT TYPE 0: C51 V9.60.0.0
  .\Objects\Strobe.obj (STROBE)
         COMMENT TYPE 0: C51 V9.60.0.0
  C:\KEIL_V5\C51\LIB\C51FPS.LIB (?C?FPADD)
         COMMENT TYPE 1: A51 / ASM51 Assembler
  C:\KEIL_V5\C51\LIB\C51FPS.LIB (?C?FPMUL)
LX51 LINKER/LOCATER V4.66.97.0                                                        05/01/2025  09:54:43  PAGE 2


         COMMENT TYPE 1: A51 / ASM51 Assembler
  C:\KEIL_V5\C51\LIB\C51FPS.LIB (?C?FPDIV)
         COMMENT TYPE 1: A51 / ASM51 Assembler
  C:\KEIL_V5\C51\LIB\C51FPS.LIB (?C?FPCMP)
         COMMENT TYPE 1: A51 / ASM51 Assembler
  C:\KEIL_V5\C51\LIB\C51FPS.LIB (?C?FCAST)
         COMMENT TYPE 1: A51 / ASM51 Assembler
  C:\KEIL_V5\C51\LIB\C51FPS.LIB (?C?CASTF)
         COMMENT TYPE 1: A51 / ASM51 Assembler
  C:\KEIL_V5\C51\LIB\C51FPS.LIB (?C?FPGETOPN)
         COMMENT TYPE 1: A51 / ASM51 Assembler
  C:\KEIL_V5\C51\LIB\C51S.LIB (?C_INIT)
         COMMENT TYPE 1: A51 / ASM51 Assembler
  C:\KEIL_V5\C51\LIB\C51S.LIB (?C?SCDIV)
         COMMENT TYPE 1: A51 / ASM51 Assembler
  C:\KEIL_V5\C51\LIB\C51S.LIB (?C?CLDPTR)
         COMMENT TYPE 1: A51 / ASM51 Assembler
  C:\KEIL_V5\C51\LIB\C51S.LIB (?C?CLDOPTR)
         COMMENT TYPE 1: A51 / ASM51 Assembler
  C:\KEIL_V5\C51\LIB\C51S.LIB (?C?CSTPTR)
         COMMENT TYPE 1: A51 / ASM51 Assembler
  C:\KEIL_V5\C51\LIB\C51S.LIB (?C?IMUL)
         COMMENT TYPE 1: A51 / ASM51 Assembler
  C:\KEIL_V5\C51\LIB\C51S.LIB (?C?SIDIV)
         COMMENT TYPE 1: A51 / ASM51 Assembler
  C:\KEIL_V5\C51\LIB\C51S.LIB (?C?ILDOPTR)
         COMMENT TYPE 1: A51 / ASM51 Assembler
  C:\KEIL_V5\C51\LIB\C51S.LIB (?C?ISTPTR)
         COMMENT TYPE 1: A51 / ASM51 Assembler
  C:\KEIL_V5\C51\LIB\C51S.LIB (?C?LMUL)
         COMMENT TYPE 1: A51 / ASM51 Assembler
  C:\KEIL_V5\C51\LIB\C51S.LIB (?C?ULDIV)
         COMMENT TYPE 1: A51 / ASM51 Assembler
  C:\KEIL_V5\C51\LIB\C51S.LIB (?C?SLDIV)
         COMMENT TYPE 1: A51 / ASM51 Assembler
  C:\KEIL_V5\C51\LIB\C51S.LIB (?C?LNEG)
         COMMENT TYPE 1: A51 / ASM51 Assembler
  C:\KEIL_V5\C51\LIB\C51S.LIB (?C?SLCMP)
         COMMENT TYPE 1: A51 / ASM51 Assembler
  C:\KEIL_V5\C51\LIB\C51S.LIB (?C?ULCMP)
         COMMENT TYPE 1: A51 / ASM51 Assembler
  C:\KEIL_V5\C51\LIB\C51S.LIB (?C?ULSHR)
         COMMENT TYPE 1: A51 / ASM51 Assembler
  C:\KEIL_V5\C51\LIB\C51S.LIB (?C?LLDCODE)
         COMMENT TYPE 1: A51 / ASM51 Assembler
  C:\KEIL_V5\C51\LIB\C51S.LIB (?C?LSTXDATA)
         COMMENT TYPE 1: A51 / ASM51 Assembler
  C:\KEIL_V5\C51\LIB\C51S.LIB (?C?LSTKXDATA)
         COMMENT TYPE 1: A51 / ASM51 Assembler
  C:\KEIL_V5\C51\LIB\C51S.LIB (?C?OFFXADD)
         COMMENT TYPE 1: A51 / ASM51 Assembler
  C:\KEIL_V5\C51\LIB\C51S.LIB (?C?UIDIV)
         COMMENT TYPE 1: A51 / ASM51 Assembler


ACTIVE MEMORY CLASSES OF MODULE:  .\Objects\XTRBoost (?C_STARTUP)

BASE        START       END         USED      MEMORY CLASS
==========================================================
X:000000H   X:000000H   X:0003FFH   00004EH   XDATA
X:000000H   X:000000H   X:0003FFH             HDATA
C:000000H   C:000000H   C:003FFFH   003E1EH   CODE
C:000000H   C:000000H   C:003FFFH   0001DDH   CONST
C:000000H   C:000000H   C:003FFFH             ECODE
C:000000H   C:000000H   C:003FFFH             HCONST
LX51 LINKER/LOCATER V4.66.97.0                                                        05/01/2025  09:54:43  PAGE 3


I:000000H   I:000000H   I:0000FFH   000001H   IDATA
I:000020H.0 I:000020H.0 I:00002FH.7 000003H.5 BIT
I:000000H   I:000000H   I:00007FH   00005DH   DATA


MEMORY MAP OF MODULE:  .\Objects\XTRBoost (?C_STARTUP)


START     STOP      LENGTH    ALIGN  RELOC    MEMORY CLASS   SEGMENT NAME
=========================================================================

* * * * * * * * * * *   D A T A   M E M O R Y   * * * * * * * * * * * * *
000000H   000007H   000008H   ---    AT..     DATA           "REG BANK 0"
000008H   00001FH   000018H   BYTE   UNIT     DATA           ?DT?ADCCFG
000020H.0 000020H.5 000000H.6 BIT    UNIT     BIT            _BIT_GROUP_
000020H.6 000021H.2 000000H.5 BIT    UNIT     BIT            ?BI?TEMPCONTROL
000021H.3 000021H.6 000000H.4 BIT    UNIT     BIT            ?BI?DELAY
000021H.7 000022H.2 000000H.4 BIT    UNIT     BIT            ?BI?PWM
000022H.3 000022H.5 000000H.3 BIT    UNIT     BIT            ?BI?MODECONTROL
000022H.6 000022H.7 000000H.2 BIT    UNIT     BIT            ?BI?BATTVOLTDISPLAY
000023H.0 000023H.0 000000H.1 BIT    UNIT     BIT            ?BI?SIDEKEY
000023H.1 000023H.1 000000H.1 BIT    UNIT     BIT            ?BI?LEDMGMT
000023H.2 000023H.2 000000H.1 BIT    UNIT     BIT            ?BI?OUTPUTCHANNEL
000023H.3 000023H.3 000000H.1 BIT    UNIT     BIT            ?BI?SPECIALMODE
000023H.4 000023H.4 000000H.1 BIT    UNIT     BIT            ?BI?STROBE
000023H.5 000023H   000000H.3 ---    ---      **GAP**
000024H   000043H   000020H   BYTE   UNIT     DATA           _DATA_GROUP_
000044H   00004FH   00000CH   BYTE   UNIT     DATA           ?DT?MODECONTROL
000050H   000055H   000006H   BYTE   UNIT     DATA           ?DT?SIDEKEY
000056H   000058H   000003H   BYTE   UNIT     DATA           ?DT?BATTVOLTDISPLAY
000059H   00005AH   000002H   BYTE   UNIT     DATA           ?DT?LEDMGMT
00005BH   00005CH   000002H   BYTE   UNIT     DATA           ?DT?TEMPCONTROL
00005DH   00005EH   000002H   BYTE   UNIT     DATA           ?DT?SLEEP
00005FH   00005FH   000001H   BYTE   UNIT     DATA           ?DT?SPECIALMODE
000060H   000060H   000001H   BYTE   UNIT     DATA           ?DT?LOCATELED
000061H   000061H   000001H   BYTE   UNIT     IDATA          ?STACK

* * * * * * * * * * *   C O D E   M E M O R Y   * * * * * * * * * * * * *
000000H   000002H   000003H   ---    OFFS..   CODE           ?CO?STARTUP_CMS8S6990?3
000003H   000009H   000007H   BYTE   UNIT     CODE           ?PR?GETSIDEKEYHOLDEVENT?SIDEKEY
00000AH   00000AH   000001H   ---    ---      **GAP**
00000BH   00000DH   000003H   BYTE   OFFS..   CODE           ?DELAY?0000B
00000EH   000028H   00001BH   BYTE   UNIT     CODE           ?PR?GETSIDEKEYNCLICKANDHOLDEVENT?SIDEKEY
000029H   00002AH   000002H   ---    ---      **GAP**
00002BH   00002DH   000003H   BYTE   OFFS..   CODE           ?DELAY?0002B
00002EH   00003AH   00000DH   BYTE   UNIT     CODE           ?PR?TIMER2_IRQHANDLER?DELAY
00003BH   00003DH   000003H   BYTE   OFFS..   CODE           ?SIDEKEY?0003B
00003EH   00073FH   000702H   BYTE   UNIT     CODE           ?C?LIB_CODE
000740H   000A99H   00035AH   BYTE   UNIT     CODE           ?PR?MODESWITCHFSM?MODECONTROL
000A9AH   000DBEH   000325H   BYTE   UNIT     CODE           ?PR?OUTPUTCHANNEL_CALC?OUTPUTCHANNEL
000DBFH   00108BH   0002CDH   BYTE   UNIT     CODE           ?PR?_GPIO_CONFIGGPIOMODE?GPIO
00108CH   0011D0H   000145H   BYTE   UNIT     CODE           ?PR?_ADC_WRITEOUTPUTBUF?ADCCFG
0011D1H   001305H   000135H   BYTE   UNIT     CODE           ?PR?BATVSHOWFSM?BATTVOLTDISPLAY
001306H   00142CH   000127H   BYTE   UNIT     CODE           ?PR?BATTDISPLAYTIM?BATTVOLTDISPLAY
00142DH   00154EH   000122H   BYTE   UNIT     CODE           ?PR?THERMALPILOOPCALC?TEMPCONTROL
00154FH   001659H   00010BH   BYTE   UNIT     CODE           ?PR?PWM_OUTPUTCTRLHANDLER?PWM
00165AH   001761H   000108H   BYTE   UNIT     CODE           ?PR?LEDCONTROLHANDLER?LEDMGMT
001762H   001856H   0000F5H   BYTE   UNIT     CODE           ?PR?RAMPLOWVOLTHANDLER?LOWVOLTAGEPROT
001857H   001946H   0000F0H   BYTE   UNIT     CODE           ?PR?ADCENGINEHANDLER?ADCCFG
001947H   001A33H   0000EDH   BYTE   UNIT     CODE           ?PR?_CALCNTCTEMP?NTC
001A34H   001B1DH   0000EAH   BYTE   UNIT     CODE           ?PR?RAMPADJHANDLER?MODECONTROL
001B1EH   001C02H   0000E5H   BYTE   UNIT     CODE           ?PR?OUTPUTFAULTDETECT?SELFTEST
001C03H   001CDAH   0000D8H   BYTE   UNIT     CODE           ?PR?BATTERYTELEMHANDLER?BATTVOLTDISPLAY
001CDBH   001DA5H   0000CBH   BYTE   UNIT     CODE           ?PR?PWM_INIT?PWM
001DA6H   001E65H   0000C0H   BYTE   UNIT     CODE           ?PR?MODEFSMINIT?MODECONTROL
LX51 LINKER/LOCATER V4.66.97.0                                                        05/01/2025  09:54:43  PAGE 4


001E66H   001F23H   0000BEH   BYTE   UNIT     CODE           ?PR?SAVESYSCONFIG?SYSCONFIG
001F24H   001FDBH   0000B8H   BYTE   UNIT     CODE           ?PR?_GPIO_WRITEBIT?GPIO
001FDCH   002091H   0000B6H   BYTE   UNIT     CODE           ?PR?_DELAY_MS?DELAY
002092H   002143H   0000B2H   BYTE   UNIT     CODE           ?PR?ADC_INIT?ADCCFG
002144H   0021ECH   0000A9H   BYTE   UNIT     CODE           ?PR?_ADC_READBACKRESULT?ADCCFG
0021EDH   002291H   0000A5H   BYTE   UNIT     CODE           ?PR?GPIO
002292H   00232DH   00009CH   BYTE   UNIT     CODE           ?PR?SIDEKEY_LOGICHANDLER?SIDEKEY
00232EH   0023C9H   00009CH   BYTE   UNIT     CODE           ?PR?BATTERYSTATEFSM?BATTVOLTDISPLAY
0023CAH   002464H   00009BH   BYTE   UNIT     CODE           ?PR?_SEARCHSYSCONFIG?SYSCONFIG
002465H   0024FEH   00009AH   BYTE   UNIT     CODE           ?C_C51STARTUP
0024FFH   002595H   000097H   BYTE   UNIT     CODE           ?PR?_GPIO_GETEXTINTMODE?GPIO
002596H   002621H   00008CH   BYTE   UNIT     CODE           ?PR?ADC_DEINIT?ADCCFG
002622H   0026ACH   00008BH   BYTE   UNIT     CODE           ?PR?TURBOLVILIMPROCESS?LOWVOLTAGEPROT
0026ADH   002736H   00008AH   BYTE   UNIT     CODE           ?PR?READSYSCONFIG?SYSCONFIG
002737H   0027BDH   000087H   BYTE   UNIT     CODE           ?PR?THERMALMGMTPROCESS?TEMPCONTROL
0027BEH   00283CH   00007FH   BYTE   UNIT     CODE           ?PR?OUTPUTCHANNEL_TESTRUN?OUTPUTCHANNEL
00283DH   0028BBH   00007FH   BYTE   UNIT     CODE           ?PR?_SPECIALMODEOPERATION?SPECIALMODE
0028BCH   002937H   00007CH   BYTE   UNIT     CODE           ?PR?MAIN?MAIN
002938H   0029B3H   00007CH   BYTE   UNIT     CODE           ?PR?LED_INIT?LEDMGMT
0029B4H   002A2EH   00007BH   BYTE   UNIT     CODE           ?PR?OUTPUTCHANNEL
002A2FH   002AA6H   000078H   BYTE   UNIT     CODE           ?PR?_SWITCHTOGEAR?MODECONTROL
002AA7H   002B1DH   000077H   BYTE   UNIT     CODE           ?PR?_DUTY_CALC?OUTPUTCHANNEL
002B1EH   002B92H   000075H   BYTE   UNIT     CODE           ?PR?_LOCATELED_EDIT?LOCATELED
002B93H   002C05H   000073H   BYTE   UNIT     CODE           ?PR?SOSFSM?SOS
002C06H   002C77H   000072H   BYTE   UNIT     CODE           ?PR?_GPIO_SETMUXMODE?GPIO
002C78H   002CE8H   000071H   BYTE   UNIT     CODE           ?PR?SHOWTHERMALSTEPDOWN?TEMPCONTROL
002CE9H   002D57H   00006FH   BYTE   UNIT     CODE           ?PR?DISPLAYERRORIDHANDLER?SELFTEST
002D58H   002DC4H   00006DH   BYTE   UNIT     CODE           ?PR?BATTVOLTDISPLAY
002DC5H   002E2EH   00006AH   BYTE   UNIT     CODE           ?PR?THERMALILIMCALC?TEMPCONTROL
002E2FH   002E97H   000069H   BYTE   UNIT     CODE           ?PR?SLEEPMGMT?SLEEP
002E98H   002EFFH   000068H   BYTE   UNIT     CODE           ?PR?MODECONTROL
002F00H   002F66H   000067H   BYTE   UNIT     CODE           ?PR?HOLDSWITCHGEARCMDHANDLER?MODECONTROL
002F67H   002FCAH   000064H   BYTE   UNIT     CODE           ?PR?SIDEKEY_INT_CALLBACK?SIDEKEY
002FCBH   00302BH   000061H   BYTE   UNIT     CODE           ?PR?ADCCFG
00302CH   003086H   00005BH   BYTE   UNIT     CODE           ?PR?_GPIO_SETEXTINTMODE?GPIO
003087H   0030E0H   00005AH   BYTE   UNIT     CODE           ?PR?OCFSM_TIMHANDLER?OUTPUTCHANNEL
0030E1H   003138H   000058H   BYTE   UNIT     CODE           ?PR?_VSHOWGENERATESIDESTROBE?BATTVOLTDISPLAY
003139H   003189H   000051H   BYTE   UNIT     CODE           ?PR?BEACONFSM?BEACON
00318AH   0031D9H   000050H   BYTE   UNIT     CODE           ?PR?LOWVOLTAGEPROT
0031DAH   003226H   00004DH   BYTE   UNIT     CODE           ?PR?KEY_IRQHANDLER?SIDEKEY
003227H   003272H   00004CH   BYTE   UNIT     CODE           ?PR?_ADC_SUBMITMISSON?ADCCFG
003273H   0032BDH   00004BH   BYTE   UNIT     CODE           ?PR?OUTPUTCHANNEL_INIT?OUTPUTCHANNEL
0032BEH   003307H   00004AH   BYTE   UNIT     CODE           ?PR?_RECALCPILOOP?TEMPCONTROL
003308H   003351H   00004AH   BYTE   UNIT     CODE           ?PR?_BATTERYLOWALERTPROCESS?LOWVOLTAGEPROT
003352H   003397H   000046H   BYTE   UNIT     CODE           ?PR?_ENTERTURBOSTROBE?SPECIALMODE
003398H   0033DBH   000044H   BYTE   UNIT     CODE           ?C?LDIV
0033DCH   00341DH   000042H   BYTE   UNIT     CODE           ?PR?SIDEKEYINIT?SIDEKEY
00341EH   00345FH   000042H   BYTE   UNIT     CODE           ?PR?TEMPCONTROL
003460H   0034A1H   000042H   BYTE   UNIT     CODE           ?PR?DISPLAYERRORTIMHANDLER?SELFTEST
0034A2H   0034E2H   000041H   BYTE   UNIT     CODE           ?PR?DISPLAYTACMODEENABLED?SPECIALMODE
0034E3H   00351FH   00003DH   BYTE   UNIT     CODE           ?PR?SIDEKEY_TIM_CALLBACK?SIDEKEY
003520H   00355CH   00003DH   BYTE   UNIT     CODE           ?PR?DISPLAYVBATTATSTART?BATTVOLTDISPLAY
00355DH   003597H   00003BH   BYTE   UNIT     CODE           ?PR?LOCATELED_ENABLE?LOCATELED
003598H   0035D1H   00003AH   BYTE   UNIT     CODE           ?PR?CALCTURBOILIM?LOWVOLTAGEPROT
0035D2H   00360BH   00003AH   BYTE   UNIT     CODE           ?PR?_POWERTONORMALMODE?SPECIALMODE
00360CH   003644H   000039H   BYTE   UNIT     CODE           ?PR?RESTORETOMINIMUMSYSCURRENT?SYSCONFIG
003645H   00367CH   000038H   BYTE   UNIT     CODE           ?PR?SETLEDBRIGHTNESS?LEDMGMT
00367DH   0036B2H   000036H   BYTE   UNIT     CODE           ?PR?PWM_FORCEENABLEOUT?PWM
0036B3H   0036E8H   000036H   BYTE   UNIT     CODE           ?PR?LOCATELED_SHOWTYPE?LOCATELED
0036E9H   00371DH   000035H   BYTE   UNIT     CODE           ?PR?ISERRORFATAL?SELFTEST
00371EH   003750H   000033H   BYTE   UNIT     CODE           ?PR?RANDSTROBEHANDLER?STROBE
003751H   003781H   000031H   BYTE   UNIT     CODE           ?PR?_PEC8CHECK?SYSCONFIG
003782H   0037B0H   00002FH   BYTE   UNIT     CODE           ?PR?_FLASH_OPERATION?FLASH
0037B1H   0037DEH   00002EH   BYTE   UNIT     CODE           ?PR?_DETECTIFNEEDSOFF?MODECONTROL
0037DFH   00380CH   00002EH   BYTE   UNIT     CODE           ?PR?BATTALERTTIMHANDLER?LOWVOLTAGEPROT
LX51 LINKER/LOCATER V4.66.97.0                                                        05/01/2025  09:54:43  PAGE 5


00380DH   003839H   00002DH   BYTE   UNIT     CODE           ?PR?_VSHOWFSMGENTIMVALUE?BATTVOLTDISPLAY
00383AH   003865H   00002CH   BYTE   UNIT     CODE           ?PR?_GPIO_CHECKIFINTENABLED?GPIO
003866H   00388FH   00002AH   BYTE   UNIT     CODE           ?PR?SETSYSTEMHBTIMER?DELAY
003890H   0038B9H   00002AH   BYTE   UNIT     CODE           ?PR?NTC
0038BAH   0038E3H   00002AH   BYTE   UNIT     CODE           ?PR?_MAKEFASTSTROBE?LEDMGMT
0038E4H   00390DH   00002AH   BYTE   UNIT     CODE           ?PR?LOWPOWERSTROBE?BATTVOLTDISPLAY
00390EH   003936H   000029H   BYTE   UNIT     CODE           ?PR?TEMPSCHMITTTRIGGER?TEMPCONTROL
003937H   00395FH   000029H   BYTE   UNIT     CODE           ?PR?MODEFSMTIMHANDLER?MODECONTROL
003960H   003986H   000027H   BYTE   UNIT     CODE           ?PR?_LEAVESPECIALMODE?SPECIALMODE
003987H   0039ABH   000025H   BYTE   UNIT     CODE           ?C_INITSEG
0039ACH   0039D0H   000025H   BYTE   UNIT     CODE           ?PR?SPECIALMODE
0039D1H   0039F5H   000025H   BYTE   UNIT     CODE           ?PR?LOCATELED_TIMHANDLER?LOCATELED
0039F6H   003A19H   000024H   BYTE   UNIT     CODE           ?PR?_SOSTIMDETECT?SOS
003A1AH   003A3DH   000024H   BYTE   UNIT     CODE           ?PR?SYSCONFIG
003A3EH   003A5FH   000022H   BYTE   UNIT     CODE           ?PR?_GPIO_DISABLEINT?GPIO
003A60H   003A81H   000022H   BYTE   UNIT     CODE           ?PR?RESETBATTAVG?BATTVOLTDISPLAY
003A82H   003AA3H   000022H   BYTE   UNIT     CODE           ?PR?QUERYISSYSTEMNOTALLOWTOSLEEP?SLEEP
003AA4H   003AC4H   000021H   BYTE   UNIT     CODE           ?PR?SETLEDONOFF?LEDMGMT
003AC5H   003AE5H   000021H   BYTE   UNIT     CODE           ?PR?SYSTEMPERIPHERALCTRL?SLEEP
003AE6H   003B05H   000020H   BYTE   UNIT     CODE           ?PR?MARKASKEYPRESSED?SIDEKEY
003B06H   003B25H   000020H   BYTE   UNIT     CODE           ?PR?OUTPUTCHANNEL_DEINIT?OUTPUTCHANNEL
003B26H   003B44H   00001FH   BYTE   UNIT     CODE           ?PR?SETPOWERLEDBASEDONVBATT?BATTVOLTDISPLAY
003B45H   003B62H   00001EH   BYTE   UNIT     CODE           ?PR?_GPIO_ENABLEINT?GPIO
003B63H   003B7DH   00001BH   BYTE   UNIT     CODE           ?PR?PWM_DEINIT?PWM
003B7EH   003B98H   00001BH   BYTE   UNIT     CODE           ?PR?PWM
003B99H   003BB1H   000019H   BYTE   UNIT     CODE           ?PR?TRIGGERVSHOWDISPLAY?BATTVOLTDISPLAY
003BB2H   003BCAH   000019H   BYTE   UNIT     CODE           ?PR?RETURNTOOFFSTATE?MODECONTROL
003BCBH   003BE2H   000018H   BYTE   UNIT     CODE           ?PR?GETSIDEKEYSHORTPRESSCOUNT?SIDEKEY
003BE3H   003BFAH   000018H   BYTE   UNIT     CODE           ?PR?_REPORTERROR?SELFTEST
003BFBH   003C12H   000018H   BYTE   UNIT     CODE           ?PR?_ERRTIMCOUNTER?SELFTEST
003C13H   003C2AH   000018H   BYTE   UNIT     CODE           ?PR?SELFTEST
003C2BH   003C40H   000016H   BYTE   UNIT     CODE           ?PR?GETIFOUTPUTENABLED?OUTPUTCHANNEL
003C41H   003C56H   000016H   BYTE   UNIT     CODE           ?PR?GETIFSYSTEMINPOFFSEQ?OUTPUTCHANNEL
003C57H   003C6CH   000016H   BYTE   UNIT     CODE           ?PR?_SIDEKEYSWITCHGEARHANDLER?MODECONTROL
003C6DH   003C81H   000015H   BYTE   UNIT     CODE           ?PR?ADC_SETVREF?ADCCFG
003C82H   003C96H   000015H   BYTE   UNIT     CODE           ?PR?ENTEREXITLOCK?SPECIALMODE
003C97H   003CAAH   000014H   BYTE   UNIT     CODE           ?PR?LOADSLEEPTIMER?SLEEP
003CABH   003CBDH   000013H   BYTE   UNIT     CODE           ?PR?QUERYCONSTANTTEMP?TEMPCONTROL
003CBEH   003CD0H   000013H   BYTE   UNIT     CODE           ?PR?RAMPRESTORELVPROTTOMAX?LOWVOLTAGEPROT
003CD1H   003CE3H   000013H   BYTE   UNIT     CODE           ?PR?BEACON
003CE4H   003CF5H   000012H   BYTE   UNIT     CODE           ?PR?DELAY_INIT?DELAY
003CF6H   003D07H   000012H   BYTE   UNIT     CODE           ?PR?SOSTIMHANDLER?SOS
003D08H   003D19H   000012H   BYTE   UNIT     CODE           ?PR?BEACONFSM_RESET?BEACON
003D1AH   003D2AH   000011H   BYTE   UNIT     CODE           ?PR?SETFLASHSTATE?FLASH
003D2BH   003D3BH   000011H   BYTE   UNIT     CODE           ?PR?ENTEREXITTAC?SPECIALMODE
003D3CH   003D4AH   00000FH   BYTE   UNIT     CODE           ?PR?UPLOADPWMVALUE?PWM
003D4BH   003D58H   00000EH   BYTE   UNIT     CODE           ?PR?_CLICKANDHOLDEVENTHANDLER?SIDEKEY
003D59H   003D66H   00000EH   BYTE   UNIT     CODE           ?PR?TRIGGERSOFTWARERESET?SYSRESET
003D67H   003D74H   00000EH   BYTE   UNIT     CODE           ?PR?_SIDEKEY1HREVGEARHANDLER?MODECONTROL
003D75H   003D81H   00000DH   BYTE   UNIT     CODE           ?PR?ISKEYEVENTOCCURRED?SIDEKEY
003D82H   003D8EH   00000DH   BYTE   UNIT     CODE           ?PR?GETSIDEKEYLONGPRESSEVENT?SIDEKEY
003D8FH   003D9BH   00000DH   BYTE   UNIT     CODE           ?PR?CLEARSOFTWARERESETFLAG?SYSRESET
003D9CH   003DA7H   00000CH   BYTE   UNIT     CODE           ?PR?_SOSFSM_JUMP?SOS
003DA8H   003DB2H   00000BH   BYTE   UNIT     CODE           ?PR?SIDEKEY
003DB3H   003DBCH   00000AH   BYTE   UNIT     CODE           ?PR?LEDMGMT
003DBDH   003DC6H   00000AH   BYTE   UNIT     CODE           ?PR?SLEEP
003DC7H   003DD0H   00000AH   BYTE   UNIT     CODE           ?PR?RESETSOSMODULE?SOS
003DD1H   003DDAH   00000AH   BYTE   UNIT     CODE           ?PR?SOS
003DDBH   003DE4H   00000AH   BYTE   UNIT     CODE           ?PR?RESETSTROBEMODULE?STROBE
003DE5H   003DEDH   000009H   BYTE   UNIT     CODE           ?PR?GETSIDEKEY1HEVENT?SIDEKEY
003DEEH   003DF6H   000009H   BYTE   UNIT     CODE           ?PR?CLEARERROR?SELFTEST
003DF7H   003DFFH   000009H   BYTE   UNIT     CODE           ?PR?STARTBATTALERTTIMER?LOWVOLTAGEPROT
003E00H   003E08H   000009H   BYTE   UNIT     CODE           ?PR?BEACONFSM_TIMHANDLER?BEACON
003E09H   003E11H   000009H   BYTE   UNIT     CODE           ?PR?STROBEOUTPUTHANDLER?STROBE
003E12H   003E17H   000006H   BYTE   UNIT     CODE           ?PR?TIMER0_IRQHANDLER?DELAY
LX51 LINKER/LOCATER V4.66.97.0                                                        05/01/2025  09:54:43  PAGE 6


003E18H   003E1DH   000006H   BYTE   UNIT     CODE           ?PR?GETIFKEYPRESSED?SIDEKEY
003E1EH   003E20H   000003H   BYTE   UNIT     CODE           ?PR?SYSTEMTELEMHANDLER?ADCCFG
003E21H   003F76H   000156H   BYTE   UNIT     CONST          ?CO?NTC
003F77H   003FEBH   000075H   BYTE   UNIT     CONST          ?CO?MODECONTROL
003FECH   003FF5H   00000AH   BYTE   UNIT     CONST          ?CO?STROBE
003FF6H   003FFAH   000005H   BYTE   UNIT     CONST          ?CO?ADCCFG
003FFBH   003FFDH   000003H   BYTE   UNIT     CONST          ?CO?SELFTEST

* * * * * * * * * * *  X D A T A   M E M O R Y  * * * * * * * * * * * * *
000000H   000013H   000014H   BYTE   UNIT     XDATA          ?XD?BATTVOLTDISPLAY
000014H   000021H   00000EH   BYTE   UNIT     XDATA          ?XD?ADCCFG
000022H   000028H   000007H   BYTE   UNIT     XDATA          ?XD?OUTPUTCHANNEL
000029H   00002EH   000006H   BYTE   UNIT     XDATA          ?XD?PWM
00002FH   000033H   000005H   BYTE   UNIT     XDATA          ?XD?SELFTEST
000034H   000037H   000004H   BYTE   UNIT     XDATA          ?XD?TEMPCONTROL
000038H   00003BH   000004H   BYTE   UNIT     XDATA          ?XD?MODECONTROL
00003CH   00003FH   000004H   BYTE   UNIT     XDATA          ?XD?LOWVOLTAGEPROT
000040H   000042H   000003H   BYTE   UNIT     XDATA          ?XD?BEACON
000043H   000045H   000003H   BYTE   UNIT     XDATA          ?XD?SYSCONFIG
000046H   000047H   000002H   BYTE   UNIT     XDATA          ?XD?SOS
000048H   000049H   000002H   BYTE   UNIT     XDATA          ?XD?LOCATELED
00004AH   00004BH   000002H   BYTE   UNIT     XDATA          ?XD?STROBE
00004CH   00004CH   000001H   BYTE   UNIT     XDATA          ?XD?SIDEKEY
00004DH   00004DH   000001H   BYTE   UNIT     XDATA          ?XD?SPECIALMODE



OVERLAY MAP OF MODULE:   .\Objects\XTRBoost (?C_STARTUP)


FUNCTION/MODULE                                BIT_GROUP   DATA_GROUP 
--> CALLED FUNCTION/MODULE                    START  STOP  START  STOP
======================================================================
?C_C51STARTUP                                 ----- -----  ----- -----
  +--> MAIN/MAIN
  +--> ?C_INITSEG

MAIN/MAIN                                     20H.0 20H.0  ----- -----
  +--> CLEARSOFTWARERESETFLAG/SYSRESET
  +--> DELAY_INIT/DELAY
  +--> SETSYSTEMHBTIMER/DELAY
  +--> OUTPUTCHANNEL_INIT/OUTPUTCHANNEL
  +--> ADC_INIT/ADCCFG
  +--> PWM_INIT/PWM
  +--> LED_INIT/LEDMGMT
  +--> MODEFSMINIT/MODECONTROL
  +--> SIDEKEYINIT/SIDEKEY
  +--> OUTPUTCHANNEL_TESTRUN/OUTPUTCHANNEL
  +--> DISPLAYVBATTATSTART/BATTVOLTDISPLAY
  +--> SYSTEMTELEMHANDLER/ADCCFG
  +--> SIDEKEY_LOGICHANDLER/SIDEKEY
  +--> BATTERYTELEMHANDLER/BATTVOLTDISPLAY
  +--> MODESWITCHFSM/MODECONTROL
  +--> THERMALMGMTPROCESS/TEMPCONTROL
  +--> OUTPUTCHANNEL_CALC/OUTPUTCHANNEL
  +--> PWM_OUTPUTCTRLHANDLER/PWM
  +--> RANDSTROBEHANDLER/STROBE
  +--> THERMALPILOOPCALC/TEMPCONTROL
  +--> MODEFSMTIMHANDLER/MODECONTROL
  +--> BEACONFSM_TIMHANDLER/BEACON
  +--> LEDCONTROLHANDLER/LEDMGMT
  +--> OCFSM_TIMHANDLER/OUTPUTCHANNEL
  +--> HOLDSWITCHGEARCMDHANDLER/MODECONTROL
  +--> SIDEKEY_TIM_CALLBACK/SIDEKEY
  +--> OUTPUTFAULTDETECT/SELFTEST
LX51 LINKER/LOCATER V4.66.97.0                                                        05/01/2025  09:54:43  PAGE 7


  +--> BATTDISPLAYTIM/BATTVOLTDISPLAY
  +--> SOSTIMHANDLER/SOS
  +--> BATTALERTTIMHANDLER/LOWVOLTAGEPROT
  +--> DISPLAYERRORTIMHANDLER/SELFTEST
  +--> SLEEPMGMT/SLEEP
  +--> LOCATELED_TIMHANDLER/LOCATELED

CLEARSOFTWARERESETFLAG/SYSRESET               ----- -----  ----- -----

DELAY_INIT/DELAY                              ----- -----  ----- -----

SETSYSTEMHBTIMER/DELAY                        20H.3 20H.3  ----- -----

OUTPUTCHANNEL_INIT/OUTPUTCHANNEL              ----- -----  0024H 0026H
  +--> _GPIO_CONFIGGPIOMODE/GPIO
  +--> OUTPUTCHANNEL_DEINIT/OUTPUTCHANNEL

_GPIO_CONFIGGPIOMODE/GPIO                     ----- -----  0027H 0031H
  +--> GPIO

GPIO                                          ----- -----  ----- -----

OUTPUTCHANNEL_DEINIT/OUTPUTCHANNEL            ----- -----  ----- -----

ADC_INIT/ADCCFG                               ----- -----  0024H 0026H
  +--> _GPIO_SETMUXMODE/GPIO
  +--> _GPIO_CONFIGGPIOMODE/GPIO
  +--> _GPIO_WRITEBIT/GPIO
  +--> ADCCFG

_GPIO_SETMUXMODE/GPIO                         ----- -----  0027H 0028H
  +--> GPIO

_GPIO_WRITEBIT/GPIO                           20H.3 20H.3  ----- -----
  +--> GPIO

ADCCFG                                        ----- -----  ----- -----

PWM_INIT/PWM                                  ----- -----  0024H 0026H
  +--> _GPIO_WRITEBIT/GPIO
  +--> _GPIO_CONFIGGPIOMODE/GPIO
  +--> _GPIO_SETMUXMODE/GPIO
  +--> UPLOADPWMVALUE/PWM

UPLOADPWMVALUE/PWM                            ----- -----  ----- -----

LED_INIT/LEDMGMT                              ----- -----  0024H 0026H
  +--> SETLEDBRIGHTNESS/LEDMGMT
  +--> _GPIO_WRITEBIT/GPIO
  +--> _GPIO_SETMUXMODE/GPIO
  +--> _GPIO_CONFIGGPIOMODE/GPIO

SETLEDBRIGHTNESS/LEDMGMT                      ----- -----  ----- -----

MODEFSMINIT/MODECONTROL                       ----- -----  ----- -----
  +--> READSYSCONFIG/SYSCONFIG
  +--> MODECONTROL
  +--> RESETSOSMODULE/SOS

READSYSCONFIG/SYSCONFIG                       20H.1 20H.1  0024H 0029H
  +--> GETIFKEYPRESSED/SIDEKEY
  +--> _SEARCHSYSCONFIG/SYSCONFIG
  +--> _PEC8CHECK/SYSCONFIG
  +--> RESTORETOMINIMUMSYSCURRENT/SYSCONFIG
  +--> SAVESYSCONFIG/SYSCONFIG
LX51 LINKER/LOCATER V4.66.97.0                                                        05/01/2025  09:54:43  PAGE 8


  +--> _MAKEFASTSTROBE/LEDMGMT
  +--> _DELAY_MS/DELAY
  +--> TRIGGERSOFTWARERESET/SYSRESET
  +--> SETFLASHSTATE/FLASH

GETIFKEYPRESSED/SIDEKEY                       ----- -----  ----- -----

_SEARCHSYSCONFIG/SYSCONFIG                    ----- -----  002AH 002FH
  +--> SETFLASHSTATE/FLASH
  +--> SYSCONFIG
  +--> _PEC8CHECK/SYSCONFIG
  +--> _FLASH_OPERATION/FLASH

SETFLASHSTATE/FLASH                           20H.3 20H.3  ----- -----

SYSCONFIG                                     ----- -----  ----- -----

_PEC8CHECK/SYSCONFIG                          ----- -----  0031H 0033H

_FLASH_OPERATION/FLASH                        ----- -----  0031H 0031H

RESTORETOMINIMUMSYSCURRENT/SYSCONFIG          ----- -----  ----- -----
  +--> SYSCONFIG

SAVESYSCONFIG/SYSCONFIG                       20H.2 20H.2  002AH 0030H
  +--> SETFLASHSTATE/FLASH
  +--> _PEC8CHECK/SYSCONFIG
  +--> _FLASH_OPERATION/FLASH
  +--> SYSCONFIG

_MAKEFASTSTROBE/LEDMGMT                       ----- -----  ----- -----
  +--> SETLEDONOFF/LEDMGMT
  +--> _DELAY_MS/DELAY

SETLEDONOFF/LEDMGMT                           20H.4 20H.5  ----- -----

_DELAY_MS/DELAY                               ----- -----  002AH 0031H

TRIGGERSOFTWARERESET/SYSRESET                 ----- -----  ----- -----

MODECONTROL                                   ----- -----  ----- -----

RESETSOSMODULE/SOS                            ----- -----  ----- -----

SIDEKEYINIT/SIDEKEY                           ----- -----  0024H 0026H
  +--> _GPIO_SETMUXMODE/GPIO
  +--> _GPIO_CONFIGGPIOMODE/GPIO
  +--> _GPIO_ENABLEINT/GPIO
  +--> _GPIO_SETEXTINTMODE/GPIO
  +--> LOADSLEEPTIMER/SLEEP

_GPIO_ENABLEINT/GPIO                          ----- -----  ----- -----

_GPIO_SETEXTINTMODE/GPIO                      ----- -----  0027H 0028H
  +--> GPIO

LOADSLEEPTIMER/SLEEP                          ----- -----  ----- -----
  +--> SLEEP

SLEEP                                         ----- -----  ----- -----

OUTPUTCHANNEL_TESTRUN/OUTPUTCHANNEL           20H.1 20H.1  0024H 0024H
  +--> PWM_FORCEENABLEOUT/PWM
  +--> _DELAY_MS/DELAY
  +--> SYSTEMTELEMHANDLER/ADCCFG
LX51 LINKER/LOCATER V4.66.97.0                                                        05/01/2025  09:54:43  PAGE 9


  +--> OUTPUTCHANNEL_DEINIT/OUTPUTCHANNEL
  +--> OUTPUTCHANNEL
  +--> _REPORTERROR/SELFTEST

PWM_FORCEENABLEOUT/PWM                        20H.2 20H.2  ----- -----
  +--> UPLOADPWMVALUE/PWM

SYSTEMTELEMHANDLER/ADCCFG                     ----- -----  ----- -----
  +--> ADCENGINEHANDLER/ADCCFG

ADCENGINEHANDLER/ADCCFG                       ----- -----  0025H 0028H
  +--> ADC_SETVREF/ADCCFG
  +--> ADCCFG
  +--> _ADC_SUBMITMISSON/ADCCFG
  +--> _ADC_READBACKRESULT/ADCCFG
  +--> _ADC_WRITEOUTPUTBUF/ADCCFG

ADC_SETVREF/ADCCFG                            20H.2 20H.2  ----- -----

_ADC_SUBMITMISSON/ADCCFG                      ----- -----  ----- -----
  +--> ADCCFG

_ADC_READBACKRESULT/ADCCFG                    ----- -----  0029H 002EH

_ADC_WRITEOUTPUTBUF/ADCCFG                    ----- -----  0029H 0037H
  +--> ADCCFG
  +--> _CALCNTCTEMP/NTC

_CALCNTCTEMP/NTC                              ----- -----  0038H 0043H
  +--> NTC

NTC                                           ----- -----  ----- -----

OUTPUTCHANNEL                                 ----- -----  ----- -----

_REPORTERROR/SELFTEST                         ----- -----  ----- -----
  +--> _SWITCHTOGEAR/MODECONTROL

_SWITCHTOGEAR/MODECONTROL                     ----- -----  0028H 002CH
  +--> MODECONTROL
  +--> RESETSOSMODULE/SOS
  +--> BEACONFSM_RESET/BEACON
  +--> RESETSTROBEMODULE/STROBE
  +--> CALCTURBOILIM/LOWVOLTAGEPROT
  +--> _RECALCPILOOP/TEMPCONTROL

BEACONFSM_RESET/BEACON                        ----- -----  ----- -----

RESETSTROBEMODULE/STROBE                      ----- -----  ----- -----

CALCTURBOILIM/LOWVOLTAGEPROT                  ----- -----  ----- -----
  +--> LOWVOLTAGEPROT

LOWVOLTAGEPROT                                ----- -----  ----- -----

_RECALCPILOOP/TEMPCONTROL                     ----- -----  002DH 002EH
  +--> TEMPCONTROL

TEMPCONTROL                                   ----- -----  ----- -----

DISPLAYVBATTATSTART/BATTVOLTDISPLAY           ----- -----  0024H 0024H
  +--> RESETBATTAVG/BATTVOLTDISPLAY
  +--> SYSTEMTELEMHANDLER/ADCCFG
  +--> BATTERYSTATEFSM/BATTVOLTDISPLAY
  +--> BATTVOLTDISPLAY
LX51 LINKER/LOCATER V4.66.97.0                                                        05/01/2025  09:54:43  PAGE 10



RESETBATTAVG/BATTVOLTDISPLAY                  ----- -----  ----- -----

BATTERYSTATEFSM/BATTVOLTDISPLAY               ----- -----  0028H 002BH
  +--> BATTVOLTDISPLAY

BATTVOLTDISPLAY                               ----- -----  ----- -----

SIDEKEY_LOGICHANDLER/SIDEKEY                  ----- -----  0024H 0024H
  +--> _GPIO_CHECKIFINTENABLED/GPIO
  +--> LOADSLEEPTIMER/SLEEP
  +--> _GPIO_SETEXTINTMODE/GPIO
  +--> _GPIO_ENABLEINT/GPIO
  +--> SIDEKEY
  +--> _CLICKANDHOLDEVENTHANDLER/SIDEKEY

_GPIO_CHECKIFINTENABLED/GPIO                  ----- -----  ----- -----

SIDEKEY                                       ----- -----  ----- -----

_CLICKANDHOLDEVENTHANDLER/SIDEKEY             ----- -----  ----- -----

BATTERYTELEMHANDLER/BATTVOLTDISPLAY           ----- -----  0024H 0027H
  +--> BATTVOLTDISPLAY
  +--> BATTERYSTATEFSM/BATTVOLTDISPLAY
  +--> DISPLAYERRORIDHANDLER/SELFTEST
  +--> BATVSHOWFSM/BATTVOLTDISPLAY
  +--> LOCATELED_SHOWTYPE/LOCATELED
  +--> SETPOWERLEDBASEDONVBATT/BATTVOLTDISPLAY

DISPLAYERRORIDHANDLER/SELFTEST                ----- -----  ----- -----

BATVSHOWFSM/BATTVOLTDISPLAY                   ----- -----  ----- -----
  +--> BATTVOLTDISPLAY
  +--> _VSHOWFSMGENTIMVALUE/BATTVOLTDISPLAY
  +--> _VSHOWGENERATESIDESTROBE/BATTVOLTDISPLAY
  +--> SETPOWERLEDBASEDONVBATT/BATTVOLTDISPLAY
  +--> GETSIDEKEYNCLICKANDHOLDEVENT/SIDEKEY

_VSHOWFSMGENTIMVALUE/BATTVOLTDISPLAY          ----- -----  ----- -----
  +--> BATTVOLTDISPLAY

_VSHOWGENERATESIDESTROBE/BATTVOLTDISPLAY      ----- -----  0028H 0029H
  +--> _MAKEFASTSTROBE/LEDMGMT

SETPOWERLEDBASEDONVBATT/BATTVOLTDISPLAY       ----- -----  ----- -----

GETSIDEKEYNCLICKANDHOLDEVENT/SIDEKEY          ----- -----  ----- -----
  +--> SIDEKEY

LOCATELED_SHOWTYPE/LOCATELED                  ----- -----  ----- -----
  +--> _MAKEFASTSTROBE/LEDMGMT

MODESWITCHFSM/MODECONTROL                     ----- -----  0024H 0024H
  +--> GETIFSYSTEMINPOFFSEQ/OUTPUTCHANNEL
  +--> GETSIDEKEYSHORTPRESSCOUNT/SIDEKEY
  +--> MODECONTROL
  +--> GETSIDEKEYLONGPRESSEVENT/SIDEKEY
  +--> ISERRORFATAL/SELFTEST
  +--> CLEARERROR/SELFTEST
  +--> _SPECIALMODEOPERATION/SPECIALMODE
  +--> _LOCATELED_EDIT/LOCATELED
  +--> _POWERTONORMALMODE/SPECIALMODE
  +--> _ENTERTURBOSTROBE/SPECIALMODE
  +--> _SWITCHTOGEAR/MODECONTROL
LX51 LINKER/LOCATER V4.66.97.0                                                        05/01/2025  09:54:43  PAGE 11


  +--> SAVESYSCONFIG/SYSCONFIG
  +--> GETSIDEKEYNCLICKANDHOLDEVENT/SIDEKEY
  +--> TRIGGERVSHOWDISPLAY/BATTVOLTDISPLAY
  +--> RESTORETOMINIMUMSYSCURRENT/SYSCONFIG
  +--> RAMPLOWVOLTHANDLER/LOWVOLTAGEPROT
  +--> RAMPADJHANDLER/MODECONTROL
  +--> _SIDEKEY1HREVGEARHANDLER/MODECONTROL
  +--> _SIDEKEYSWITCHGEARHANDLER/MODECONTROL
  +--> _DETECTIFNEEDSOFF/MODECONTROL
  +--> TURBOLVILIMPROCESS/LOWVOLTAGEPROT
  +--> _LEAVESPECIALMODE/SPECIALMODE
  +--> _BATTERYLOWALERTPROCESS/LOWVOLTAGEPROT
  +--> STROBEOUTPUTHANDLER/STROBE
  +--> SOSFSM/SOS
  +--> BEACONFSM/BEACON
  +--> LOWPOWERSTROBE/BATTVOLTDISPLAY

GETIFSYSTEMINPOFFSEQ/OUTPUTCHANNEL            ----- -----  ----- -----

GETSIDEKEYSHORTPRESSCOUNT/SIDEKEY             20H.1 20H.1  ----- -----

GETSIDEKEYLONGPRESSEVENT/SIDEKEY              ----- -----  ----- -----

ISERRORFATAL/SELFTEST                         ----- -----  ----- -----

CLEARERROR/SELFTEST                           ----- -----  ----- -----
  +--> _SWITCHTOGEAR/MODECONTROL

_SPECIALMODEOPERATION/SPECIALMODE             ----- -----  0025H 0025H
  +--> SPECIALMODE
  +--> ENTEREXITLOCK/SPECIALMODE
  +--> ENTEREXITTAC/SPECIALMODE
  +--> GETSIDEKEYHOLDEVENT/SIDEKEY
  +--> ISKEYEVENTOCCURRED/SIDEKEY
  +--> _ENTERTURBOSTROBE/SPECIALMODE

SPECIALMODE                                   ----- -----  ----- -----

ENTEREXITLOCK/SPECIALMODE                     ----- -----  ----- -----
  +--> SAVESYSCONFIG/SYSCONFIG

ENTEREXITTAC/SPECIALMODE                      ----- -----  ----- -----

GETSIDEKEYHOLDEVENT/SIDEKEY                   ----- -----  ----- -----

ISKEYEVENTOCCURRED/SIDEKEY                    ----- -----  ----- -----

_ENTERTURBOSTROBE/SPECIALMODE                 ----- -----  0026H 0026H
  +--> SPECIALMODE
  +--> _SWITCHTOGEAR/MODECONTROL
  +--> _POWERTONORMALMODE/SPECIALMODE

_POWERTONORMALMODE/SPECIALMODE                ----- -----  0027H 0027H
  +--> SPECIALMODE
  +--> _SWITCHTOGEAR/MODECONTROL
  +--> RAMPRESTORELVPROTTOMAX/LOWVOLTAGEPROT

RAMPRESTORELVPROTTOMAX/LOWVOLTAGEPROT         ----- -----  ----- -----
  +--> LOWVOLTAGEPROT

_LOCATELED_EDIT/LOCATELED                     ----- -----  ----- -----
  +--> GETSIDEKEYHOLDEVENT/SIDEKEY
  +--> SAVESYSCONFIG/SYSCONFIG
  +--> GETSIDEKEYLONGPRESSEVENT/SIDEKEY

LX51 LINKER/LOCATER V4.66.97.0                                                        05/01/2025  09:54:43  PAGE 12


TRIGGERVSHOWDISPLAY/BATTVOLTDISPLAY           ----- -----  ----- -----
  +--> BATTVOLTDISPLAY

RAMPLOWVOLTHANDLER/LOWVOLTAGEPROT             ----- -----  ----- -----
  +--> LOWVOLTAGEPROT
  +--> STARTBATTALERTTIMER/LOWVOLTAGEPROT
  +--> RETURNTOOFFSTATE/MODECONTROL

STARTBATTALERTTIMER/LOWVOLTAGEPROT            ----- -----  ----- -----

RETURNTOOFFSTATE/MODECONTROL                  ----- -----  ----- -----
  +--> MODECONTROL
  +--> _SWITCHTOGEAR/MODECONTROL

RAMPADJHANDLER/MODECONTROL                    20H.1 20H.1  0025H 0026H
  +--> GETSIDEKEY1HEVENT/SIDEKEY
  +--> GETSIDEKEYHOLDEVENT/SIDEKEY
  +--> MODECONTROL
  +--> SAVESYSCONFIG/SYSCONFIG

GETSIDEKEY1HEVENT/SIDEKEY                     ----- -----  ----- -----

_SIDEKEY1HREVGEARHANDLER/MODECONTROL          ----- -----  ----- -----
  +--> _SWITCHTOGEAR/MODECONTROL

_SIDEKEYSWITCHGEARHANDLER/MODECONTROL         ----- -----  ----- -----
  +--> _SWITCHTOGEAR/MODECONTROL

_DETECTIFNEEDSOFF/MODECONTROL                 ----- -----  0025H 0026H
  +--> GETSIDEKEYNCLICKANDHOLDEVENT/SIDEKEY
  +--> TRIGGERVSHOWDISPLAY/BATTVOLTDISPLAY
  +--> GETSIDEKEYHOLDEVENT/SIDEKEY
  +--> RETURNTOOFFSTATE/MODECONTROL

TURBOLVILIMPROCESS/LOWVOLTAGEPROT             ----- -----  ----- -----
  +--> STARTBATTALERTTIMER/LOWVOLTAGEPROT
  +--> LOWVOLTAGEPROT
  +--> _SWITCHTOGEAR/MODECONTROL

_LEAVESPECIALMODE/SPECIALMODE                 ----- -----  0025H 0025H
  +--> SPECIALMODE
  +--> _SWITCHTOGEAR/MODECONTROL

_BATTERYLOWALERTPROCESS/LOWVOLTAGEPROT        20H.1 20H.1  0025H 0027H
  +--> GETSIDEKEY1HEVENT/SIDEKEY
  +--> GETSIDEKEYHOLDEVENT/SIDEKEY
  +--> STARTBATTALERTTIMER/LOWVOLTAGEPROT
  +--> LOWVOLTAGEPROT
  +--> RETURNTOOFFSTATE/MODECONTROL
  +--> _SWITCHTOGEAR/MODECONTROL

STROBEOUTPUTHANDLER/STROBE                    ----- -----  ----- -----

SOSFSM/SOS                                    ----- -----  ----- -----
  +--> _SOSTIMDETECT/SOS
  +--> _SOSFSM_JUMP/SOS

_SOSTIMDETECT/SOS                             ----- -----  ----- -----
  +--> SOS

SOS                                           ----- -----  ----- -----

_SOSFSM_JUMP/SOS                              ----- -----  ----- -----

BEACONFSM/BEACON                              ----- -----  ----- -----
LX51 LINKER/LOCATER V4.66.97.0                                                        05/01/2025  09:54:43  PAGE 13


  +--> BEACON

BEACON                                        ----- -----  ----- -----

LOWPOWERSTROBE/BATTVOLTDISPLAY                ----- -----  ----- -----

THERMALMGMTPROCESS/TEMPCONTROL                20H.1 20H.1  ----- -----
  +--> _REPORTERROR/SELFTEST
  +--> TEMPSCHMITTTRIGGER/TEMPCONTROL
  +--> CLEARERROR/SELFTEST
  +--> TEMPCONTROL
  +--> QUERYCONSTANTTEMP/TEMPCONTROL

TEMPSCHMITTTRIGGER/TEMPCONTROL                20H.2 20H.2  0024H 0025H
  +--> TEMPCONTROL

QUERYCONSTANTTEMP/TEMPCONTROL                 ----- -----  ----- -----
  +--> TEMPCONTROL

OUTPUTCHANNEL_CALC/OUTPUTCHANNEL              ----- -----  0024H 0027H
  +--> THERMALILIMCALC/TEMPCONTROL
  +--> OUTPUTCHANNEL_DEINIT/OUTPUTCHANNEL
  +--> OUTPUTCHANNEL
  +--> _DELAY_MS/DELAY
  +--> _REPORTERROR/SELFTEST
  +--> _DUTY_CALC/OUTPUTCHANNEL

THERMALILIMCALC/TEMPCONTROL                   ----- -----  ----- -----
  +--> TEMPCONTROL

_DUTY_CALC/OUTPUTCHANNEL                      ----- -----  0028H 002BH
  +--> OUTPUTCHANNEL

PWM_OUTPUTCTRLHANDLER/PWM                     ----- -----  0024H 0027H
  +--> PWM

PWM                                           ----- -----  ----- -----

RANDSTROBEHANDLER/STROBE                      ----- -----  ----- -----

THERMALPILOOPCALC/TEMPCONTROL                 ----- -----  0024H 0027H
  +--> TEMPCONTROL
  +--> GETIFOUTPUTENABLED/OUTPUTCHANNEL
  +--> QUERYCONSTANTTEMP/TEMPCONTROL

GETIFOUTPUTENABLED/OUTPUTCHANNEL              ----- -----  ----- -----

MODEFSMTIMHANDLER/MODECONTROL                 ----- -----  ----- -----
  +--> MODECONTROL

BEACONFSM_TIMHANDLER/BEACON                   ----- -----  ----- -----
  +--> BEACON

LEDCONTROLHANDLER/LEDMGMT                     20H.1 20H.3  ----- -----
  +--> DISPLAYTACMODEENABLED/SPECIALMODE
  +--> SHOWTHERMALSTEPDOWN/TEMPCONTROL
  +--> LEDMGMT
  +--> SETLEDBRIGHTNESS/LEDMGMT
  +--> SETLEDONOFF/LEDMGMT

DISPLAYTACMODEENABLED/SPECIALMODE             ----- -----  ----- -----
  +--> SPECIALMODE

SHOWTHERMALSTEPDOWN/TEMPCONTROL               ----- -----  0024H 0024H
  +--> TEMPCONTROL
LX51 LINKER/LOCATER V4.66.97.0                                                        05/01/2025  09:54:43  PAGE 14



LEDMGMT                                       ----- -----  ----- -----

OCFSM_TIMHANDLER/OUTPUTCHANNEL                ----- -----  ----- -----
  +--> OUTPUTCHANNEL
  +--> GETIFOUTPUTENABLED/OUTPUTCHANNEL

HOLDSWITCHGEARCMDHANDLER/MODECONTROL          ----- -----  0024H 0024H
  +--> GETSIDEKEYHOLDEVENT/SIDEKEY
  +--> GETSIDEKEY1HEVENT/SIDEKEY
  +--> MODECONTROL

SIDEKEY_TIM_CALLBACK/SIDEKEY                  ----- -----  ----- -----

OUTPUTFAULTDETECT/SELFTEST                    ----- -----  0024H 0025H
  +--> GETIFOUTPUTENABLED/OUTPUTCHANNEL
  +--> _REPORTERROR/SELFTEST
  +--> SELFTEST
  +--> _ERRTIMCOUNTER/SELFTEST

SELFTEST                                      ----- -----  ----- -----

_ERRTIMCOUNTER/SELFTEST                       ----- -----  ----- -----

BATTDISPLAYTIM/BATTVOLTDISPLAY                ----- -----  0024H 0027H
  +--> BATTVOLTDISPLAY
  +--> RESETBATTAVG/BATTVOLTDISPLAY

SOSTIMHANDLER/SOS                             ----- -----  ----- -----
  +--> SOS

BATTALERTTIMHANDLER/LOWVOLTAGEPROT            ----- -----  ----- -----
  +--> LOWVOLTAGEPROT

DISPLAYERRORTIMHANDLER/SELFTEST               ----- -----  ----- -----

SLEEPMGMT/SLEEP                               20H.1 20H.1  ----- -----
  +--> QUERYISSYSTEMNOTALLOWTOSLEEP/SLEEP
  +--> LOADSLEEPTIMER/SLEEP
  +--> SLEEP
  +--> SYSTEMPERIPHERALCTRL/SLEEP
  +--> DELAY_INIT/DELAY
  +--> SETSYSTEMHBTIMER/DELAY
  +--> MARKASKEYPRESSED/SIDEKEY
  +--> _DELAY_MS/DELAY
  +--> SIDEKEY_LOGICHANDLER/SIDEKEY
  +--> SIDEKEY_TIM_CALLBACK/SIDEKEY
  +--> ISKEYEVENTOCCURRED/SIDEKEY

QUERYISSYSTEMNOTALLOWTOSLEEP/SLEEP            ----- -----  ----- -----

SYSTEMPERIPHERALCTRL/SLEEP                    20H.2 20H.2  ----- -----
  +--> ADC_INIT/ADCCFG
  +--> PWM_INIT/PWM
  +--> LED_INIT/LEDMGMT
  +--> OUTPUTCHANNEL_INIT/OUTPUTCHANNEL
  +--> SETSYSTEMHBTIMER/DELAY
  +--> PWM_DEINIT/PWM
  +--> ADC_DEINIT/ADCCFG
  +--> LOCATELED_ENABLE/LOCATELED
  +--> OUTPUTCHANNEL_DEINIT/OUTPUTCHANNEL

PWM_DEINIT/PWM                                ----- -----  ----- -----
  +--> _GPIO_SETMUXMODE/GPIO

LX51 LINKER/LOCATER V4.66.97.0                                                        05/01/2025  09:54:43  PAGE 15


ADC_DEINIT/ADCCFG                             ----- -----  0024H 0026H
  +--> ADCCFG
  +--> _GPIO_SETMUXMODE/GPIO
  +--> _GPIO_CONFIGGPIOMODE/GPIO
  +--> _GPIO_WRITEBIT/GPIO

LOCATELED_ENABLE/LOCATELED                    ----- -----  0024H 0026H
  +--> _GPIO_SETMUXMODE/GPIO
  +--> _GPIO_CONFIGGPIOMODE/GPIO

MARKASKEYPRESSED/SIDEKEY                      ----- -----  ----- -----
  +--> _GPIO_DISABLEINT/GPIO

_GPIO_DISABLEINT/GPIO                         ----- -----  ----- -----

LOCATELED_TIMHANDLER/LOCATELED                ----- -----  ----- -----

?C_INITSEG                                    ----- -----  ----- -----

*** NEW ROOT ********************************

TIMER2_IRQHANDLER/DELAY                       ----- -----  ----- -----

*** NEW ROOT ********************************

TIMER0_IRQHANDLER/DELAY                       ----- -----  ----- -----

*** NEW ROOT ********************************

KEY_IRQHANDLER/SIDEKEY                        ----- -----  ----- -----
  +--> SIDEKEY_INT_CALLBACK/SIDEKEY

SIDEKEY_INT_CALLBACK/SIDEKEY                  ----- -----  ----- -----
  +--> _GPIO_GETEXTINTMODE/GPIO
  +--> _GPIO_DISABLEINT/GPIO

_GPIO_GETEXTINTMODE/GPIO                      ----- -----  ----- -----
  +--> GPIO



PUBLIC SYMBOLS OF MODULE:  .\Objects\XTRBoost (?C_STARTUP)


      VALUE       CLASS    TYPE      PUBLIC SYMBOL NAME
      =================================================
      00000020H.3 BIT      BIT       ?_GPIO_WriteBit?BIT
      01000393H   CODE     ---       ?C?CASTF
      0100044FH   CODE     ---       ?C?CLDOPTR
      01000436H   CODE     ---       ?C?CLDPTR
      00000000H   NUMBER   ---       ?C?CODESEG
      0100047CH   CODE     ---       ?C?CSTPTR
      0100035FH   CODE     ---       ?C?FCASTC
      0100035AH   CODE     ---       ?C?FCASTI
      01000355H   CODE     ---       ?C?FCASTL
      01000045H   CODE     ---       ?C?FPADD
      010002DEH   CODE     ---       ?C?FPCMP
      010002DCH   CODE     ---       ?C?FPCMP3
      0100023FH   CODE     ---       ?C?FPDIV
      010003CAH   CODE     ---       ?C?FPGETOPN2
      01000136H   CODE     ---       ?C?FPMUL
      010003FFH   CODE     ---       ?C?FPNANRESULT
      01000409H   CODE     ---       ?C?FPOVERFLOW
      010003E1H   CODE     ---       ?C?FPRESULT
      010003F5H   CODE     ---       ?C?FPRESULT2
LX51 LINKER/LOCATER V4.66.97.0                                                        05/01/2025  09:54:43  PAGE 16


      01000041H   CODE     ---       ?C?FPSUB
      01000406H   CODE     ---       ?C?FPUNDERFLOW
      010004D6H   CODE     ---       ?C?ILDOPTR
      0100048EH   CODE     ---       ?C?IMUL
      0100050EH   CODE     ---       ?C?ISTPTR
      01000692H   CODE     ---       ?C?LLDCODE
      0100052DH   CODE     ---       ?C?LMUL
      0100064AH   CODE     ---       ?C?LNEG
      010006AEH   CODE     ---       ?C?LSTKXDATA
      010006A2H   CODE     ---       ?C?LSTXDATA
      010006DFH   CODE     ---       ?C?OFFXADD
      01000414H   CODE     ---       ?C?SCDIV
      010004A0H   CODE     ---       ?C?SIDIV
      01000658H   CODE     ---       ?C?SLCMP
      01003398H   CODE     ---       ?C?SLDIV
      010006EBH   CODE     ---       ?C?UIDIV
      0100066EH   CODE     ---       ?C?ULCMP
      010005B8H   CODE     ---       ?C?ULDIV
      0100067FH   CODE     ---       ?C?ULSHR
      00000000H   NUMBER   ---       ?C?XDATASEG
      010024BAH   CODE     ---       ?C_START
      01000000H   CODE     NEAR LAB  ?C_STARTUP
      00000020H.1 BIT      BIT       ?getSideKeyShortPressCount?BIT
      00000020H.2 BIT      BIT       ?PWM_ForceEnableOut?BIT
      00000020H.2 BIT      BIT       ?SaveSysConfig?BIT
      00000020H.3 BIT      BIT       ?SetFlashState?BIT
      00000020H.3 BIT      BIT       ?SetSystemHBTimer?BIT
      00000020H.2 BIT      BIT       ?SystemPeripheralCTRL?BIT
      01003308H   CODE     ---       _BatteryLowAlertProcess
      01001947H   CODE     ---       _CalcNTCTemp
      01001FDCH   CODE     ---       _delay_ms
      01003352H   CODE     ---       _EnterTurboStrobe
      01003782H   CODE     ---       _Flash_Operation
      0100383AH   CODE     ---       _GPIO_CheckIfIntEnabled
      01000DBFH   CODE     ---       _GPIO_ConfigGPIOMode
      01003A3EH   CODE     ---       _GPIO_DisableInt
      01003B45H   CODE     ---       _GPIO_EnableInt
      010024FFH   CODE     ---       _GPIO_GetExtIntMode
      0100302CH   CODE     ---       _GPIO_SetExtIntMode
      01002C06H   CODE     ---       _GPIO_SetMUXMode
      01001F24H   CODE     ---       _GPIO_WriteBit
      01003960H   CODE     ---       _LeaveSpecialMode
      01002B1EH   CODE     ---       _LocateLED_Edit
      010038BAH   CODE     ---       _MakeFastStrobe
      010035D2H   CODE     ---       _PowerToNormalMode
      010032BEH   CODE     ---       _RecalcPILoop
      01003BE3H   CODE     ---       _ReportError
      0100283DH   CODE     ---       _SpecialModeOperation
      01002A2FH   CODE     ---       _SwitchToGear
*SFR* 000000D0H.6 DATA     BIT       AC
*SFR* 000000E0H   DATA     BYTE      ACC
      01002596H   CODE     ---       ADC_DeInit
      01002092H   CODE     ---       ADC_Init
      01003FF6H   CONST    ---       ADCChQueue
*SFR* 000000D1H   DATA     BYTE      ADCMPC
*SFR* 000000D5H   DATA     BYTE      ADCMPH
*SFR* 000000D4H   DATA     BYTE      ADCMPL
*SFR* 000000DFH   DATA     BYTE      ADCON0
*SFR* 000000DEH   DATA     BYTE      ADCON1
*SFR* 000000E9H   DATA     BYTE      ADCON2
*SFR* 000000D3H   DATA     BYTE      ADDLYL
*SFR* 000000DDH   DATA     BYTE      ADRESH
*SFR* 000000DCH   DATA     BYTE      ADRESL
*SFR* 000000A0H.6 DATA     BIT       AUXEN
*SFR* 000000F0H   DATA     BYTE      B
LX51 LINKER/LOCATER V4.66.97.0                                                        05/01/2025  09:54:43  PAGE 17


      010037DFH   CODE     ---       BattAlertTIMHandler
      01001306H   CODE     ---       BattDisplayTIM
      0200000CH   XDATA    FLOAT     Battery
      01001C03H   CODE     ---       BatteryTelemHandler
      00000056H   DATA     BYTE      BattState
      01003139H   CODE     ---       BeaconFSM
      01003D08H   CODE     ---       BeaconFSM_Reset
      01003E00H   CODE     ---       BeaconFSM_TIMHandler
*SFR* 000000B0H.2 DATA     BIT       BOOSTRUN
*SFR* 000000BFH   DATA     BYTE      BUZCON
*SFR* 000000BEH   DATA     BYTE      BUZDIV
      01003598H   CODE     ---       CalcTurboILIM
*SFR* 000000C8H.5 DATA     BIT       CAPES
*SFR* 000000CEH   DATA     BYTE      CCEN
*SFR* 000000C3H   DATA     BYTE      CCH1
*SFR* 000000C5H   DATA     BYTE      CCH2
*SFR* 000000C7H   DATA     BYTE      CCH3
*SFR* 000000C2H   DATA     BYTE      CCL1
*SFR* 000000C4H   DATA     BYTE      CCL2
*SFR* 000000C6H   DATA     BYTE      CCL3
*SFR* 0000008EH   DATA     BYTE      CKCON
      01003DEEH   CODE     ---       ClearError
      01003D8FH   CODE     ---       ClearSoftwareResetFlag
*SFR* 0000008FH   DATA     BYTE      CLKDIV
      02000027H   XDATA    INT       Current
      02000023H   XDATA    INT       CurrentBuf
      0000004DH   DATA     ---       CurrentMode
*SFR* 000000D0H.7 DATA     BIT       CY
      00000009H   DATA     ---       Data
      01003CE4H   CODE     ---       delay_init
      01002CE9H   CODE     ---       DisplayErrorIDHandler
      01003460H   CODE     ---       DisplayErrorTIMHandler
      02000038H   XDATA    CHAR      DisplayLockedTIM
      010034A2H   CODE     ---       DisplayTacModeEnabled
      01003520H   CODE     ---       DisplayVBattAtStart
*SFR* 00000083H   DATA     BYTE      DPH
*SFR* 00000083H   DATA     BYTE      DPH0
*SFR* 00000085H   DATA     BYTE      DPH1
*SFR* 00000082H   DATA     BYTE      DPL
*SFR* 00000082H   DATA     BYTE      DPL0
*SFR* 00000084H   DATA     BYTE      DPL1
*SFR* 00000086H   DATA     BYTE      DPS
*SFR* 00000093H   DATA     BYTE      DPX0
*SFR* 00000095H   DATA     BYTE      DPX1
*SFR* 000000A8H.7 DATA     BIT       EA
*SFR* 000000AAH   DATA     BYTE      EIE2
*SFR* 000000B2H   DATA     BYTE      EIF2
*SFR* 000000B9H   DATA     BYTE      EIP1
*SFR* 000000BAH   DATA     BYTE      EIP2
      02000031H   XDATA    BYTE      ErrCode
*SFR* 000000A8H.4 DATA     BIT       ES0
*SFR* 000000A8H.6 DATA     BIT       ES1
*SFR* 000000A8H.1 DATA     BIT       ET0
*SFR* 000000A8H.3 DATA     BIT       ET1
*SFR* 000000A8H.5 DATA     BIT       ET2
*SFR* 000000A8H.0 DATA     BIT       EX0
*SFR* 000000A8H.2 DATA     BIT       EX1
*SFR* 000000D0H.5 DATA     BIT       F0
*SFR* 00000091H   DATA     BYTE      FUNCCR
      01003E18H   CODE     ---       GetIfKeyPressed
      01003C2BH   CODE     ---       GetIfOutputEnabled
      01003C41H   CODE     ---       GetIfSystemInPOFFSeq
      01003DE5H   CODE     ---       getSideKey1HEvent
      01000003H   CODE     ---       getSideKeyHoldEvent
      01003D82H   CODE     ---       getSideKeyLongPressEvent
LX51 LINKER/LOCATER V4.66.97.0                                                        05/01/2025  09:54:43  PAGE 18


      0100000EH   CODE     ---       getSideKeyNClickAndHoldEvent
      01003BCBH   CODE     ---       getSideKeyShortPressCount
      0200003AH   XDATA    CHAR      HoldChangeGearTIM
      01002F00H   CODE     ---       HoldSwitchGearCmdHandler
*SFR* 000000F6H   DATA     BYTE      I2CMBUF
*SFR* 000000F5H   DATA     BYTE      I2CMCR
*SFR* 000000F4H   DATA     BYTE      I2CMSA
*SFR* 000000F5H   DATA     BYTE      I2CMSR
*SFR* 000000F7H   DATA     BYTE      I2CMTP
*SFR* 000000F1H   DATA     BYTE      I2CSADR
*SFR* 000000F3H   DATA     BYTE      I2CSBUF
*SFR* 000000F2H   DATA     BYTE      I2CSCR
*SFR* 000000F2H   DATA     BYTE      I2CSSR
*SFR* 000000C8H.6 DATA     BIT       I3FR
*SFR* 000000A8H   DATA     BYTE      IE
*SFR* 00000088H.1 DATA     BIT       IE0
*SFR* 00000088H.3 DATA     BIT       IE1
*SFR* 000000B8H   DATA     BYTE      IP
      00000022H.6 BIT      BIT       IsBatteryAlert
      00000022H.7 BIT      BIT       IsBatteryFault
      00000020H.6 BIT      BIT       IsDisableTurbo
      00000023H.3 BIT      BIT       IsDisplayLocked
      010036E9H   CODE     ---       IsErrorFatal
      00000021H.1 BIT      BIT       IsForceLeaveTurbo
      00000023H.1 BIT      BIT       IsHalfBrightness
      01003D75H   CODE     ---       IsKeyEventOccurred
      00000022H.0 BIT      BIT       IsNeedToUploadPWM
      02000021H   XDATA    BYTE      IsNotAllowAsync
      00000022H.4 BIT      BIT       IsRampEnabled
      00000021H.4 BIT      BIT       IsT0OVF
*SFR* 00000088H.0 DATA     BIT       IT0
*SFR* 00000088H.2 DATA     BIT       IT1
      010031DAH   CODE     ---       Key_IRQHandler
*SFR* 00000080H.0 DATA     BIT       KeyPress
      0200004CH   XDATA    BYTE      KeyState
      02000039H   XDATA    BYTE      LastMode
      01002938H   CODE     ---       LED_Init
      0100165AH   CODE     ---       LEDControlHandler
      0000005AH   DATA     BYTE      LEDMode
*SFR* 000000A0H.5 DATA     BIT       LEDMOS
      00000021H.3 BIT      BIT       LFStrobeFlag
      01003C97H   CODE     ---       LoadSleepTimer
      0100355DH   CODE     ---       LocateLED_Enable
      010036B3H   CODE     ---       LocateLED_ShowType
      010039D1H   CODE     ---       LocateLED_TIMHandler
      02000049H   XDATA    BYTE      LocLEDState
      010038E4H   CODE     ---       LowPowerStrobe
*SFR* 000000FDH   DATA     BYTE      MADRH
*SFR* 000000FCH   DATA     BYTE      MADRL
      010028BCH   CODE     ---       main
      01003AE6H   CODE     ---       MarkAsKeyPressed
*SFR* 000000FFH   DATA     BYTE      MCTRL
*SFR* 000000FEH   DATA     BYTE      MDATA
*SFR* 000000FBH   DATA     BYTE      MLOCK
      01001DA6H   CODE     ---       ModeFSMInit
      01003937H   CODE     ---       ModeFSMTIMHandler
      01003F77H   CONST    ---       ModeSettings
      01000740H   CODE     ---       ModeSwitchFSM
      01003EFDH   CONST    ---       NTCTableBottom
      01003E21H   CONST    ---       NTCTableTop
      01003087H   CODE     ---       OCFSM_TIMHandler
      01000A9AH   CODE     ---       OutputChannel_Calc
      01003B06H   CODE     ---       OutputChannel_DeInit
      01003273H   CODE     ---       OutputChannel_Init
      010027BEH   CODE     ---       OutputChannel_TestRun
LX51 LINKER/LOCATER V4.66.97.0                                                        05/01/2025  09:54:43  PAGE 19


      01001B1EH   CODE     ---       OutputFaultDetect
*SFR* 000000D0H.2 DATA     BIT       OV
*SFR* 000000D0H.0 DATA     BIT       P
*SFR* 00000080H   DATA     BYTE      P0
*SFR* 00000080H.0 DATA     BIT       P00
*SFR* 00000080H.1 DATA     BIT       P01
*SFR* 00000080H.2 DATA     BIT       P02
*SFR* 00000080H.3 DATA     BIT       P03
*SFR* 00000080H.4 DATA     BIT       P04
*SFR* 00000080H.5 DATA     BIT       P05
*SFR* 00000080H.6 DATA     BIT       P06
*SFR* 00000080H.7 DATA     BIT       P07
*SFR* 000000ACH   DATA     BYTE      P0EXTIE
*SFR* 000000B4H   DATA     BYTE      P0EXTIF
*SFR* 0000009AH   DATA     BYTE      P0TRIS
*SFR* 00000090H   DATA     BYTE      P1
*SFR* 00000090H.0 DATA     BIT       P10
*SFR* 00000090H.1 DATA     BIT       P11
*SFR* 00000090H.2 DATA     BIT       P12
*SFR* 00000090H.3 DATA     BIT       P13
*SFR* 00000090H.4 DATA     BIT       P14
*SFR* 00000090H.5 DATA     BIT       P15
*SFR* 00000090H.6 DATA     BIT       P16
*SFR* 00000090H.7 DATA     BIT       P17
*SFR* 000000ADH   DATA     BYTE      P1EXTIE
*SFR* 000000B5H   DATA     BYTE      P1EXTIF
*SFR* 000000A1H   DATA     BYTE      P1TRIS
*SFR* 000000A0H   DATA     BYTE      P2
*SFR* 000000A0H.0 DATA     BIT       P20
*SFR* 000000A0H.1 DATA     BIT       P21
*SFR* 000000A0H.2 DATA     BIT       P22
*SFR* 000000A0H.3 DATA     BIT       P23
*SFR* 000000A0H.4 DATA     BIT       P24
*SFR* 000000A0H.5 DATA     BIT       P25
*SFR* 000000A0H.6 DATA     BIT       P26
*SFR* 000000A0H.7 DATA     BIT       P27
*SFR* 000000AEH   DATA     BYTE      P2EXTIE
*SFR* 000000B6H   DATA     BYTE      P2EXTIF
*SFR* 000000A2H   DATA     BYTE      P2TRIS
*SFR* 000000B0H   DATA     BYTE      P3
*SFR* 000000B0H.0 DATA     BIT       P30
*SFR* 000000B0H.1 DATA     BIT       P31
*SFR* 000000B0H.2 DATA     BIT       P32
*SFR* 000000B0H.3 DATA     BIT       P33
*SFR* 000000B0H.4 DATA     BIT       P34
*SFR* 000000B0H.5 DATA     BIT       P35
*SFR* 000000B0H.6 DATA     BIT       P36
*SFR* 000000B0H.7 DATA     BIT       P37
*SFR* 000000AFH   DATA     BYTE      P3EXTIE
*SFR* 000000B7H   DATA     BYTE      P3EXTIF
*SFR* 000000A3H   DATA     BYTE      P3TRIS
*SFR* 00000087H   DATA     BYTE      PCON
*SFR* 000000A0H   DATA     BYTE      PPAGE_SFR
      0200002DH   XDATA    INT       PreChargeDACDuty
*SFR* 000000B8H.4 DATA     BIT       PS0
*SFR* 000000B8H.6 DATA     BIT       PS1
*SFR* 000000D0H   DATA     BYTE      PSW
*SFR* 000000B8H.1 DATA     BIT       PT0
*SFR* 000000B8H.3 DATA     BIT       PT1
*SFR* 000000B8H.5 DATA     BIT       PT2
      01003B63H   CODE     ---       PWM_DeInit
      0100367DH   CODE     ---       PWM_ForceEnableOut
      01001CDBH   CODE     ---       PWM_Init
      0100154FH   CODE     ---       PWM_OutputCtrlHandler
*SFR* 000000A0H.3 DATA     BIT       PWMDACEN
LX51 LINKER/LOCATER V4.66.97.0                                                        05/01/2025  09:54:43  PAGE 20


      02000029H   XDATA    FLOAT     PWMDuty
*SFR* 000000B8H.0 DATA     BIT       PX0
*SFR* 000000B8H.2 DATA     BIT       PX1
      01001762H   CODE     ---       RampLowVoltHandler
      01003CBEH   CODE     ---       RampRestoreLVProtToMax
      0100371EH   CODE     ---       RandStrobeHandler
      010026ADH   CODE     ---       ReadSysConfig
      01003DC7H   CODE     ---       ResetSOSModule
      01003DDBH   CODE     ---       ResetStrobeModule
      0100360CH   CODE     ---       RestoreToMinimumSysCurrent
      01003BB2H   CODE     ---       ReturnToOFFState
*SFR* 00000098H.0 DATA     BIT       RI0
*SFR* 000000CBH   DATA     BYTE      RLDH
*SFR* 000000CAH   DATA     BYTE      RLDL
*SFR* 000000D0H.3 DATA     BIT       RS0
*SFR* 000000D0H.4 DATA     BIT       RS1
      01001E66H   CODE     ---       SaveSysConfig
*SFR* 00000099H   DATA     BYTE      SBUF
*SFR* 00000099H   DATA     BYTE      SBUF0
*SFR* 000000EBH   DATA     BYTE      SBUF1
*SFR* 00000098H   DATA     BYTE      SCON0
*SFR* 000000EAH   DATA     BYTE      SCON1
      01003D1AH   CODE     ---       SetFlashState
      01003866H   CODE     ---       SetSystemHBTimer
      01002C78H   CODE     ---       ShowThermalStepDown
      01002F67H   CODE     ---       SideKey_Int_Callback
      01002292H   CODE     ---       SideKey_LogicHandler
      010034E3H   CODE     ---       SideKey_TIM_Callback
      010033DCH   CODE     ---       SideKeyInit
      01002E2FH   CODE     ---       SleepMgmt
      0000005DH   DATA     INT       SleepTimer
      01002B93H   CODE     ---       SOSFSM
      01003CF6H   CODE     ---       SOSTIMHandler
*SFR* 00000081H   DATA     BYTE      SP
*SFR* 000000ECH   DATA     BYTE      SPCR
*SFR* 000000EEH   DATA     BYTE      SPDR
*SFR* 000000EDH   DATA     BYTE      SPSR
*SFR* 000000EFH   DATA     BYTE      SSCR
      00000021H.6 BIT      BIT       StrobeFlag
      01003E09H   CODE     ---       StrobeOutputHandler
      00000044H   DATA     ---       SysCfg
*SFR* 00000080H.4 DATA     BIT       SYSHBLED
      00000021H.5 BIT      BIT       SysHFBitFlag
      0000005FH   DATA     BYTE      SysMode
      01003AC5H   CODE     ---       SystemPeripheralCTRL
      01003E1EH   CODE     ---       SystemTelemHandler
*SFR* 000000C8H.2 DATA     BIT       T2CM
*SFR* 000000C8H   DATA     BYTE      T2CON
*SFR* 000000C8H.0 DATA     BIT       T2I0
*SFR* 000000C8H.1 DATA     BIT       T2I1
*SFR* 000000CFH   DATA     BYTE      T2IE
*SFR* 000000C9H   DATA     BYTE      T2IF
*SFR* 000000C8H.7 DATA     BIT       T2PS
*SFR* 000000C8H.3 DATA     BIT       T2R0
*SFR* 000000C8H.4 DATA     BIT       T2R1
*SFR* 000000D2H   DATA     BYTE      T34MOD
*SFR* 00000096H   DATA     BYTE      TA
*SFR* 00000088H   DATA     BYTE      TCON
*SFR* 00000088H.5 DATA     BIT       TF0
*SFR* 00000088H.7 DATA     BIT       TF1
*SFR* 0000008CH   DATA     BYTE      TH0
*SFR* 0000008DH   DATA     BYTE      TH1
*SFR* 000000CDH   DATA     BYTE      TH2
*SFR* 000000DBH   DATA     BYTE      TH3
*SFR* 000000E3H   DATA     BYTE      TH4
LX51 LINKER/LOCATER V4.66.97.0                                                        05/01/2025  09:54:43  PAGE 21


      01002DC5H   CODE     ---       ThermalILIMCalc
      01002737H   CODE     ---       ThermalMgmtProcess
      0100142DH   CODE     ---       ThermalPILoopCalc
*SFR* 00000098H.1 DATA     BIT       TI0
      01003E12H   CODE     ---       Timer0_IRQHandler
      0100002EH   CODE     ---       Timer2_IRQHandler
*SFR* 0000008AH   DATA     BYTE      TL0
*SFR* 0000008BH   DATA     BYTE      TL1
*SFR* 000000CCH   DATA     BYTE      TL2
*SFR* 000000DAH   DATA     BYTE      TL3
*SFR* 000000E2H   DATA     BYTE      TL4
*SFR* 00000089H   DATA     BYTE      TMOD
*SFR* 00000088H.4 DATA     BIT       TR0
*SFR* 00000088H.6 DATA     BIT       TR1
      01003D59H   CODE     ---       TriggerSoftwareReset
      01003B99H   CODE     ---       TriggerVshowDisplay
      0200003EH   XDATA    INT       TurboILIM
      01002622H   CODE     ---       TurboLVILIMProcess
*SFR* 00000098H.2 DATA     BIT       U0RB8
*SFR* 00000098H.4 DATA     BIT       U0REN
*SFR* 00000098H.7 DATA     BIT       U0SM0
*SFR* 00000098H.6 DATA     BIT       U0SM1
*SFR* 00000098H.5 DATA     BIT       U0SM2
*SFR* 00000098H.3 DATA     BIT       U0TB8
      02000002H   XDATA    BYTE      VshowFSMState
*SFR* 00000097H   DATA     BYTE      WDCON
*SFR* 000000BDH   DATA     BYTE      WUTCRH
*SFR* 000000BCH   DATA     BYTE      WUTCRL



SYMBOL TABLE OF MODULE:  .\Objects\XTRBoost (?C_STARTUP)

      VALUE       REP       CLASS    TYPE      SYMBOL NAME
      ====================================================
      ---         MODULE    ---      ---       ?C_STARTUP
      01000000H   PUBLIC    CODE     NEAR LAB  ?C_STARTUP
      000000E0H   SFRSYM    DATA     BYTE      ACC
      000000F0H   SFRSYM    DATA     BYTE      B
      00000083H   SFRSYM    DATA     BYTE      DPH
      00000082H   SFRSYM    DATA     BYTE      DPL
      000000A0H   SFRSYM    DATA     BYTE      PPAGE_SFR
      00000081H   SFRSYM    DATA     BYTE      SP
      00000000H   SYMBOL    NUMBER   ---       IBPSTACK
      00000100H   SYMBOL    NUMBER   ---       IBPSTACKTOP
      00000100H   SYMBOL    NUMBER   ---       IDATALEN
      01002468H   SYMBOL    CODE     NEAR LAB  IDATALOOP
      00000000H   SYMBOL    NUMBER   ---       PBPSTACK
      00000100H   SYMBOL    NUMBER   ---       PBPSTACKTOP
      00000000H   SYMBOL    NUMBER   ---       PDATALEN
      00000000H   SYMBOL    NUMBER   ---       PDATASTART
      00000000H   SYMBOL    NUMBER   ---       PPAGE
      00000000H   SYMBOL    NUMBER   ---       PPAGEENABLE
      01002465H   SYMBOL    CODE     NEAR LAB  STARTUP1
      00000000H   SYMBOL    NUMBER   ---       XBPSTACK
      00010000H   SYMBOL    NUMBER   ---       XBPSTACKTOP
      00000400H   SYMBOL    NUMBER   ---       XDATALEN
      01002473H   SYMBOL    CODE     NEAR LAB  XDATALOOP
      00000000H   SYMBOL    NUMBER   ---       XDATASTART

      01000000H   BLOCK     CODE     NEAR LAB  LVL=0
      01000000H   LINE      CODE     ---       #126
      ---         BLOCKEND  ---      ---       LVL=0

      01002465H   BLOCK     CODE     NEAR LAB  LVL=0
LX51 LINKER/LOCATER V4.66.97.0                                                        05/01/2025  09:54:43  PAGE 22


      01002465H   LINE      CODE     ---       #133
      01002467H   LINE      CODE     ---       #134
      01002468H   LINE      CODE     ---       #135
      01002469H   LINE      CODE     ---       #136
      0100246BH   LINE      CODE     ---       #140
      0100246EH   LINE      CODE     ---       #141
      01002470H   LINE      CODE     ---       #145
      01002472H   LINE      CODE     ---       #147
      01002473H   LINE      CODE     ---       #148
      01002474H   LINE      CODE     ---       #149
      01002475H   LINE      CODE     ---       #150
      01002477H   LINE      CODE     ---       #151
      01002479H   LINE      CODE     ---       #185
      0100247CH   LINE      CODE     ---       #196
      ---         BLOCKEND  ---      ---       LVL=0

      ---         MODULE    ---      ---       MAIN
      010028BCH   PUBLIC    CODE     ---       main
      000000C8H.0 SFRSYM    DATA     BIT       T2I0
      000000C3H   SFRSYM    DATA     BYTE      CCH1
      00000080H   SFRSYM    DATA     BYTE      P0
      000000C8H.1 SFRSYM    DATA     BIT       T2I1
      000000C5H   SFRSYM    DATA     BYTE      CCH2
      00000090H   SFRSYM    DATA     BYTE      P1
      000000C7H   SFRSYM    DATA     BYTE      CCH3
      000000ACH   SFRSYM    DATA     BYTE      P0EXTIE
      000000A0H   SFRSYM    DATA     BYTE      P2
      000000B4H   SFRSYM    DATA     BYTE      P0EXTIF
      000000B0H   SFRSYM    DATA     BYTE      P3
      000000ADH   SFRSYM    DATA     BYTE      P1EXTIE
      000000D0H.6 SFRSYM    DATA     BIT       AC
      000000FFH   SFRSYM    DATA     BYTE      MCTRL
      000000C2H   SFRSYM    DATA     BYTE      CCL1
      000000B5H   SFRSYM    DATA     BYTE      P1EXTIF
      000000AEH   SFRSYM    DATA     BYTE      P2EXTIE
      000000C4H   SFRSYM    DATA     BYTE      CCL2
      000000B6H   SFRSYM    DATA     BYTE      P2EXTIF
      000000AFH   SFRSYM    DATA     BYTE      P3EXTIE
      000000A8H.7 SFRSYM    DATA     BIT       EA
      000000C6H   SFRSYM    DATA     BYTE      CCL3
      000000B7H   SFRSYM    DATA     BYTE      P3EXTIF
      000000AAH   SFRSYM    DATA     BYTE      EIE2
      000000B2H   SFRSYM    DATA     BYTE      EIF2
      000000C8H.3 SFRSYM    DATA     BIT       T2R0
      000000C8H.4 SFRSYM    DATA     BIT       T2R1
      00000083H   SFRSYM    DATA     BYTE      DPH0
      000000A8H   SFRSYM    DATA     BYTE      IE
      00000085H   SFRSYM    DATA     BYTE      DPH1
      000000B9H   SFRSYM    DATA     BYTE      EIP1
      000000BAH   SFRSYM    DATA     BYTE      EIP2
      00000082H   SFRSYM    DATA     BYTE      DPL0
      00000084H   SFRSYM    DATA     BYTE      DPL1
      000000C8H.6 SFRSYM    DATA     BIT       I3FR
      000000CFH   SFRSYM    DATA     BYTE      T2IE
      00000096H   SFRSYM    DATA     BYTE      TA
      000000C9H   SFRSYM    DATA     BYTE      T2IF
      000000C8H.2 SFRSYM    DATA     BIT       T2CM
      000000DFH   SFRSYM    DATA     BYTE      ADCON0
      000000DEH   SFRSYM    DATA     BYTE      ADCON1
      000000E9H   SFRSYM    DATA     BYTE      ADCON2
      000000B8H   SFRSYM    DATA     BYTE      IP
      000000CEH   SFRSYM    DATA     BYTE      CCEN
      000000D0H.7 SFRSYM    DATA     BIT       CY
      000000D2H   SFRSYM    DATA     BYTE      T34MOD
      00000093H   SFRSYM    DATA     BYTE      DPX0
LX51 LINKER/LOCATER V4.66.97.0                                                        05/01/2025  09:54:43  PAGE 23


      00000095H   SFRSYM    DATA     BYTE      DPX1
      000000F4H   SFRSYM    DATA     BYTE      I2CMSA
      000000F5H   SFRSYM    DATA     BYTE      I2CMCR
      00000081H   SFRSYM    DATA     BYTE      SP
      000000D0H.2 SFRSYM    DATA     BIT       OV
      000000F2H   SFRSYM    DATA     BYTE      I2CSCR
      000000C8H.7 SFRSYM    DATA     BIT       T2PS
      000000D1H   SFRSYM    DATA     BYTE      ADCMPC
      000000CBH   SFRSYM    DATA     BYTE      RLDH
      000000D5H   SFRSYM    DATA     BYTE      ADCMPH
      000000CAH   SFRSYM    DATA     BYTE      RLDL
      00000080H.0 SFRSYM    DATA     BIT       P00
      00000090H.0 SFRSYM    DATA     BIT       P10
      00000080H.1 SFRSYM    DATA     BIT       P01
      000000F7H   SFRSYM    DATA     BYTE      I2CMTP
      00000099H   SFRSYM    DATA     BYTE      SBUF
      00000087H   SFRSYM    DATA     BYTE      PCON
      000000A0H.0 SFRSYM    DATA     BIT       P20
      00000090H.1 SFRSYM    DATA     BIT       P11
      00000080H.2 SFRSYM    DATA     BIT       P02
      000000F5H   SFRSYM    DATA     BYTE      I2CMSR
      000000B0H.0 SFRSYM    DATA     BIT       P30
      000000A0H.1 SFRSYM    DATA     BIT       P21
      00000090H.2 SFRSYM    DATA     BIT       P12
      00000080H.3 SFRSYM    DATA     BIT       P03
      000000D4H   SFRSYM    DATA     BYTE      ADCMPL
      000000B0H.1 SFRSYM    DATA     BIT       P31
      000000A0H.2 SFRSYM    DATA     BIT       P22
      00000090H.3 SFRSYM    DATA     BIT       P13
      00000080H.4 SFRSYM    DATA     BIT       P04
      000000B0H.2 SFRSYM    DATA     BIT       P32
      000000A0H.3 SFRSYM    DATA     BIT       P23
      00000090H.4 SFRSYM    DATA     BIT       P14
      00000080H.5 SFRSYM    DATA     BIT       P05
      00000089H   SFRSYM    DATA     BYTE      TMOD
      00000088H   SFRSYM    DATA     BYTE      TCON
      000000B0H.3 SFRSYM    DATA     BIT       P33
      000000A0H.4 SFRSYM    DATA     BIT       P24
      00000090H.5 SFRSYM    DATA     BIT       P15
      00000080H.6 SFRSYM    DATA     BIT       P06
      000000B0H.4 SFRSYM    DATA     BIT       P34
      000000A0H.5 SFRSYM    DATA     BIT       P25
      00000090H.6 SFRSYM    DATA     BIT       P16
      00000080H.7 SFRSYM    DATA     BIT       P07
      000000B0H.5 SFRSYM    DATA     BIT       P35
      000000A0H.6 SFRSYM    DATA     BIT       P26
      00000090H.7 SFRSYM    DATA     BIT       P17
      000000F2H   SFRSYM    DATA     BYTE      I2CSSR
      000000B0H.6 SFRSYM    DATA     BIT       P36
      000000A0H.7 SFRSYM    DATA     BIT       P27
      000000ECH   SFRSYM    DATA     BYTE      SPCR
      000000DDH   SFRSYM    DATA     BYTE      ADRESH
      000000B0H.7 SFRSYM    DATA     BIT       P37
      000000EEH   SFRSYM    DATA     BYTE      SPDR
      000000EFH   SFRSYM    DATA     BYTE      SSCR
      000000D3H   SFRSYM    DATA     BYTE      ADDLYL
      000000DCH   SFRSYM    DATA     BYTE      ADRESL
      00000088H.1 SFRSYM    DATA     BIT       IE0
      00000088H.3 SFRSYM    DATA     BIT       IE1
      0000008FH   SFRSYM    DATA     BYTE      CLKDIV
      000000F0H   SFRSYM    DATA     BYTE      B
      00000091H   SFRSYM    DATA     BYTE      FUNCCR
      0000009AH   SFRSYM    DATA     BYTE      P0TRIS
      000000A1H   SFRSYM    DATA     BYTE      P1TRIS
      000000A2H   SFRSYM    DATA     BYTE      P2TRIS
LX51 LINKER/LOCATER V4.66.97.0                                                        05/01/2025  09:54:43  PAGE 24


      000000E0H   SFRSYM    DATA     BYTE      ACC
      000000A3H   SFRSYM    DATA     BYTE      P3TRIS
      000000A8H.4 SFRSYM    DATA     BIT       ES0
      000000A8H.6 SFRSYM    DATA     BIT       ES1
      000000A8H.1 SFRSYM    DATA     BIT       ET0
      000000EDH   SFRSYM    DATA     BYTE      SPSR
      000000A8H.3 SFRSYM    DATA     BIT       ET1
      00000088H.5 SFRSYM    DATA     BIT       TF0
      000000A8H.5 SFRSYM    DATA     BIT       ET2
      00000098H.0 SFRSYM    DATA     BIT       RI0
      00000088H.7 SFRSYM    DATA     BIT       TF1
      0000008CH   SFRSYM    DATA     BYTE      TH0
      000000A8H.0 SFRSYM    DATA     BIT       EX0
      00000098H.1 SFRSYM    DATA     BIT       TI0
      00000088H.0 SFRSYM    DATA     BIT       IT0
      0000008DH   SFRSYM    DATA     BYTE      TH1
      000000A8H.2 SFRSYM    DATA     BIT       EX1
      00000088H.2 SFRSYM    DATA     BIT       IT1
      000000CDH   SFRSYM    DATA     BYTE      TH2
      000000D0H.0 SFRSYM    DATA     BIT       P
      000000DBH   SFRSYM    DATA     BYTE      TH3
      000000E3H   SFRSYM    DATA     BYTE      TH4
      0000008AH   SFRSYM    DATA     BYTE      TL0
      0000008BH   SFRSYM    DATA     BYTE      TL1
      00000098H.2 SFRSYM    DATA     BIT       U0RB8
      000000CCH   SFRSYM    DATA     BYTE      TL2
      000000B8H.4 SFRSYM    DATA     BIT       PS0
      000000DAH   SFRSYM    DATA     BYTE      TL3
      000000BFH   SFRSYM    DATA     BYTE      BUZCON
      000000B8H.6 SFRSYM    DATA     BIT       PS1
      000000B8H.1 SFRSYM    DATA     BIT       PT0
      00000098H.3 SFRSYM    DATA     BIT       U0TB8
      000000E2H   SFRSYM    DATA     BYTE      TL4
      000000D0H.3 SFRSYM    DATA     BIT       RS0
      000000B8H.3 SFRSYM    DATA     BIT       PT1
      000000D0H.4 SFRSYM    DATA     BIT       RS1
      000000B8H.5 SFRSYM    DATA     BIT       PT2
      00000098H.7 SFRSYM    DATA     BIT       U0SM0
      00000088H.4 SFRSYM    DATA     BIT       TR0
      000000BEH   SFRSYM    DATA     BYTE      BUZDIV
      00000098H.6 SFRSYM    DATA     BIT       U0SM1
      00000088H.6 SFRSYM    DATA     BIT       TR1
      000000B8H.0 SFRSYM    DATA     BIT       PX0
      00000098H.5 SFRSYM    DATA     BIT       U0SM2
      000000B8H.2 SFRSYM    DATA     BIT       PX1
      000000BDH   SFRSYM    DATA     BYTE      WUTCRH
      00000099H   SFRSYM    DATA     BYTE      SBUF0
      000000EBH   SFRSYM    DATA     BYTE      SBUF1
      000000BCH   SFRSYM    DATA     BYTE      WUTCRL
      00000098H   SFRSYM    DATA     BYTE      SCON0
      000000EAH   SFRSYM    DATA     BYTE      SCON1
      000000C8H   SFRSYM    DATA     BYTE      T2CON
      00000086H   SFRSYM    DATA     BYTE      DPS
      000000FEH   SFRSYM    DATA     BYTE      MDATA
      000000F6H   SFRSYM    DATA     BYTE      I2CMBUF
      000000F1H   SFRSYM    DATA     BYTE      I2CSADR
      00000098H.4 SFRSYM    DATA     BIT       U0REN
      000000C8H.5 SFRSYM    DATA     BIT       CAPES
      000000FDH   SFRSYM    DATA     BYTE      MADRH
      0000008EH   SFRSYM    DATA     BYTE      CKCON
      000000F3H   SFRSYM    DATA     BYTE      I2CSBUF
      000000FCH   SFRSYM    DATA     BYTE      MADRL
      000000D0H.5 SFRSYM    DATA     BIT       F0
      000000FBH   SFRSYM    DATA     BYTE      MLOCK
      000000D0H   SFRSYM    DATA     BYTE      PSW
LX51 LINKER/LOCATER V4.66.97.0                                                        05/01/2025  09:54:43  PAGE 25


      00000097H   SFRSYM    DATA     BYTE      WDCON

      010028BCH   BLOCK     CODE     ---       LVL=0
      010028BCH   BLOCK     CODE     NEAR LAB  LVL=1
      00000020H.0 SYMBOL    BIT      BIT       TaskSel
      ---         BLOCKEND  ---      ---       LVL=1
      010028BCH   LINE      CODE     ---       #24
      010028BCH   LINE      CODE     ---       #25
      010028BCH   LINE      CODE     ---       #26
      010028BEH   LINE      CODE     ---       #28
      010028C1H   LINE      CODE     ---       #29
      010028C4H   LINE      CODE     ---       #30
      010028C9H   LINE      CODE     ---       #32
      010028CCH   LINE      CODE     ---       #33
      010028CFH   LINE      CODE     ---       #34
      010028D2H   LINE      CODE     ---       #35
      010028D5H   LINE      CODE     ---       #36
      010028D8H   LINE      CODE     ---       #37
      010028DBH   LINE      CODE     ---       #38
      010028DEH   LINE      CODE     ---       #39
      010028E1H   LINE      CODE     ---       #40
      010028E6H   LINE      CODE     ---       #42
      010028E6H   LINE      CODE     ---       #43
      010028E6H   LINE      CODE     ---       #45
      010028E9H   LINE      CODE     ---       #46
      010028ECH   LINE      CODE     ---       #47
      010028EFH   LINE      CODE     ---       #48
      010028F2H   LINE      CODE     ---       #49
      010028F5H   LINE      CODE     ---       #50
      010028F8H   LINE      CODE     ---       #51
      010028FBH   LINE      CODE     ---       #53
      010028FEH   LINE      CODE     ---       #54
      01002900H   LINE      CODE     ---       #56
      01002903H   LINE      CODE     ---       #57
      01002903H   LINE      CODE     ---       #58
      01002906H   LINE      CODE     ---       #59
      01002909H   LINE      CODE     ---       #60
      0100290CH   LINE      CODE     ---       #61
      0100290FH   LINE      CODE     ---       #62
      01002912H   LINE      CODE     ---       #63
      01002915H   LINE      CODE     ---       #64
      01002918H   LINE      CODE     ---       #65
      0100291BH   LINE      CODE     ---       #67
      0100291DH   LINE      CODE     ---       #68
      0100291FH   LINE      CODE     ---       #71
      0100291FH   LINE      CODE     ---       #72
      01002922H   LINE      CODE     ---       #73
      01002925H   LINE      CODE     ---       #74
      01002928H   LINE      CODE     ---       #75
      0100292BH   LINE      CODE     ---       #76
      0100292EH   LINE      CODE     ---       #77
      01002931H   LINE      CODE     ---       #78
      01002934H   LINE      CODE     ---       #80
      01002936H   LINE      CODE     ---       #81
      01002936H   LINE      CODE     ---       #82
      ---         BLOCKEND  ---      ---       LVL=0

      ---         MODULE    ---      ---       GPIO
      01002C06H   PUBLIC    CODE     ---       _GPIO_SetMUXMode
      010024FFH   PUBLIC    CODE     ---       _GPIO_GetExtIntMode
      0100302CH   PUBLIC    CODE     ---       _GPIO_SetExtIntMode
      00000020H.3 PUBLIC    BIT      BIT       ?_GPIO_WriteBit?BIT
      01001F24H   PUBLIC    CODE     ---       _GPIO_WriteBit
      01003A3EH   PUBLIC    CODE     ---       _GPIO_DisableInt
      0100383AH   PUBLIC    CODE     ---       _GPIO_CheckIfIntEnabled
LX51 LINKER/LOCATER V4.66.97.0                                                        05/01/2025  09:54:43  PAGE 26


      01003B45H   PUBLIC    CODE     ---       _GPIO_EnableInt
      01000DBFH   PUBLIC    CODE     ---       _GPIO_ConfigGPIOMode
      000000C8H.0 SFRSYM    DATA     BIT       T2I0
      000000C3H   SFRSYM    DATA     BYTE      CCH1
      00000080H   SFRSYM    DATA     BYTE      P0
      000000C8H.1 SFRSYM    DATA     BIT       T2I1
      000000C5H   SFRSYM    DATA     BYTE      CCH2
      00000090H   SFRSYM    DATA     BYTE      P1
      000000C7H   SFRSYM    DATA     BYTE      CCH3
      000000ACH   SFRSYM    DATA     BYTE      P0EXTIE
      000000A0H   SFRSYM    DATA     BYTE      P2
      000000B4H   SFRSYM    DATA     BYTE      P0EXTIF
      000000B0H   SFRSYM    DATA     BYTE      P3
      000000ADH   SFRSYM    DATA     BYTE      P1EXTIE
      000000D0H.6 SFRSYM    DATA     BIT       AC
      000000FFH   SFRSYM    DATA     BYTE      MCTRL
      000000C2H   SFRSYM    DATA     BYTE      CCL1
      000000B5H   SFRSYM    DATA     BYTE      P1EXTIF
      000000AEH   SFRSYM    DATA     BYTE      P2EXTIE
      000000C4H   SFRSYM    DATA     BYTE      CCL2
      000000B6H   SFRSYM    DATA     BYTE      P2EXTIF
      000000AFH   SFRSYM    DATA     BYTE      P3EXTIE
      000000A8H.7 SFRSYM    DATA     BIT       EA
      000000C6H   SFRSYM    DATA     BYTE      CCL3
      000000B7H   SFRSYM    DATA     BYTE      P3EXTIF
      000000AAH   SFRSYM    DATA     BYTE      EIE2
      000000B2H   SFRSYM    DATA     BYTE      EIF2
      000000C8H.3 SFRSYM    DATA     BIT       T2R0
      000000C8H.4 SFRSYM    DATA     BIT       T2R1
      00000083H   SFRSYM    DATA     BYTE      DPH0
      000000A8H   SFRSYM    DATA     BYTE      IE
      00000085H   SFRSYM    DATA     BYTE      DPH1
      000000B9H   SFRSYM    DATA     BYTE      EIP1
      000000BAH   SFRSYM    DATA     BYTE      EIP2
      00000082H   SFRSYM    DATA     BYTE      DPL0
      00000084H   SFRSYM    DATA     BYTE      DPL1
      000000C8H.6 SFRSYM    DATA     BIT       I3FR
      000000CFH   SFRSYM    DATA     BYTE      T2IE
      00000096H   SFRSYM    DATA     BYTE      TA
      000000C9H   SFRSYM    DATA     BYTE      T2IF
      000000C8H.2 SFRSYM    DATA     BIT       T2CM
      000000DFH   SFRSYM    DATA     BYTE      ADCON0
      000000DEH   SFRSYM    DATA     BYTE      ADCON1
      000000E9H   SFRSYM    DATA     BYTE      ADCON2
      000000B8H   SFRSYM    DATA     BYTE      IP
      000000CEH   SFRSYM    DATA     BYTE      CCEN
      000000D0H.7 SFRSYM    DATA     BIT       CY
      000000D2H   SFRSYM    DATA     BYTE      T34MOD
      00000093H   SFRSYM    DATA     BYTE      DPX0
      00000095H   SFRSYM    DATA     BYTE      DPX1
      000000F4H   SFRSYM    DATA     BYTE      I2CMSA
      000000F5H   SFRSYM    DATA     BYTE      I2CMCR
      00000081H   SFRSYM    DATA     BYTE      SP
      000000D0H.2 SFRSYM    DATA     BIT       OV
      000000F2H   SFRSYM    DATA     BYTE      I2CSCR
      000000C8H.7 SFRSYM    DATA     BIT       T2PS
      000000D1H   SFRSYM    DATA     BYTE      ADCMPC
      000000CBH   SFRSYM    DATA     BYTE      RLDH
      000000D5H   SFRSYM    DATA     BYTE      ADCMPH
      000000CAH   SFRSYM    DATA     BYTE      RLDL
      00000080H.0 SFRSYM    DATA     BIT       P00
      00000090H.0 SFRSYM    DATA     BIT       P10
      00000080H.1 SFRSYM    DATA     BIT       P01
      000000F7H   SFRSYM    DATA     BYTE      I2CMTP
      00000099H   SFRSYM    DATA     BYTE      SBUF
LX51 LINKER/LOCATER V4.66.97.0                                                        05/01/2025  09:54:43  PAGE 27


      00000087H   SFRSYM    DATA     BYTE      PCON
      000000A0H.0 SFRSYM    DATA     BIT       P20
      00000090H.1 SFRSYM    DATA     BIT       P11
      00000080H.2 SFRSYM    DATA     BIT       P02
      000000F5H   SFRSYM    DATA     BYTE      I2CMSR
      000000B0H.0 SFRSYM    DATA     BIT       P30
      000000A0H.1 SFRSYM    DATA     BIT       P21
      00000090H.2 SFRSYM    DATA     BIT       P12
      00000080H.3 SFRSYM    DATA     BIT       P03
      000000D4H   SFRSYM    DATA     BYTE      ADCMPL
      000000B0H.1 SFRSYM    DATA     BIT       P31
      000000A0H.2 SFRSYM    DATA     BIT       P22
      00000090H.3 SFRSYM    DATA     BIT       P13
      00000080H.4 SFRSYM    DATA     BIT       P04
      000000B0H.2 SFRSYM    DATA     BIT       P32
      000000A0H.3 SFRSYM    DATA     BIT       P23
      00000090H.4 SFRSYM    DATA     BIT       P14
      00000080H.5 SFRSYM    DATA     BIT       P05
      00000089H   SFRSYM    DATA     BYTE      TMOD
      00000088H   SFRSYM    DATA     BYTE      TCON
      000000B0H.3 SFRSYM    DATA     BIT       P33
      000000A0H.4 SFRSYM    DATA     BIT       P24
      00000090H.5 SFRSYM    DATA     BIT       P15
      00000080H.6 SFRSYM    DATA     BIT       P06
      000000B0H.4 SFRSYM    DATA     BIT       P34
      000000A0H.5 SFRSYM    DATA     BIT       P25
      00000090H.6 SFRSYM    DATA     BIT       P16
      00000080H.7 SFRSYM    DATA     BIT       P07
      000000B0H.5 SFRSYM    DATA     BIT       P35
      000000A0H.6 SFRSYM    DATA     BIT       P26
      00000090H.7 SFRSYM    DATA     BIT       P17
      000000F2H   SFRSYM    DATA     BYTE      I2CSSR
      000000B0H.6 SFRSYM    DATA     BIT       P36
      000000A0H.7 SFRSYM    DATA     BIT       P27
      000000ECH   SFRSYM    DATA     BYTE      SPCR
      000000DDH   SFRSYM    DATA     BYTE      ADRESH
      000000B0H.7 SFRSYM    DATA     BIT       P37
      000000EEH   SFRSYM    DATA     BYTE      SPDR
      000000EFH   SFRSYM    DATA     BYTE      SSCR
      000000D3H   SFRSYM    DATA     BYTE      ADDLYL
      000000DCH   SFRSYM    DATA     BYTE      ADRESL
      00000088H.1 SFRSYM    DATA     BIT       IE0
      00000088H.3 SFRSYM    DATA     BIT       IE1
      0000008FH   SFRSYM    DATA     BYTE      CLKDIV
      000000F0H   SFRSYM    DATA     BYTE      B
      00000091H   SFRSYM    DATA     BYTE      FUNCCR
      0000009AH   SFRSYM    DATA     BYTE      P0TRIS
      000000A1H   SFRSYM    DATA     BYTE      P1TRIS
      000000A2H   SFRSYM    DATA     BYTE      P2TRIS
      000000E0H   SFRSYM    DATA     BYTE      ACC
      000000A3H   SFRSYM    DATA     BYTE      P3TRIS
      000000A8H.4 SFRSYM    DATA     BIT       ES0
      000000A8H.6 SFRSYM    DATA     BIT       ES1
      000000A8H.1 SFRSYM    DATA     BIT       ET0
      000000EDH   SFRSYM    DATA     BYTE      SPSR
      000000A8H.3 SFRSYM    DATA     BIT       ET1
      00000088H.5 SFRSYM    DATA     BIT       TF0
      000000A8H.5 SFRSYM    DATA     BIT       ET2
      00000098H.0 SFRSYM    DATA     BIT       RI0
      00000088H.7 SFRSYM    DATA     BIT       TF1
      0000008CH   SFRSYM    DATA     BYTE      TH0
      000000A8H.0 SFRSYM    DATA     BIT       EX0
      00000098H.1 SFRSYM    DATA     BIT       TI0
      00000088H.0 SFRSYM    DATA     BIT       IT0
      0000008DH   SFRSYM    DATA     BYTE      TH1
LX51 LINKER/LOCATER V4.66.97.0                                                        05/01/2025  09:54:43  PAGE 28


      000000A8H.2 SFRSYM    DATA     BIT       EX1
      00000088H.2 SFRSYM    DATA     BIT       IT1
      000000CDH   SFRSYM    DATA     BYTE      TH2
      000000D0H.0 SFRSYM    DATA     BIT       P
      000000DBH   SFRSYM    DATA     BYTE      TH3
      000000E3H   SFRSYM    DATA     BYTE      TH4
      0000008AH   SFRSYM    DATA     BYTE      TL0
      0000008BH   SFRSYM    DATA     BYTE      TL1
      00000098H.2 SFRSYM    DATA     BIT       U0RB8
      000000CCH   SFRSYM    DATA     BYTE      TL2
      000000B8H.4 SFRSYM    DATA     BIT       PS0
      000000DAH   SFRSYM    DATA     BYTE      TL3
      000000BFH   SFRSYM    DATA     BYTE      BUZCON
      000000B8H.6 SFRSYM    DATA     BIT       PS1
      000000B8H.1 SFRSYM    DATA     BIT       PT0
      00000098H.3 SFRSYM    DATA     BIT       U0TB8
      000000E2H   SFRSYM    DATA     BYTE      TL4
      000000D0H.3 SFRSYM    DATA     BIT       RS0
      000000B8H.3 SFRSYM    DATA     BIT       PT1
      000000D0H.4 SFRSYM    DATA     BIT       RS1
      000000B8H.5 SFRSYM    DATA     BIT       PT2
      00000098H.7 SFRSYM    DATA     BIT       U0SM0
      00000088H.4 SFRSYM    DATA     BIT       TR0
      000000BEH   SFRSYM    DATA     BYTE      BUZDIV
      00000098H.6 SFRSYM    DATA     BIT       U0SM1
      00000088H.6 SFRSYM    DATA     BIT       TR1
      000000B8H.0 SFRSYM    DATA     BIT       PX0
      00000098H.5 SFRSYM    DATA     BIT       U0SM2
      000000B8H.2 SFRSYM    DATA     BIT       PX1
      000000BDH   SFRSYM    DATA     BYTE      WUTCRH
      00000099H   SFRSYM    DATA     BYTE      SBUF0
      000000EBH   SFRSYM    DATA     BYTE      SBUF1
      000000BCH   SFRSYM    DATA     BYTE      WUTCRL
      00000098H   SFRSYM    DATA     BYTE      SCON0
      000000EAH   SFRSYM    DATA     BYTE      SCON1
      000000C8H   SFRSYM    DATA     BYTE      T2CON
      00000086H   SFRSYM    DATA     BYTE      DPS
      000000FEH   SFRSYM    DATA     BYTE      MDATA
      000000F6H   SFRSYM    DATA     BYTE      I2CMBUF
      000000F1H   SFRSYM    DATA     BYTE      I2CSADR
      00000098H.4 SFRSYM    DATA     BIT       U0REN
      000000C8H.5 SFRSYM    DATA     BIT       CAPES
      000000FDH   SFRSYM    DATA     BYTE      MADRH
      0000008EH   SFRSYM    DATA     BYTE      CKCON
      000000F3H   SFRSYM    DATA     BYTE      I2CSBUF
      000000FCH   SFRSYM    DATA     BYTE      MADRL
      000000D0H.5 SFRSYM    DATA     BIT       F0
      000000FBH   SFRSYM    DATA     BYTE      MLOCK
      000000D0H   SFRSYM    DATA     BYTE      PSW
      00000097H   SFRSYM    DATA     BYTE      WDCON

      010021EDH   BLOCK     CODE     ---       LVL=0
      ---         BLOCKEND  ---      ---       LVL=0

      01000DBFH   BLOCK     CODE     ---       LVL=0
      00000027H   SYMBOL    DATA     BYTE      Port
      00000005H   SYMBOL    DATA     BYTE      PinMSK
      00000001H   SYMBOL    DATA     ---       Cfg
      01000DC1H   BLOCK     CODE     NEAR LAB  LVL=1
      00000028H   SYMBOL    DATA     INT       TRISMSK
      0000002AH   SYMBOL    DATA     INT       ODMSK
      0000002CH   SYMBOL    DATA     INT       UPMSK
      0000002EH   SYMBOL    DATA     INT       RDMSK
      00000006H   SYMBOL    DATA     INT       DRMSK
      00000030H   SYMBOL    DATA     INT       SRMSK
LX51 LINKER/LOCATER V4.66.97.0                                                        05/01/2025  09:54:43  PAGE 29


      ---         BLOCKEND  ---      ---       LVL=1
      01000DBFH   LINE      CODE     ---       #77
      01000DC1H   LINE      CODE     ---       #78
      01000DC1H   LINE      CODE     ---       #82
      01000DD5H   LINE      CODE     ---       #83
      01000DD5H   LINE      CODE     ---       #84
      01000DD5H   LINE      CODE     ---       #85
      01000DD5H   LINE      CODE     ---       #86
      01000DD5H   LINE      CODE     ---       #87
      01000DD8H   LINE      CODE     ---       #88
      01000DDBH   LINE      CODE     ---       #89
      01000DDDH   LINE      CODE     ---       #90
      01000DDDH   LINE      CODE     ---       #91
      01000DDDH   LINE      CODE     ---       #92
      01000DDDH   LINE      CODE     ---       #93
      01000DE9H   LINE      CODE     ---       #94
      01000DF1H   LINE      CODE     ---       #95
      01000DF3H   LINE      CODE     ---       #96
      01000DF3H   LINE      CODE     ---       #97
      01000DF3H   LINE      CODE     ---       #98
      01000DF3H   LINE      CODE     ---       #99
      01000DFFH   LINE      CODE     ---       #100
      01000E09H   LINE      CODE     ---       #101
      01000E0BH   LINE      CODE     ---       #102
      01000E0BH   LINE      CODE     ---       #103
      01000E0BH   LINE      CODE     ---       #104
      01000E0CH   LINE      CODE     ---       #105
      01000E12H   LINE      CODE     ---       #106
      01000E1CH   LINE      CODE     ---       #107
      01000E31H   LINE      CODE     ---       #108
      01000E31H   LINE      CODE     ---       #109
      01000E49H   LINE      CODE     ---       #110
      01000E5DH   LINE      CODE     ---       #112
      01000E78H   LINE      CODE     ---       #113
      01000E78H   LINE      CODE     ---       #114
      01000E78H   LINE      CODE     ---       #115
      01000E8BH   LINE      CODE     ---       #116
      01000EA3H   LINE      CODE     ---       #117
      01000EB8H   LINE      CODE     ---       #118
      01000ECDH   LINE      CODE     ---       #119
      01000EE3H   LINE      CODE     ---       #120
      01000EFAH   LINE      CODE     ---       #121
      01000EFBH   LINE      CODE     ---       #122
      01000EFBH   LINE      CODE     ---       #123
      01000F0EH   LINE      CODE     ---       #124
      01000F26H   LINE      CODE     ---       #125
      01000F3BH   LINE      CODE     ---       #126
      01000F50H   LINE      CODE     ---       #127
      01000F66H   LINE      CODE     ---       #128
      01000F7DH   LINE      CODE     ---       #129
      01000F7EH   LINE      CODE     ---       #130
      01000F7EH   LINE      CODE     ---       #131
      01000F91H   LINE      CODE     ---       #132
      01000FA9H   LINE      CODE     ---       #133
      01000FBEH   LINE      CODE     ---       #134
      01000FD3H   LINE      CODE     ---       #135
      01000FE9H   LINE      CODE     ---       #136
      01001000H   LINE      CODE     ---       #137
      01001001H   LINE      CODE     ---       #138
      01001001H   LINE      CODE     ---       #139
      01001014H   LINE      CODE     ---       #140
      0100102CH   LINE      CODE     ---       #141
      01001041H   LINE      CODE     ---       #142
      01001056H   LINE      CODE     ---       #143
      0100106FH   LINE      CODE     ---       #144
LX51 LINKER/LOCATER V4.66.97.0                                                        05/01/2025  09:54:43  PAGE 30


      0100108BH   LINE      CODE     ---       #145
      0100108BH   LINE      CODE     ---       #146
      0100108BH   LINE      CODE     ---       #147
      ---         BLOCKEND  ---      ---       LVL=0

      01003B45H   BLOCK     CODE     ---       LVL=0
      00000007H   SYMBOL    DATA     BYTE      Port
      00000005H   SYMBOL    DATA     BYTE      PinMSK
      01003B45H   LINE      CODE     ---       #161
      01003B45H   LINE      CODE     ---       #162
      01003B45H   LINE      CODE     ---       #163
      01003B53H   LINE      CODE     ---       #164
      01003B53H   LINE      CODE     ---       #165
      01003B53H   LINE      CODE     ---       #166
      01003B56H   LINE      CODE     ---       #167
      01003B57H   LINE      CODE     ---       #168
      01003B57H   LINE      CODE     ---       #169
      01003B5AH   LINE      CODE     ---       #170
      01003B5BH   LINE      CODE     ---       #171
      01003B5BH   LINE      CODE     ---       #172
      01003B5EH   LINE      CODE     ---       #173
      01003B5FH   LINE      CODE     ---       #174
      01003B5FH   LINE      CODE     ---       #175
      01003B62H   LINE      CODE     ---       #176
      01003B62H   LINE      CODE     ---       #177
      01003B62H   LINE      CODE     ---       #178
      01003B62H   LINE      CODE     ---       #179
      01003B62H   LINE      CODE     ---       #180
      ---         BLOCKEND  ---      ---       LVL=0

      0100383AH   BLOCK     CODE     ---       LVL=0
      00000007H   SYMBOL    DATA     BYTE      Port
      00000005H   SYMBOL    DATA     BYTE      PinMSK
      0100383AH   LINE      CODE     ---       #193
      0100383AH   LINE      CODE     ---       #194
      0100383AH   LINE      CODE     ---       #195
      01003848H   LINE      CODE     ---       #196
      01003848H   LINE      CODE     ---       #197
      01003848H   LINE      CODE     ---       #198
      0100384FH   LINE      CODE     ---       #199
      0100384FH   LINE      CODE     ---       #200
      0100384FH   LINE      CODE     ---       #201
      01003856H   LINE      CODE     ---       #202
      01003856H   LINE      CODE     ---       #203
      01003856H   LINE      CODE     ---       #204
      0100385DH   LINE      CODE     ---       #205
      0100385DH   LINE      CODE     ---       #206
      0100385DH   LINE      CODE     ---       #207
      01003864H   LINE      CODE     ---       #208
      01003864H   LINE      CODE     ---       #209
      01003864H   LINE      CODE     ---       #211
      01003865H   LINE      CODE     ---       #212
      ---         BLOCKEND  ---      ---       LVL=0

      01003A3EH   BLOCK     CODE     ---       LVL=0
      00000007H   SYMBOL    DATA     BYTE      Port
      00000005H   SYMBOL    DATA     BYTE      PinMSK
      01003A3EH   LINE      CODE     ---       #225
      01003A3EH   LINE      CODE     ---       #226
      01003A3EH   LINE      CODE     ---       #227
      01003A4CH   LINE      CODE     ---       #228
      01003A4CH   LINE      CODE     ---       #229
      01003A4CH   LINE      CODE     ---       #230
      01003A50H   LINE      CODE     ---       #231
      01003A51H   LINE      CODE     ---       #232
LX51 LINKER/LOCATER V4.66.97.0                                                        05/01/2025  09:54:43  PAGE 31


      01003A51H   LINE      CODE     ---       #233
      01003A55H   LINE      CODE     ---       #234
      01003A56H   LINE      CODE     ---       #235
      01003A56H   LINE      CODE     ---       #236
      01003A5AH   LINE      CODE     ---       #237
      01003A5BH   LINE      CODE     ---       #238
      01003A5BH   LINE      CODE     ---       #239
      01003A5FH   LINE      CODE     ---       #240
      01003A5FH   LINE      CODE     ---       #241
      01003A5FH   LINE      CODE     ---       #242
      01003A5FH   LINE      CODE     ---       #243
      01003A5FH   LINE      CODE     ---       #244
      ---         BLOCKEND  ---      ---       LVL=0

      01001F24H   BLOCK     CODE     ---       LVL=0
      00000007H   SYMBOL    DATA     BYTE      Port
      00000005H   SYMBOL    DATA     BYTE      PinNum
      00000020H.3 SYMBOL    BIT      BIT       Val
      01001F24H   LINE      CODE     ---       #259
      01001F24H   LINE      CODE     ---       #260
      01001F24H   LINE      CODE     ---       #261
      01001F38H   LINE      CODE     ---       #262
      01001F38H   LINE      CODE     ---       #263
      01001F38H   LINE      CODE     ---       #264
      01001F40H   LINE      CODE     ---       #265
      01001F51H   LINE      CODE     ---       #266
      01001F5FH   LINE      CODE     ---       #267
      01001F60H   LINE      CODE     ---       #268
      01001F60H   LINE      CODE     ---       #269
      01001F6AH   LINE      CODE     ---       #270
      01001F7BH   LINE      CODE     ---       #271
      01001F89H   LINE      CODE     ---       #272
      01001F8AH   LINE      CODE     ---       #273
      01001F8AH   LINE      CODE     ---       #274
      01001F94H   LINE      CODE     ---       #275
      01001FA5H   LINE      CODE     ---       #276
      01001FB3H   LINE      CODE     ---       #277
      01001FB4H   LINE      CODE     ---       #278
      01001FB4H   LINE      CODE     ---       #279
      01001FBAH   LINE      CODE     ---       #280
      01001FCBH   LINE      CODE     ---       #281
      01001FDBH   LINE      CODE     ---       #282
      01001FDBH   LINE      CODE     ---       #283
      01001FDBH   LINE      CODE     ---       #284
      01001FDBH   LINE      CODE     ---       #285
      ---         BLOCKEND  ---      ---       LVL=0

      0100302CH   BLOCK     CODE     ---       LVL=0
      00000007H   SYMBOL    DATA     BYTE      Port
      00000005H   SYMBOL    DATA     BYTE      PinNum
      00000003H   SYMBOL    DATA     BYTE      Mode
      0100302CH   BLOCK     CODE     NEAR LAB  LVL=1
      00000027H   SYMBOL    DATA     ---       PCFG
      ---         BLOCKEND  ---      ---       LVL=1
      0100302CH   LINE      CODE     ---       #302
      0100302CH   LINE      CODE     ---       #303
      0100302CH   LINE      CODE     ---       #306
      01003033H   LINE      CODE     ---       #308
      01003041H   LINE      CODE     ---       #309
      01003041H   LINE      CODE     ---       #310
      01003041H   LINE      CODE     ---       #311
      01003046H   LINE      CODE     ---       #312
      01003049H   LINE      CODE     ---       #313
      0100304BH   LINE      CODE     ---       #314
      0100304BH   LINE      CODE     ---       #315
LX51 LINKER/LOCATER V4.66.97.0                                                        05/01/2025  09:54:43  PAGE 32


      01003055H   LINE      CODE     ---       #316
      01003058H   LINE      CODE     ---       #317
      0100305AH   LINE      CODE     ---       #318
      0100305AH   LINE      CODE     ---       #319
      01003064H   LINE      CODE     ---       #320
      0100306AH   LINE      CODE     ---       #321
      0100306CH   LINE      CODE     ---       #322
      0100306CH   LINE      CODE     ---       #323
      01003072H   LINE      CODE     ---       #324
      0100307CH   LINE      CODE     ---       #325
      0100307CH   LINE      CODE     ---       #326
      0100307CH   LINE      CODE     ---       #327
      0100307CH   LINE      CODE     ---       #328
      01003086H   LINE      CODE     ---       #329
      ---         BLOCKEND  ---      ---       LVL=0

      010024FFH   BLOCK     CODE     ---       LVL=0
      00000007H   SYMBOL    DATA     BYTE      Port
      00000005H   SYMBOL    DATA     BYTE      PinNum
      010024FFH   BLOCK     CODE     NEAR LAB  LVL=1
      00000004H   SYMBOL    DATA     BYTE      flag
      00000002H   SYMBOL    DATA     ---       PCFG
      ---         BLOCKEND  ---      ---       LVL=1
      010024FFH   LINE      CODE     ---       #347
      010024FFH   LINE      CODE     ---       #348
      010024FFH   LINE      CODE     ---       #352
      0100250DH   LINE      CODE     ---       #353
      0100250DH   LINE      CODE     ---       #354
      0100250DH   LINE      CODE     ---       #355
      01002514H   LINE      CODE     ---       #356
      01002517H   LINE      CODE     ---       #357
      01002523H   LINE      CODE     ---       #358
      01002525H   LINE      CODE     ---       #359
      01002525H   LINE      CODE     ---       #360
      01002531H   LINE      CODE     ---       #361
      01002534H   LINE      CODE     ---       #362
      01002540H   LINE      CODE     ---       #363
      01002542H   LINE      CODE     ---       #364
      01002542H   LINE      CODE     ---       #365
      0100254EH   LINE      CODE     ---       #366
      01002551H   LINE      CODE     ---       #367
      0100255DH   LINE      CODE     ---       #368
      0100255FH   LINE      CODE     ---       #369
      0100255FH   LINE      CODE     ---       #370
      01002567H   LINE      CODE     ---       #371
      0100256FH   LINE      CODE     ---       #372
      0100257FH   LINE      CODE     ---       #373
      01002581H   LINE      CODE     ---       #374
      01002585H   LINE      CODE     ---       #375
      01002585H   LINE      CODE     ---       #377
      0100258BH   LINE      CODE     ---       #378
      01002595H   LINE      CODE     ---       #379
      ---         BLOCKEND  ---      ---       LVL=0

      01002C06H   BLOCK     CODE     ---       LVL=0
      00000007H   SYMBOL    DATA     BYTE      Port
      00000005H   SYMBOL    DATA     BYTE      PinNum
      00000003H   SYMBOL    DATA     BYTE      Mode
      01002C06H   BLOCK     CODE     NEAR LAB  LVL=1
      00000027H   SYMBOL    DATA     ---       PCFG
      ---         BLOCKEND  ---      ---       LVL=1
      01002C06H   LINE      CODE     ---       #418
      01002C06H   LINE      CODE     ---       #419
      01002C06H   LINE      CODE     ---       #422
      01002C13H   LINE      CODE     ---       #423
LX51 LINKER/LOCATER V4.66.97.0                                                        05/01/2025  09:54:43  PAGE 33


      01002C24H   LINE      CODE     ---       #425
      01002C32H   LINE      CODE     ---       #426
      01002C32H   LINE      CODE     ---       #427
      01002C32H   LINE      CODE     ---       #428
      01002C37H   LINE      CODE     ---       #429
      01002C3AH   LINE      CODE     ---       #430
      01002C3CH   LINE      CODE     ---       #431
      01002C3CH   LINE      CODE     ---       #432
      01002C46H   LINE      CODE     ---       #433
      01002C49H   LINE      CODE     ---       #434
      01002C4BH   LINE      CODE     ---       #435
      01002C4BH   LINE      CODE     ---       #436
      01002C55H   LINE      CODE     ---       #437
      01002C5BH   LINE      CODE     ---       #438
      01002C5DH   LINE      CODE     ---       #439
      01002C5DH   LINE      CODE     ---       #440
      01002C63H   LINE      CODE     ---       #441
      01002C6DH   LINE      CODE     ---       #442
      01002C6DH   LINE      CODE     ---       #443
      01002C6DH   LINE      CODE     ---       #444
      01002C6DH   LINE      CODE     ---       #445
      01002C77H   LINE      CODE     ---       #446
      ---         BLOCKEND  ---      ---       LVL=0

      ---         MODULE    ---      ---       ADCCFG
      00000009H   PUBLIC    DATA     ---       Data
      02000021H   PUBLIC    XDATA    BYTE      IsNotAllowAsync
      01003FF6H   PUBLIC    CONST    ---       ADCChQueue
      01002092H   PUBLIC    CODE     ---       ADC_Init
      01002596H   PUBLIC    CODE     ---       ADC_DeInit
      01003E1EH   PUBLIC    CODE     ---       SystemTelemHandler
      000000C8H.0 SFRSYM    DATA     BIT       T2I0
      000000C3H   SFRSYM    DATA     BYTE      CCH1
      00000080H   SFRSYM    DATA     BYTE      P0
      000000C8H.1 SFRSYM    DATA     BIT       T2I1
      000000C5H   SFRSYM    DATA     BYTE      CCH2
      00000090H   SFRSYM    DATA     BYTE      P1
      000000C7H   SFRSYM    DATA     BYTE      CCH3
      000000ACH   SFRSYM    DATA     BYTE      P0EXTIE
      000000A0H   SFRSYM    DATA     BYTE      P2
      000000B4H   SFRSYM    DATA     BYTE      P0EXTIF
      000000B0H   SFRSYM    DATA     BYTE      P3
      000000ADH   SFRSYM    DATA     BYTE      P1EXTIE
      000000D0H.6 SFRSYM    DATA     BIT       AC
      000000FFH   SFRSYM    DATA     BYTE      MCTRL
      000000C2H   SFRSYM    DATA     BYTE      CCL1
      000000B5H   SFRSYM    DATA     BYTE      P1EXTIF
      000000AEH   SFRSYM    DATA     BYTE      P2EXTIE
      000000C4H   SFRSYM    DATA     BYTE      CCL2
      000000B6H   SFRSYM    DATA     BYTE      P2EXTIF
      000000AFH   SFRSYM    DATA     BYTE      P3EXTIE
      000000A8H.7 SFRSYM    DATA     BIT       EA
      000000C6H   SFRSYM    DATA     BYTE      CCL3
      000000B7H   SFRSYM    DATA     BYTE      P3EXTIF
      000000AAH   SFRSYM    DATA     BYTE      EIE2
      000000B2H   SFRSYM    DATA     BYTE      EIF2
      000000C8H.3 SFRSYM    DATA     BIT       T2R0
      000000C8H.4 SFRSYM    DATA     BIT       T2R1
      00000083H   SFRSYM    DATA     BYTE      DPH0
      000000A8H   SFRSYM    DATA     BYTE      IE
      00000085H   SFRSYM    DATA     BYTE      DPH1
      000000B9H   SFRSYM    DATA     BYTE      EIP1
      000000BAH   SFRSYM    DATA     BYTE      EIP2
      00000082H   SFRSYM    DATA     BYTE      DPL0
      00000084H   SFRSYM    DATA     BYTE      DPL1
LX51 LINKER/LOCATER V4.66.97.0                                                        05/01/2025  09:54:43  PAGE 34


      000000C8H.6 SFRSYM    DATA     BIT       I3FR
      000000CFH   SFRSYM    DATA     BYTE      T2IE
      00000096H   SFRSYM    DATA     BYTE      TA
      000000C9H   SFRSYM    DATA     BYTE      T2IF
      000000C8H.2 SFRSYM    DATA     BIT       T2CM
      000000DFH   SFRSYM    DATA     BYTE      ADCON0
      000000DEH   SFRSYM    DATA     BYTE      ADCON1
      000000E9H   SFRSYM    DATA     BYTE      ADCON2
      000000B8H   SFRSYM    DATA     BYTE      IP
      000000CEH   SFRSYM    DATA     BYTE      CCEN
      000000D0H.7 SFRSYM    DATA     BIT       CY
      000000D2H   SFRSYM    DATA     BYTE      T34MOD
      00000093H   SFRSYM    DATA     BYTE      DPX0
      00000095H   SFRSYM    DATA     BYTE      DPX1
      000000F4H   SFRSYM    DATA     BYTE      I2CMSA
      000000F5H   SFRSYM    DATA     BYTE      I2CMCR
      00000081H   SFRSYM    DATA     BYTE      SP
      000000D0H.2 SFRSYM    DATA     BIT       OV
      000000F2H   SFRSYM    DATA     BYTE      I2CSCR
      000000C8H.7 SFRSYM    DATA     BIT       T2PS
      000000D1H   SFRSYM    DATA     BYTE      ADCMPC
      000000CBH   SFRSYM    DATA     BYTE      RLDH
      000000D5H   SFRSYM    DATA     BYTE      ADCMPH
      000000CAH   SFRSYM    DATA     BYTE      RLDL
      00000080H.0 SFRSYM    DATA     BIT       P00
      00000090H.0 SFRSYM    DATA     BIT       P10
      00000080H.1 SFRSYM    DATA     BIT       P01
      000000F7H   SFRSYM    DATA     BYTE      I2CMTP
      00000099H   SFRSYM    DATA     BYTE      SBUF
      00000087H   SFRSYM    DATA     BYTE      PCON
      000000A0H.0 SFRSYM    DATA     BIT       P20
      00000090H.1 SFRSYM    DATA     BIT       P11
      00000080H.2 SFRSYM    DATA     BIT       P02
      000000F5H   SFRSYM    DATA     BYTE      I2CMSR
      000000B0H.0 SFRSYM    DATA     BIT       P30
      000000A0H.1 SFRSYM    DATA     BIT       P21
      00000090H.2 SFRSYM    DATA     BIT       P12
      00000080H.3 SFRSYM    DATA     BIT       P03
      000000D4H   SFRSYM    DATA     BYTE      ADCMPL
      000000B0H.1 SFRSYM    DATA     BIT       P31
      000000A0H.2 SFRSYM    DATA     BIT       P22
      00000090H.3 SFRSYM    DATA     BIT       P13
      00000080H.4 SFRSYM    DATA     BIT       P04
      000000B0H.2 SFRSYM    DATA     BIT       P32
      000000A0H.3 SFRSYM    DATA     BIT       P23
      00000090H.4 SFRSYM    DATA     BIT       P14
      00000080H.5 SFRSYM    DATA     BIT       P05
      00000089H   SFRSYM    DATA     BYTE      TMOD
      00000088H   SFRSYM    DATA     BYTE      TCON
      000000B0H.3 SFRSYM    DATA     BIT       P33
      000000A0H.4 SFRSYM    DATA     BIT       P24
      00000090H.5 SFRSYM    DATA     BIT       P15
      00000080H.6 SFRSYM    DATA     BIT       P06
      000000B0H.4 SFRSYM    DATA     BIT       P34
      000000A0H.5 SFRSYM    DATA     BIT       P25
      00000090H.6 SFRSYM    DATA     BIT       P16
      00000080H.7 SFRSYM    DATA     BIT       P07
      000000B0H.5 SFRSYM    DATA     BIT       P35
      000000A0H.6 SFRSYM    DATA     BIT       P26
      00000090H.7 SFRSYM    DATA     BIT       P17
      000000F2H   SFRSYM    DATA     BYTE      I2CSSR
      000000B0H.6 SFRSYM    DATA     BIT       P36
      000000A0H.7 SFRSYM    DATA     BIT       P27
      000000ECH   SFRSYM    DATA     BYTE      SPCR
      000000DDH   SFRSYM    DATA     BYTE      ADRESH
LX51 LINKER/LOCATER V4.66.97.0                                                        05/01/2025  09:54:43  PAGE 35


      000000B0H.7 SFRSYM    DATA     BIT       P37
      000000EEH   SFRSYM    DATA     BYTE      SPDR
      000000EFH   SFRSYM    DATA     BYTE      SSCR
      000000D3H   SFRSYM    DATA     BYTE      ADDLYL
      000000DCH   SFRSYM    DATA     BYTE      ADRESL
      00000088H.1 SFRSYM    DATA     BIT       IE0
      00000088H.3 SFRSYM    DATA     BIT       IE1
      0000008FH   SFRSYM    DATA     BYTE      CLKDIV
      000000F0H   SFRSYM    DATA     BYTE      B
      00000091H   SFRSYM    DATA     BYTE      FUNCCR
      0000009AH   SFRSYM    DATA     BYTE      P0TRIS
      000000A1H   SFRSYM    DATA     BYTE      P1TRIS
      000000A2H   SFRSYM    DATA     BYTE      P2TRIS
      000000E0H   SFRSYM    DATA     BYTE      ACC
      000000A3H   SFRSYM    DATA     BYTE      P3TRIS
      000000A8H.4 SFRSYM    DATA     BIT       ES0
      000000A8H.6 SFRSYM    DATA     BIT       ES1
      000000A8H.1 SFRSYM    DATA     BIT       ET0
      000000EDH   SFRSYM    DATA     BYTE      SPSR
      000000A8H.3 SFRSYM    DATA     BIT       ET1
      00000088H.5 SFRSYM    DATA     BIT       TF0
      000000A8H.5 SFRSYM    DATA     BIT       ET2
      00000098H.0 SFRSYM    DATA     BIT       RI0
      00000088H.7 SFRSYM    DATA     BIT       TF1
      0000008CH   SFRSYM    DATA     BYTE      TH0
      000000A8H.0 SFRSYM    DATA     BIT       EX0
      00000098H.1 SFRSYM    DATA     BIT       TI0
      00000088H.0 SFRSYM    DATA     BIT       IT0
      0000008DH   SFRSYM    DATA     BYTE      TH1
      000000A8H.2 SFRSYM    DATA     BIT       EX1
      00000088H.2 SFRSYM    DATA     BIT       IT1
      000000CDH   SFRSYM    DATA     BYTE      TH2
      000000D0H.0 SFRSYM    DATA     BIT       P
      000000DBH   SFRSYM    DATA     BYTE      TH3
      000000E3H   SFRSYM    DATA     BYTE      TH4
      0000008AH   SFRSYM    DATA     BYTE      TL0
      0000008BH   SFRSYM    DATA     BYTE      TL1
      00000098H.2 SFRSYM    DATA     BIT       U0RB8
      000000CCH   SFRSYM    DATA     BYTE      TL2
      000000B8H.4 SFRSYM    DATA     BIT       PS0
      000000DAH   SFRSYM    DATA     BYTE      TL3
      000000BFH   SFRSYM    DATA     BYTE      BUZCON
      000000B8H.6 SFRSYM    DATA     BIT       PS1
      000000B8H.1 SFRSYM    DATA     BIT       PT0
      00000098H.3 SFRSYM    DATA     BIT       U0TB8
      000000E2H   SFRSYM    DATA     BYTE      TL4
      000000D0H.3 SFRSYM    DATA     BIT       RS0
      000000B8H.3 SFRSYM    DATA     BIT       PT1
      000000D0H.4 SFRSYM    DATA     BIT       RS1
      000000B8H.5 SFRSYM    DATA     BIT       PT2
      00000098H.7 SFRSYM    DATA     BIT       U0SM0
      00000088H.4 SFRSYM    DATA     BIT       TR0
      000000BEH   SFRSYM    DATA     BYTE      BUZDIV
      00000098H.6 SFRSYM    DATA     BIT       U0SM1
      00000088H.6 SFRSYM    DATA     BIT       TR1
      000000B8H.0 SFRSYM    DATA     BIT       PX0
      00000098H.5 SFRSYM    DATA     BIT       U0SM2
      000000B8H.2 SFRSYM    DATA     BIT       PX1
      000000BDH   SFRSYM    DATA     BYTE      WUTCRH
      00000099H   SFRSYM    DATA     BYTE      SBUF0
      000000EBH   SFRSYM    DATA     BYTE      SBUF1
      000000BCH   SFRSYM    DATA     BYTE      WUTCRL
      00000098H   SFRSYM    DATA     BYTE      SCON0
      000000EAH   SFRSYM    DATA     BYTE      SCON1
      000000C8H   SFRSYM    DATA     BYTE      T2CON
LX51 LINKER/LOCATER V4.66.97.0                                                        05/01/2025  09:54:43  PAGE 36


      00000086H   SFRSYM    DATA     BYTE      DPS
      000000FEH   SFRSYM    DATA     BYTE      MDATA
      000000F6H   SFRSYM    DATA     BYTE      I2CMBUF
      000000F1H   SFRSYM    DATA     BYTE      I2CSADR
      00000098H.4 SFRSYM    DATA     BIT       U0REN
      000000C8H.5 SFRSYM    DATA     BIT       CAPES
      000000FDH   SFRSYM    DATA     BYTE      MADRH
      0000008EH   SFRSYM    DATA     BYTE      CKCON
      000000F3H   SFRSYM    DATA     BYTE      I2CSBUF
      000000FCH   SFRSYM    DATA     BYTE      MADRL
      000000D0H.5 SFRSYM    DATA     BIT       F0
      000000FBH   SFRSYM    DATA     BYTE      MLOCK
      000000D0H   SFRSYM    DATA     BYTE      PSW
      00000097H   SFRSYM    DATA     BYTE      WDCON
      01003C6DH   SYMBOL    CODE     ---       ADC_SetVREF
      01002144H   SYMBOL    CODE     ---       _ADC_ReadBackResult
      01003227H   SYMBOL    CODE     ---       _ADC_SubmitMisson
      02000014H   SYMBOL    XDATA    ---       ADCConvertQueue
      00000008H   SYMBOL    DATA     BYTE      ADCState
      02000019H   SYMBOL    XDATA    ---       ADCTemp
      01001857H   SYMBOL    CODE     ---       ADCEngineHandler
      0100108CH   SYMBOL    CODE     ---       _ADC_WriteOutputBuf

      01002FCBH   BLOCK     CODE     ---       LVL=0
      ---         BLOCKEND  ---      ---       LVL=0

      01003227H   BLOCK     CODE     ---       LVL=0
      00000003H   SYMBOL    DATA     CHAR      Ch
      01003229H   BLOCK     CODE     NEAR LAB  LVL=1
      00000002H   SYMBOL    DATA     BYTE      i
      ---         BLOCKEND  ---      ---       LVL=1
      01003227H   LINE      CODE     ---       #18
      01003229H   LINE      CODE     ---       #19
      01003229H   LINE      CODE     ---       #20
      0100322BH   LINE      CODE     ---       #22
      01003231H   LINE      CODE     ---       #23
      01003246H   LINE      CODE     ---       #25
      01003250H   LINE      CODE     ---       #26
      01003250H   LINE      CODE     ---       #27
      01003255H   LINE      CODE     ---       #28
      01003259H   LINE      CODE     ---       #30
      01003262H   LINE      CODE     ---       #31
      01003265H   LINE      CODE     ---       #32
      01003268H   LINE      CODE     ---       #33
      0100326DH   LINE      CODE     ---       #35
      0100326FH   LINE      CODE     ---       #36
      01003272H   LINE      CODE     ---       #37
      ---         BLOCKEND  ---      ---       LVL=0

      01002144H   BLOCK     CODE     ---       LVL=0
      00000029H   SYMBOL    DATA     ---       Result
      0000002CH   SYMBOL    DATA     ---       Queue
      01002144H   LINE      CODE     ---       #40
      0100214AH   LINE      CODE     ---       #41
      0100214AH   LINE      CODE     ---       #43
      01002151H   LINE      CODE     ---       #45
      0100215FH   LINE      CODE     ---       #46
      0100218DH   LINE      CODE     ---       #47
      0100219EH   LINE      CODE     ---       #48
      0100219EH   LINE      CODE     ---       #49
      010021A1H   LINE      CODE     ---       #50
      010021A5H   LINE      CODE     ---       #51
      010021A5H   LINE      CODE     ---       #53
      010021C2H   LINE      CODE     ---       #54
      010021D7H   LINE      CODE     ---       #55
LX51 LINKER/LOCATER V4.66.97.0                                                        05/01/2025  09:54:43  PAGE 37


      010021E4H   LINE      CODE     ---       #56
      010021E9H   LINE      CODE     ---       #57
      010021ECH   LINE      CODE     ---       #58
      ---         BLOCKEND  ---      ---       LVL=0

      01003C6DH   BLOCK     CODE     ---       LVL=0
      00000020H.2 SYMBOL    BIT      BIT       IsUsingVDD
      01003C6DH   LINE      CODE     ---       #61
      01003C6DH   LINE      CODE     ---       #62
      01003C6DH   LINE      CODE     ---       #63
      01003C70H   LINE      CODE     ---       #64
      01003C71H   LINE      CODE     ---       #65
      01003C7DH   LINE      CODE     ---       #66
      01003C7EH   LINE      CODE     ---       #67
      01003C81H   LINE      CODE     ---       #68
      ---         BLOCKEND  ---      ---       LVL=0

      0100108CH   BLOCK     CODE     ---       LVL=0
      00000029H   SYMBOL    DATA     INT       ADCResult
      0000002BH   SYMBOL    DATA     CHAR      Ch
      01001092H   BLOCK     CODE     NEAR LAB  LVL=1
      0000002CH   SYMBOL    DATA     FLOAT     Buf
      00000030H   SYMBOL    DATA     FLOAT     Rt
      00000034H   SYMBOL    DATA     FLOAT     Vadc
      00000004H   SYMBOL    DATA     DWORD     NTCRES
      ---         BLOCKEND  ---      ---       LVL=1
      0100108CH   LINE      CODE     ---       #72
      01001092H   LINE      CODE     ---       #73
      01001092H   LINE      CODE     ---       #77
      010010ACH   LINE      CODE     ---       #78
      010010E1H   LINE      CODE     ---       #80
      010010FDH   LINE      CODE     ---       #81
      010010FDH   LINE      CODE     ---       #83
      010010FDH   LINE      CODE     ---       #84
      01001109H   LINE      CODE     ---       #85
      0100110AH   LINE      CODE     ---       #87
      0100110AH   LINE      CODE     ---       #88
      0100112DH   LINE      CODE     ---       #89
      01001135H   LINE      CODE     ---       #90
      01001136H   LINE      CODE     ---       #92
      01001136H   LINE      CODE     ---       #93
      01001142H   LINE      CODE     ---       #94
      0100114DH   LINE      CODE     ---       #95
      0100115FH   LINE      CODE     ---       #96
      01001160H   LINE      CODE     ---       #98
      01001160H   LINE      CODE     ---       #99
      0100116CH   LINE      CODE     ---       #100
      01001177H   LINE      CODE     ---       #101
      01001178H   LINE      CODE     ---       #103
      01001178H   LINE      CODE     ---       #104
      010011B3H   LINE      CODE     ---       #105
      010011C0H   LINE      CODE     ---       #106
      010011C3H   LINE      CODE     ---       #107
      010011D0H   LINE      CODE     ---       #108
      010011D0H   LINE      CODE     ---       #109
      010011D0H   LINE      CODE     ---       #110
      ---         BLOCKEND  ---      ---       LVL=0

      01001857H   BLOCK     CODE     ---       LVL=0
      01001857H   BLOCK     CODE     NEAR LAB  LVL=1
      00000025H   SYMBOL    DATA     INT       result
      00000027H   SYMBOL    DATA     CHAR      Ch
      00000028H   SYMBOL    DATA     CHAR      i
      ---         BLOCKEND  ---      ---       LVL=1
      01001857H   LINE      CODE     ---       #113
LX51 LINKER/LOCATER V4.66.97.0                                                        05/01/2025  09:54:43  PAGE 38


      01001857H   LINE      CODE     ---       #114
      01001857H   LINE      CODE     ---       #119
      01001857H   LINE      CODE     ---       #120
      0100185FH   LINE      CODE     ---       #121
      01001877H   LINE      CODE     ---       #122
      01001877H   LINE      CODE     ---       #124
      01001877H   LINE      CODE     ---       #125
      0100187CH   LINE      CODE     ---       #126
      0100189FH   LINE      CODE     ---       #127
      0100189FH   LINE      CODE     ---       #128
      010018A2H   LINE      CODE     ---       #130
      010018A2H   LINE      CODE     ---       #131
      010018A5H   LINE      CODE     ---       #132
      010018AAH   LINE      CODE     ---       #133
      010018AAH   LINE      CODE     ---       #134
      010018C3H   LINE      CODE     ---       #135
      010018C5H   LINE      CODE     ---       #136
      010018C7H   LINE      CODE     ---       #138
      010018CCH   LINE      CODE     ---       #139
      010018CCH   LINE      CODE     ---       #140
      010018D2H   LINE      CODE     ---       #141
      010018E8H   LINE      CODE     ---       #142
      010018EDH   LINE      CODE     ---       #143
      010018F0H   LINE      CODE     ---       #144
      010018F2H   LINE      CODE     ---       #146
      010018F5H   LINE      CODE     ---       #147
      010018F7H   LINE      CODE     ---       #149
      010018F7H   LINE      CODE     ---       #150
      0100190DH   LINE      CODE     ---       #151
      01001916H   LINE      CODE     ---       #152
      0100192FH   LINE      CODE     ---       #153
      01001932H   LINE      CODE     ---       #154
      01001934H   LINE      CODE     ---       #156
      01001934H   LINE      CODE     ---       #158
      01001937H   LINE      CODE     ---       #159
      01001937H   LINE      CODE     ---       #160
      01001937H   LINE      CODE     ---       #161
      01001946H   LINE      CODE     ---       #162
      ---         BLOCKEND  ---      ---       LVL=0

      01003E1EH   BLOCK     CODE     ---       LVL=0
      01003E1EH   LINE      CODE     ---       #172
      01003E1EH   LINE      CODE     ---       #173
      01003E1EH   LINE      CODE     ---       #175
      ---         BLOCKEND  ---      ---       LVL=0

      01002596H   BLOCK     CODE     ---       LVL=0
      01002596H   BLOCK     CODE     NEAR LAB  LVL=1
      00000024H   SYMBOL    DATA     ---       ADCDeInitCfg
      00000007H   SYMBOL    DATA     CHAR      i
      ---         BLOCKEND  ---      ---       LVL=1
      01002596H   LINE      CODE     ---       #179
      01002596H   LINE      CODE     ---       #180
      01002596H   LINE      CODE     ---       #184
      01002599H   LINE      CODE     ---       #185
      0100259DH   LINE      CODE     ---       #187
      010025A2H   LINE      CODE     ---       #188
      010025A5H   LINE      CODE     ---       #189
      010025CCH   LINE      CODE     ---       #190
      010025D6H   LINE      CODE     ---       #191
      010025D6H   LINE      CODE     ---       #192
      010025DAH   LINE      CODE     ---       #193
      010025DCH   LINE      CODE     ---       #195
      010025E4H   LINE      CODE     ---       #196
      010025ECH   LINE      CODE     ---       #198
LX51 LINKER/LOCATER V4.66.97.0                                                        05/01/2025  09:54:43  PAGE 39


      010025EFH   LINE      CODE     ---       #199
      010025F2H   LINE      CODE     ---       #200
      010025F4H   LINE      CODE     ---       #202
      010025FDH   LINE      CODE     ---       #203
      01002607H   LINE      CODE     ---       #205
      01002610H   LINE      CODE     ---       #206
      01002619H   LINE      CODE     ---       #208
      ---         BLOCKEND  ---      ---       LVL=0

      01002092H   BLOCK     CODE     ---       LVL=0
      01002092H   BLOCK     CODE     NEAR LAB  LVL=1
      00000024H   SYMBOL    DATA     ---       ADCInitCfg
      ---         BLOCKEND  ---      ---       LVL=1
      01002092H   LINE      CODE     ---       #212
      01002092H   LINE      CODE     ---       #213
      01002092H   LINE      CODE     ---       #216
      01002095H   LINE      CODE     ---       #217
      01002097H   LINE      CODE     ---       #218
      01002099H   LINE      CODE     ---       #220
      0100209FH   LINE      CODE     ---       #221
      010020A6H   LINE      CODE     ---       #222
      010020ABH   LINE      CODE     ---       #224
      010020AEH   LINE      CODE     ---       #225
      010020B3H   LINE      CODE     ---       #227
      010020BCH   LINE      CODE     ---       #228
      010020C5H   LINE      CODE     ---       #229
      010020CEH   LINE      CODE     ---       #230
      010020D7H   LINE      CODE     ---       #232
      010020DAH   LINE      CODE     ---       #233
      010020DDH   LINE      CODE     ---       #235
      010020E5H   LINE      CODE     ---       #236
      010020F2H   LINE      CODE     ---       #237
      010020FBH   LINE      CODE     ---       #239
      010020FEH   LINE      CODE     ---       #240
      01002101H   LINE      CODE     ---       #241
      01002104H   LINE      CODE     ---       #242
      01002106H   LINE      CODE     ---       #243
      01002108H   LINE      CODE     ---       #244
      0100210BH   LINE      CODE     ---       #245
      0100210EH   LINE      CODE     ---       #246
      01002114H   LINE      CODE     ---       #248
      01002117H   LINE      CODE     ---       #249
      01002121H   LINE      CODE     ---       #250
      01002121H   LINE      CODE     ---       #251
      01002125H   LINE      CODE     ---       #252
      01002127H   LINE      CODE     ---       #253
      0100212AH   LINE      CODE     ---       #255
      0100212DH   LINE      CODE     ---       #256
      ---         BLOCKEND  ---      ---       LVL=0

      ---         MODULE    ---      ---       DELAY
      00000021H.6 PUBLIC    BIT      BIT       StrobeFlag
      00000021H.5 PUBLIC    BIT      BIT       SysHFBitFlag
      00000021H.4 PUBLIC    BIT      BIT       IsT0OVF
      00000021H.3 PUBLIC    BIT      BIT       LFStrobeFlag
      01001FDCH   PUBLIC    CODE     ---       _delay_ms
      01003CE4H   PUBLIC    CODE     ---       delay_init
      01003E12H   PUBLIC    CODE     ---       Timer0_IRQHandler
      0100002EH   PUBLIC    CODE     ---       Timer2_IRQHandler
      00000020H.3 PUBLIC    BIT      BIT       ?SetSystemHBTimer?BIT
      01003866H   PUBLIC    CODE     ---       SetSystemHBTimer
      000000C8H.0 SFRSYM    DATA     BIT       T2I0
      000000C3H   SFRSYM    DATA     BYTE      CCH1
      00000080H   SFRSYM    DATA     BYTE      P0
      000000C8H.1 SFRSYM    DATA     BIT       T2I1
LX51 LINKER/LOCATER V4.66.97.0                                                        05/01/2025  09:54:43  PAGE 40


      000000C5H   SFRSYM    DATA     BYTE      CCH2
      00000090H   SFRSYM    DATA     BYTE      P1
      000000C7H   SFRSYM    DATA     BYTE      CCH3
      000000ACH   SFRSYM    DATA     BYTE      P0EXTIE
      000000A0H   SFRSYM    DATA     BYTE      P2
      000000B4H   SFRSYM    DATA     BYTE      P0EXTIF
      000000B0H   SFRSYM    DATA     BYTE      P3
      000000ADH   SFRSYM    DATA     BYTE      P1EXTIE
      000000D0H.6 SFRSYM    DATA     BIT       AC
      000000FFH   SFRSYM    DATA     BYTE      MCTRL
      000000C2H   SFRSYM    DATA     BYTE      CCL1
      000000B5H   SFRSYM    DATA     BYTE      P1EXTIF
      000000AEH   SFRSYM    DATA     BYTE      P2EXTIE
      000000C4H   SFRSYM    DATA     BYTE      CCL2
      000000B6H   SFRSYM    DATA     BYTE      P2EXTIF
      000000AFH   SFRSYM    DATA     BYTE      P3EXTIE
      000000A8H.7 SFRSYM    DATA     BIT       EA
      000000C6H   SFRSYM    DATA     BYTE      CCL3
      000000B7H   SFRSYM    DATA     BYTE      P3EXTIF
      000000AAH   SFRSYM    DATA     BYTE      EIE2
      000000B2H   SFRSYM    DATA     BYTE      EIF2
      000000C8H.3 SFRSYM    DATA     BIT       T2R0
      000000C8H.4 SFRSYM    DATA     BIT       T2R1
      00000083H   SFRSYM    DATA     BYTE      DPH0
      000000A8H   SFRSYM    DATA     BYTE      IE
      00000085H   SFRSYM    DATA     BYTE      DPH1
      000000B9H   SFRSYM    DATA     BYTE      EIP1
      000000BAH   SFRSYM    DATA     BYTE      EIP2
      00000082H   SFRSYM    DATA     BYTE      DPL0
      00000084H   SFRSYM    DATA     BYTE      DPL1
      000000C8H.6 SFRSYM    DATA     BIT       I3FR
      000000CFH   SFRSYM    DATA     BYTE      T2IE
      00000096H   SFRSYM    DATA     BYTE      TA
      000000C9H   SFRSYM    DATA     BYTE      T2IF
      000000C8H.2 SFRSYM    DATA     BIT       T2CM
      000000DFH   SFRSYM    DATA     BYTE      ADCON0
      000000DEH   SFRSYM    DATA     BYTE      ADCON1
      000000E9H   SFRSYM    DATA     BYTE      ADCON2
      000000B8H   SFRSYM    DATA     BYTE      IP
      000000CEH   SFRSYM    DATA     BYTE      CCEN
      000000D0H.7 SFRSYM    DATA     BIT       CY
      000000D2H   SFRSYM    DATA     BYTE      T34MOD
      00000093H   SFRSYM    DATA     BYTE      DPX0
      00000095H   SFRSYM    DATA     BYTE      DPX1
      000000F4H   SFRSYM    DATA     BYTE      I2CMSA
      000000F5H   SFRSYM    DATA     BYTE      I2CMCR
      00000081H   SFRSYM    DATA     BYTE      SP
      000000D0H.2 SFRSYM    DATA     BIT       OV
      000000F2H   SFRSYM    DATA     BYTE      I2CSCR
      000000C8H.7 SFRSYM    DATA     BIT       T2PS
      000000D1H   SFRSYM    DATA     BYTE      ADCMPC
      000000CBH   SFRSYM    DATA     BYTE      RLDH
      000000D5H   SFRSYM    DATA     BYTE      ADCMPH
      000000CAH   SFRSYM    DATA     BYTE      RLDL
      00000080H.0 SFRSYM    DATA     BIT       P00
      00000090H.0 SFRSYM    DATA     BIT       P10
      00000080H.1 SFRSYM    DATA     BIT       P01
      000000F7H   SFRSYM    DATA     BYTE      I2CMTP
      00000099H   SFRSYM    DATA     BYTE      SBUF
      00000087H   SFRSYM    DATA     BYTE      PCON
      000000A0H.0 SFRSYM    DATA     BIT       P20
      00000090H.1 SFRSYM    DATA     BIT       P11
      00000080H.2 SFRSYM    DATA     BIT       P02
      000000F5H   SFRSYM    DATA     BYTE      I2CMSR
      000000B0H.0 SFRSYM    DATA     BIT       P30
LX51 LINKER/LOCATER V4.66.97.0                                                        05/01/2025  09:54:43  PAGE 41


      000000A0H.1 SFRSYM    DATA     BIT       P21
      00000090H.2 SFRSYM    DATA     BIT       P12
      00000080H.3 SFRSYM    DATA     BIT       P03
      000000D4H   SFRSYM    DATA     BYTE      ADCMPL
      000000B0H.1 SFRSYM    DATA     BIT       P31
      000000A0H.2 SFRSYM    DATA     BIT       P22
      00000090H.3 SFRSYM    DATA     BIT       P13
      00000080H.4 SFRSYM    DATA     BIT       P04
      000000B0H.2 SFRSYM    DATA     BIT       P32
      000000A0H.3 SFRSYM    DATA     BIT       P23
      00000090H.4 SFRSYM    DATA     BIT       P14
      00000080H.5 SFRSYM    DATA     BIT       P05
      00000089H   SFRSYM    DATA     BYTE      TMOD
      00000088H   SFRSYM    DATA     BYTE      TCON
      000000B0H.3 SFRSYM    DATA     BIT       P33
      000000A0H.4 SFRSYM    DATA     BIT       P24
      00000090H.5 SFRSYM    DATA     BIT       P15
      00000080H.6 SFRSYM    DATA     BIT       P06
      000000B0H.4 SFRSYM    DATA     BIT       P34
      000000A0H.5 SFRSYM    DATA     BIT       P25
      00000090H.6 SFRSYM    DATA     BIT       P16
      00000080H.7 SFRSYM    DATA     BIT       P07
      000000B0H.5 SFRSYM    DATA     BIT       P35
      000000A0H.6 SFRSYM    DATA     BIT       P26
      00000090H.7 SFRSYM    DATA     BIT       P17
      000000F2H   SFRSYM    DATA     BYTE      I2CSSR
      000000B0H.6 SFRSYM    DATA     BIT       P36
      000000A0H.7 SFRSYM    DATA     BIT       P27
      000000ECH   SFRSYM    DATA     BYTE      SPCR
      000000DDH   SFRSYM    DATA     BYTE      ADRESH
      000000B0H.7 SFRSYM    DATA     BIT       P37
      000000EEH   SFRSYM    DATA     BYTE      SPDR
      000000EFH   SFRSYM    DATA     BYTE      SSCR
      000000D3H   SFRSYM    DATA     BYTE      ADDLYL
      000000DCH   SFRSYM    DATA     BYTE      ADRESL
      00000088H.1 SFRSYM    DATA     BIT       IE0
      00000088H.3 SFRSYM    DATA     BIT       IE1
      0000008FH   SFRSYM    DATA     BYTE      CLKDIV
      000000F0H   SFRSYM    DATA     BYTE      B
      00000091H   SFRSYM    DATA     BYTE      FUNCCR
      0000009AH   SFRSYM    DATA     BYTE      P0TRIS
      000000A1H   SFRSYM    DATA     BYTE      P1TRIS
      000000A2H   SFRSYM    DATA     BYTE      P2TRIS
      000000E0H   SFRSYM    DATA     BYTE      ACC
      000000A3H   SFRSYM    DATA     BYTE      P3TRIS
      000000A8H.4 SFRSYM    DATA     BIT       ES0
      000000A8H.6 SFRSYM    DATA     BIT       ES1
      000000A8H.1 SFRSYM    DATA     BIT       ET0
      000000EDH   SFRSYM    DATA     BYTE      SPSR
      000000A8H.3 SFRSYM    DATA     BIT       ET1
      00000088H.5 SFRSYM    DATA     BIT       TF0
      000000A8H.5 SFRSYM    DATA     BIT       ET2
      00000098H.0 SFRSYM    DATA     BIT       RI0
      00000088H.7 SFRSYM    DATA     BIT       TF1
      0000008CH   SFRSYM    DATA     BYTE      TH0
      000000A8H.0 SFRSYM    DATA     BIT       EX0
      00000098H.1 SFRSYM    DATA     BIT       TI0
      00000088H.0 SFRSYM    DATA     BIT       IT0
      0000008DH   SFRSYM    DATA     BYTE      TH1
      000000A8H.2 SFRSYM    DATA     BIT       EX1
      00000088H.2 SFRSYM    DATA     BIT       IT1
      000000CDH   SFRSYM    DATA     BYTE      TH2
      000000D0H.0 SFRSYM    DATA     BIT       P
      000000DBH   SFRSYM    DATA     BYTE      TH3
      000000E3H   SFRSYM    DATA     BYTE      TH4
LX51 LINKER/LOCATER V4.66.97.0                                                        05/01/2025  09:54:43  PAGE 42


      0000008AH   SFRSYM    DATA     BYTE      TL0
      0000008BH   SFRSYM    DATA     BYTE      TL1
      00000098H.2 SFRSYM    DATA     BIT       U0RB8
      000000CCH   SFRSYM    DATA     BYTE      TL2
      000000B8H.4 SFRSYM    DATA     BIT       PS0
      000000DAH   SFRSYM    DATA     BYTE      TL3
      000000BFH   SFRSYM    DATA     BYTE      BUZCON
      000000B8H.6 SFRSYM    DATA     BIT       PS1
      000000B8H.1 SFRSYM    DATA     BIT       PT0
      00000098H.3 SFRSYM    DATA     BIT       U0TB8
      000000E2H   SFRSYM    DATA     BYTE      TL4
      000000D0H.3 SFRSYM    DATA     BIT       RS0
      000000B8H.3 SFRSYM    DATA     BIT       PT1
      000000D0H.4 SFRSYM    DATA     BIT       RS1
      000000B8H.5 SFRSYM    DATA     BIT       PT2
      00000098H.7 SFRSYM    DATA     BIT       U0SM0
      00000088H.4 SFRSYM    DATA     BIT       TR0
      000000BEH   SFRSYM    DATA     BYTE      BUZDIV
      00000098H.6 SFRSYM    DATA     BIT       U0SM1
      00000088H.6 SFRSYM    DATA     BIT       TR1
      000000B8H.0 SFRSYM    DATA     BIT       PX0
      00000098H.5 SFRSYM    DATA     BIT       U0SM2
      000000B8H.2 SFRSYM    DATA     BIT       PX1
      000000BDH   SFRSYM    DATA     BYTE      WUTCRH
      00000099H   SFRSYM    DATA     BYTE      SBUF0
      000000EBH   SFRSYM    DATA     BYTE      SBUF1
      000000BCH   SFRSYM    DATA     BYTE      WUTCRL
      00000098H   SFRSYM    DATA     BYTE      SCON0
      000000EAH   SFRSYM    DATA     BYTE      SCON1
      000000C8H   SFRSYM    DATA     BYTE      T2CON
      00000086H   SFRSYM    DATA     BYTE      DPS
      000000FEH   SFRSYM    DATA     BYTE      MDATA
      000000F6H   SFRSYM    DATA     BYTE      I2CMBUF
      000000F1H   SFRSYM    DATA     BYTE      I2CSADR
      00000098H.4 SFRSYM    DATA     BIT       U0REN
      000000C8H.5 SFRSYM    DATA     BIT       CAPES
      000000FDH   SFRSYM    DATA     BYTE      MADRH
      0000008EH   SFRSYM    DATA     BYTE      CKCON
      000000F3H   SFRSYM    DATA     BYTE      I2CSBUF
      000000FCH   SFRSYM    DATA     BYTE      MADRL
      000000D0H.5 SFRSYM    DATA     BIT       F0
      000000FBH   SFRSYM    DATA     BYTE      MLOCK
      000000D0H   SFRSYM    DATA     BYTE      PSW
      00000097H   SFRSYM    DATA     BYTE      WDCON

      01003866H   BLOCK     CODE     ---       LVL=0
      00000020H.3 SYMBOL    BIT      BIT       IsEnable
      01003866H   LINE      CODE     ---       #13
      01003866H   LINE      CODE     ---       #14
      01003866H   LINE      CODE     ---       #15
      0100386AH   LINE      CODE     ---       #16
      0100386AH   LINE      CODE     ---       #17
      0100386CH   LINE      CODE     ---       #18
      01003870H   LINE      CODE     ---       #20
      01003870H   LINE      CODE     ---       #22
      01003872H   LINE      CODE     ---       #23
      01003875H   LINE      CODE     ---       #24
      01003878H   LINE      CODE     ---       #25
      0100387BH   LINE      CODE     ---       #26
      0100387EH   LINE      CODE     ---       #28
      01003881H   LINE      CODE     ---       #29
      01003883H   LINE      CODE     ---       #30
      01003886H   LINE      CODE     ---       #32
      01003888H   LINE      CODE     ---       #33
      0100388AH   LINE      CODE     ---       #34
LX51 LINKER/LOCATER V4.66.97.0                                                        05/01/2025  09:54:43  PAGE 43


      0100388CH   LINE      CODE     ---       #35
      0100388FH   LINE      CODE     ---       #36
      ---         BLOCKEND  ---      ---       LVL=0

      0100002EH   BLOCK     CODE     ---       LVL=0
      0100002EH   LINE      CODE     ---       #63
      0100002EH   LINE      CODE     ---       #65
      01000031H   LINE      CODE     ---       #67
      01000033H   LINE      CODE     ---       #68
      01000036H   LINE      CODE     ---       #69
      01000036H   LINE      CODE     ---       #70
      01000038H   LINE      CODE     ---       #71
      0100003AH   LINE      CODE     ---       #72
      0100003AH   LINE      CODE     ---       #73
      ---         BLOCKEND  ---      ---       LVL=0

      01003E12H   BLOCK     CODE     ---       LVL=0
      01003E12H   LINE      CODE     ---       #76
      01003E12H   LINE      CODE     ---       #78
      01003E15H   LINE      CODE     ---       #79
      01003E17H   LINE      CODE     ---       #80
      ---         BLOCKEND  ---      ---       LVL=0

      01003CE4H   BLOCK     CODE     ---       LVL=0
      01003CE4H   LINE      CODE     ---       #83
      01003CE4H   LINE      CODE     ---       #84
      01003CE4H   LINE      CODE     ---       #85
      01003CE7H   LINE      CODE     ---       #86
      01003CEAH   LINE      CODE     ---       #87
      01003CEDH   LINE      CODE     ---       #88
      01003CF0H   LINE      CODE     ---       #89
      01003CF2H   LINE      CODE     ---       #90
      01003CF5H   LINE      CODE     ---       #91
      ---         BLOCKEND  ---      ---       LVL=0

      01001FDCH   BLOCK     CODE     ---       LVL=0
      0000002AH   SYMBOL    DATA     INT       ms
      01001FE0H   BLOCK     CODE     NEAR LAB  LVL=1
      0000002CH   SYMBOL    DATA     DWORD     CNT
      00000030H   SYMBOL    DATA     INT       repcounter
      ---         BLOCKEND  ---      ---       LVL=1
      01001FDCH   LINE      CODE     ---       #113
      01001FE0H   LINE      CODE     ---       #114
      01001FE0H   LINE      CODE     ---       #116
      01001FE5H   LINE      CODE     ---       #118
      01001FEEH   LINE      CODE     ---       #120
      01001FEEH   LINE      CODE     ---       #121
      01001FF6H   LINE      CODE     ---       #122
      01002012H   LINE      CODE     ---       #123
      01002033H   LINE      CODE     ---       #124
      01002033H   LINE      CODE     ---       #125
      01002048H   LINE      CODE     ---       #126
      0100205FH   LINE      CODE     ---       #129
      0100205FH   LINE      CODE     ---       #131
      0100206EH   LINE      CODE     ---       #132
      01002073H   LINE      CODE     ---       #133
      01002075H   LINE      CODE     ---       #135
      01002078H   LINE      CODE     ---       #136
      01002080H   LINE      CODE     ---       #138
      01002083H   LINE      CODE     ---       #139
      0100208BH   LINE      CODE     ---       #140
      0100208BH   LINE      CODE     ---       #141
      01002091H   LINE      CODE     ---       #142
      ---         BLOCKEND  ---      ---       LVL=0

LX51 LINKER/LOCATER V4.66.97.0                                                        05/01/2025  09:54:43  PAGE 44


      ---         MODULE    ---      ---       NTC
      01003EFDH   PUBLIC    CONST    ---       NTCTableBottom
      01003E21H   PUBLIC    CONST    ---       NTCTableTop
      01001947H   PUBLIC    CODE     ---       _CalcNTCTemp

      01003890H   BLOCK     CODE     ---       LVL=0
      ---         BLOCKEND  ---      ---       LVL=0

      01001947H   BLOCK     CODE     ---       LVL=0
      00000038H   SYMBOL    DATA     ---       IsNTCOK
      0000003BH   SYMBOL    DATA     DWORD     NTCRes
      01001955H   BLOCK     CODE     NEAR LAB  LVL=1
      0000003FH   SYMBOL    DATA     CHAR      i
      00000040H   SYMBOL    DATA     DWORD     NTCTableValue
      ---         BLOCKEND  ---      ---       LVL=1
      01001947H   LINE      CODE     ---       #52
      01001955H   LINE      CODE     ---       #56
      01001963H   LINE      CODE     ---       #57
      01001963H   LINE      CODE     ---       #58
      01001966H   LINE      CODE     ---       #59
      0100196BH   LINE      CODE     ---       #60
      0100196BH   LINE      CODE     ---       #62
      01001976H   LINE      CODE     ---       #63
      01001976H   LINE      CODE     ---       #64
      01001979H   LINE      CODE     ---       #65
      0100197DH   LINE      CODE     ---       #66
      0100197DH   LINE      CODE     ---       #68
      01001982H   LINE      CODE     ---       #69
      010019CAH   LINE      CODE     ---       #70
      010019DBH   LINE      CODE     ---       #71
      010019DBH   LINE      CODE     ---       #72
      010019FCH   LINE      CODE     ---       #73
      01001A09H   LINE      CODE     ---       #74
      01001A2AH   LINE      CODE     ---       #75
      01001A2EH   LINE      CODE     ---       #77
      01001A31H   LINE      CODE     ---       #78
      01001A33H   LINE      CODE     ---       #79
      ---         BLOCKEND  ---      ---       LVL=0

      ---         MODULE    ---      ---       SIDEKEY
      0200004CH   PUBLIC    XDATA    BYTE      KeyState
      0100000EH   PUBLIC    CODE     ---       getSideKeyNClickAndHoldEvent
      01003DE5H   PUBLIC    CODE     ---       getSideKey1HEvent
      01000003H   PUBLIC    CODE     ---       getSideKeyHoldEvent
      01003D82H   PUBLIC    CODE     ---       getSideKeyLongPressEvent
      00000020H.1 PUBLIC    BIT      BIT       ?getSideKeyShortPressCount?BIT
      01003BCBH   PUBLIC    CODE     ---       getSideKeyShortPressCount
      01002292H   PUBLIC    CODE     ---       SideKey_LogicHandler
      01003AE6H   PUBLIC    CODE     ---       MarkAsKeyPressed
      01002F67H   PUBLIC    CODE     ---       SideKey_Int_Callback
      010034E3H   PUBLIC    CODE     ---       SideKey_TIM_Callback
      01003D75H   PUBLIC    CODE     ---       IsKeyEventOccurred
      010033DCH   PUBLIC    CODE     ---       SideKeyInit
      01003E18H   PUBLIC    CODE     ---       GetIfKeyPressed
      010031DAH   PUBLIC    CODE     ---       Key_IRQHandler
      000000C8H.0 SFRSYM    DATA     BIT       T2I0
      000000C3H   SFRSYM    DATA     BYTE      CCH1
      00000080H   SFRSYM    DATA     BYTE      P0
      000000C8H.1 SFRSYM    DATA     BIT       T2I1
      000000C5H   SFRSYM    DATA     BYTE      CCH2
      00000090H   SFRSYM    DATA     BYTE      P1
      000000C7H   SFRSYM    DATA     BYTE      CCH3
      000000ACH   SFRSYM    DATA     BYTE      P0EXTIE
      000000A0H   SFRSYM    DATA     BYTE      P2
      000000B4H   SFRSYM    DATA     BYTE      P0EXTIF
LX51 LINKER/LOCATER V4.66.97.0                                                        05/01/2025  09:54:43  PAGE 45


      000000B0H   SFRSYM    DATA     BYTE      P3
      000000ADH   SFRSYM    DATA     BYTE      P1EXTIE
      000000D0H.6 SFRSYM    DATA     BIT       AC
      000000FFH   SFRSYM    DATA     BYTE      MCTRL
      000000C2H   SFRSYM    DATA     BYTE      CCL1
      000000B5H   SFRSYM    DATA     BYTE      P1EXTIF
      000000AEH   SFRSYM    DATA     BYTE      P2EXTIE
      000000C4H   SFRSYM    DATA     BYTE      CCL2
      000000B6H   SFRSYM    DATA     BYTE      P2EXTIF
      000000AFH   SFRSYM    DATA     BYTE      P3EXTIE
      000000A8H.7 SFRSYM    DATA     BIT       EA
      000000C6H   SFRSYM    DATA     BYTE      CCL3
      000000B7H   SFRSYM    DATA     BYTE      P3EXTIF
      000000AAH   SFRSYM    DATA     BYTE      EIE2
      000000B2H   SFRSYM    DATA     BYTE      EIF2
      000000C8H.3 SFRSYM    DATA     BIT       T2R0
      000000C8H.4 SFRSYM    DATA     BIT       T2R1
      00000083H   SFRSYM    DATA     BYTE      DPH0
      000000A8H   SFRSYM    DATA     BYTE      IE
      00000085H   SFRSYM    DATA     BYTE      DPH1
      000000B9H   SFRSYM    DATA     BYTE      EIP1
      000000BAH   SFRSYM    DATA     BYTE      EIP2
      00000082H   SFRSYM    DATA     BYTE      DPL0
      00000084H   SFRSYM    DATA     BYTE      DPL1
      000000C8H.6 SFRSYM    DATA     BIT       I3FR
      000000CFH   SFRSYM    DATA     BYTE      T2IE
      00000096H   SFRSYM    DATA     BYTE      TA
      000000C9H   SFRSYM    DATA     BYTE      T2IF
      000000C8H.2 SFRSYM    DATA     BIT       T2CM
      000000DFH   SFRSYM    DATA     BYTE      ADCON0
      000000DEH   SFRSYM    DATA     BYTE      ADCON1
      000000E9H   SFRSYM    DATA     BYTE      ADCON2
      000000B8H   SFRSYM    DATA     BYTE      IP
      000000CEH   SFRSYM    DATA     BYTE      CCEN
      000000D0H.7 SFRSYM    DATA     BIT       CY
      000000D2H   SFRSYM    DATA     BYTE      T34MOD
      00000093H   SFRSYM    DATA     BYTE      DPX0
      00000095H   SFRSYM    DATA     BYTE      DPX1
      000000F4H   SFRSYM    DATA     BYTE      I2CMSA
      000000F5H   SFRSYM    DATA     BYTE      I2CMCR
      00000081H   SFRSYM    DATA     BYTE      SP
      000000D0H.2 SFRSYM    DATA     BIT       OV
      000000F2H   SFRSYM    DATA     BYTE      I2CSCR
      000000C8H.7 SFRSYM    DATA     BIT       T2PS
      000000D1H   SFRSYM    DATA     BYTE      ADCMPC
      000000CBH   SFRSYM    DATA     BYTE      RLDH
      000000D5H   SFRSYM    DATA     BYTE      ADCMPH
      000000CAH   SFRSYM    DATA     BYTE      RLDL
      00000080H.0 SFRSYM    DATA     BIT       P00
      00000090H.0 SFRSYM    DATA     BIT       P10
      00000080H.1 SFRSYM    DATA     BIT       P01
      000000F7H   SFRSYM    DATA     BYTE      I2CMTP
      00000099H   SFRSYM    DATA     BYTE      SBUF
      00000087H   SFRSYM    DATA     BYTE      PCON
      000000A0H.0 SFRSYM    DATA     BIT       P20
      00000090H.1 SFRSYM    DATA     BIT       P11
      00000080H.2 SFRSYM    DATA     BIT       P02
      000000F5H   SFRSYM    DATA     BYTE      I2CMSR
      000000B0H.0 SFRSYM    DATA     BIT       P30
      000000A0H.1 SFRSYM    DATA     BIT       P21
      00000090H.2 SFRSYM    DATA     BIT       P12
      00000080H.3 SFRSYM    DATA     BIT       P03
      000000D4H   SFRSYM    DATA     BYTE      ADCMPL
      000000B0H.1 SFRSYM    DATA     BIT       P31
      000000A0H.2 SFRSYM    DATA     BIT       P22
LX51 LINKER/LOCATER V4.66.97.0                                                        05/01/2025  09:54:43  PAGE 46


      00000090H.3 SFRSYM    DATA     BIT       P13
      00000080H.4 SFRSYM    DATA     BIT       P04
      000000B0H.2 SFRSYM    DATA     BIT       P32
      000000A0H.3 SFRSYM    DATA     BIT       P23
      00000090H.4 SFRSYM    DATA     BIT       P14
      00000080H.5 SFRSYM    DATA     BIT       P05
      00000089H   SFRSYM    DATA     BYTE      TMOD
      00000088H   SFRSYM    DATA     BYTE      TCON
      000000B0H.3 SFRSYM    DATA     BIT       P33
      000000A0H.4 SFRSYM    DATA     BIT       P24
      00000090H.5 SFRSYM    DATA     BIT       P15
      00000080H.6 SFRSYM    DATA     BIT       P06
      000000B0H.4 SFRSYM    DATA     BIT       P34
      000000A0H.5 SFRSYM    DATA     BIT       P25
      00000090H.6 SFRSYM    DATA     BIT       P16
      00000080H.7 SFRSYM    DATA     BIT       P07
      000000B0H.5 SFRSYM    DATA     BIT       P35
      000000A0H.6 SFRSYM    DATA     BIT       P26
      00000090H.7 SFRSYM    DATA     BIT       P17
      000000F2H   SFRSYM    DATA     BYTE      I2CSSR
      000000B0H.6 SFRSYM    DATA     BIT       P36
      000000A0H.7 SFRSYM    DATA     BIT       P27
      000000ECH   SFRSYM    DATA     BYTE      SPCR
      000000DDH   SFRSYM    DATA     BYTE      ADRESH
      000000B0H.7 SFRSYM    DATA     BIT       P37
      000000EEH   SFRSYM    DATA     BYTE      SPDR
      00000080H.0 SFRSYM    DATA     BIT       KeyPress
      000000EFH   SFRSYM    DATA     BYTE      SSCR
      000000D3H   SFRSYM    DATA     BYTE      ADDLYL
      000000DCH   SFRSYM    DATA     BYTE      ADRESL
      00000088H.1 SFRSYM    DATA     BIT       IE0
      00000088H.3 SFRSYM    DATA     BIT       IE1
      0000008FH   SFRSYM    DATA     BYTE      CLKDIV
      000000F0H   SFRSYM    DATA     BYTE      B
      00000091H   SFRSYM    DATA     BYTE      FUNCCR
      0000009AH   SFRSYM    DATA     BYTE      P0TRIS
      000000A1H   SFRSYM    DATA     BYTE      P1TRIS
      000000A2H   SFRSYM    DATA     BYTE      P2TRIS
      000000E0H   SFRSYM    DATA     BYTE      ACC
      000000A3H   SFRSYM    DATA     BYTE      P3TRIS
      000000A8H.4 SFRSYM    DATA     BIT       ES0
      000000A8H.6 SFRSYM    DATA     BIT       ES1
      000000A8H.1 SFRSYM    DATA     BIT       ET0
      000000EDH   SFRSYM    DATA     BYTE      SPSR
      000000A8H.3 SFRSYM    DATA     BIT       ET1
      00000088H.5 SFRSYM    DATA     BIT       TF0
      000000A8H.5 SFRSYM    DATA     BIT       ET2
      00000098H.0 SFRSYM    DATA     BIT       RI0
      00000088H.7 SFRSYM    DATA     BIT       TF1
      0000008CH   SFRSYM    DATA     BYTE      TH0
      000000A8H.0 SFRSYM    DATA     BIT       EX0
      00000098H.1 SFRSYM    DATA     BIT       TI0
      00000088H.0 SFRSYM    DATA     BIT       IT0
      0000008DH   SFRSYM    DATA     BYTE      TH1
      000000A8H.2 SFRSYM    DATA     BIT       EX1
      00000088H.2 SFRSYM    DATA     BIT       IT1
      000000CDH   SFRSYM    DATA     BYTE      TH2
      000000D0H.0 SFRSYM    DATA     BIT       P
      000000DBH   SFRSYM    DATA     BYTE      TH3
      000000E3H   SFRSYM    DATA     BYTE      TH4
      0000008AH   SFRSYM    DATA     BYTE      TL0
      0000008BH   SFRSYM    DATA     BYTE      TL1
      00000098H.2 SFRSYM    DATA     BIT       U0RB8
      000000CCH   SFRSYM    DATA     BYTE      TL2
      000000B8H.4 SFRSYM    DATA     BIT       PS0
LX51 LINKER/LOCATER V4.66.97.0                                                        05/01/2025  09:54:43  PAGE 47


      000000DAH   SFRSYM    DATA     BYTE      TL3
      000000BFH   SFRSYM    DATA     BYTE      BUZCON
      000000B8H.6 SFRSYM    DATA     BIT       PS1
      000000B8H.1 SFRSYM    DATA     BIT       PT0
      00000098H.3 SFRSYM    DATA     BIT       U0TB8
      000000E2H   SFRSYM    DATA     BYTE      TL4
      000000D0H.3 SFRSYM    DATA     BIT       RS0
      000000B8H.3 SFRSYM    DATA     BIT       PT1
      000000D0H.4 SFRSYM    DATA     BIT       RS1
      000000B8H.5 SFRSYM    DATA     BIT       PT2
      00000098H.7 SFRSYM    DATA     BIT       U0SM0
      00000088H.4 SFRSYM    DATA     BIT       TR0
      000000BEH   SFRSYM    DATA     BYTE      BUZDIV
      00000098H.6 SFRSYM    DATA     BIT       U0SM1
      00000088H.6 SFRSYM    DATA     BIT       TR1
      000000B8H.0 SFRSYM    DATA     BIT       PX0
      00000098H.5 SFRSYM    DATA     BIT       U0SM2
      000000B8H.2 SFRSYM    DATA     BIT       PX1
      000000BDH   SFRSYM    DATA     BYTE      WUTCRH
      00000099H   SFRSYM    DATA     BYTE      SBUF0
      000000EBH   SFRSYM    DATA     BYTE      SBUF1
      000000BCH   SFRSYM    DATA     BYTE      WUTCRL
      00000098H   SFRSYM    DATA     BYTE      SCON0
      000000EAH   SFRSYM    DATA     BYTE      SCON1
      000000C8H   SFRSYM    DATA     BYTE      T2CON
      00000086H   SFRSYM    DATA     BYTE      DPS
      000000FEH   SFRSYM    DATA     BYTE      MDATA
      000000F6H   SFRSYM    DATA     BYTE      I2CMBUF
      000000F1H   SFRSYM    DATA     BYTE      I2CSADR
      00000098H.4 SFRSYM    DATA     BIT       U0REN
      000000C8H.5 SFRSYM    DATA     BIT       CAPES
      000000FDH   SFRSYM    DATA     BYTE      MADRH
      0000008EH   SFRSYM    DATA     BYTE      CKCON
      000000F3H   SFRSYM    DATA     BYTE      I2CSBUF
      000000FCH   SFRSYM    DATA     BYTE      MADRL
      000000D0H.5 SFRSYM    DATA     BIT       F0
      000000FBH   SFRSYM    DATA     BYTE      MLOCK
      000000D0H   SFRSYM    DATA     BYTE      PSW
      00000097H   SFRSYM    DATA     BYTE      WDCON
      00000050H   SYMBOL    DATA     ---       KeyTimer
      00000023H.0 SYMBOL    BIT      BIT       IsKeyPressed
      00000052H   SYMBOL    DATA     ---       Keyevent
      01003D4BH   SYMBOL    CODE     ---       _ClickAndHoldEventHandler

      01003DA8H   BLOCK     CODE     ---       LVL=0
      ---         BLOCKEND  ---      ---       LVL=0

      010031DAH   BLOCK     CODE     ---       LVL=0
      010031DAH   LINE      CODE     ---       #38
      01003200H   LINE      CODE     ---       #41
      01003203H   LINE      CODE     ---       #43
      01003206H   LINE      CODE     ---       #44
      ---         BLOCKEND  ---      ---       LVL=0

      01003E18H   BLOCK     CODE     ---       LVL=0
      01003E18H   LINE      CODE     ---       #47
      01003E18H   LINE      CODE     ---       #48
      01003E18H   LINE      CODE     ---       #49
      01003E1DH   LINE      CODE     ---       #50
      ---         BLOCKEND  ---      ---       LVL=0

      010033DCH   BLOCK     CODE     ---       LVL=0
      010033DCH   BLOCK     CODE     NEAR LAB  LVL=1
      00000024H   SYMBOL    DATA     ---       KeyInitCfg
      ---         BLOCKEND  ---      ---       LVL=1
LX51 LINKER/LOCATER V4.66.97.0                                                        05/01/2025  09:54:43  PAGE 48


      010033DCH   LINE      CODE     ---       #53
      010033DCH   LINE      CODE     ---       #54
      010033DCH   LINE      CODE     ---       #57
      010033DFH   LINE      CODE     ---       #58
      010033E2H   LINE      CODE     ---       #59
      010033E4H   LINE      CODE     ---       #61
      010033EAH   LINE      CODE     ---       #62
      010033F7H   LINE      CODE     ---       #63
      010033FEH   LINE      CODE     ---       #64
      01003406H   LINE      CODE     ---       #65
      01003409H   LINE      CODE     ---       #67
      0100340CH   LINE      CODE     ---       #68
      01003412H   LINE      CODE     ---       #69
      01003415H   LINE      CODE     ---       #70
      01003417H   LINE      CODE     ---       #71
      01003419H   LINE      CODE     ---       #72
      0100341BH   LINE      CODE     ---       #73
      0100341DH   LINE      CODE     ---       #74
      ---         BLOCKEND  ---      ---       LVL=0

      01003D75H   BLOCK     CODE     ---       LVL=0
      01003D75H   LINE      CODE     ---       #77
      01003D75H   LINE      CODE     ---       #78
      01003D75H   LINE      CODE     ---       #79
      01003D7BH   LINE      CODE     ---       #80
      01003D81H   LINE      CODE     ---       #82
      01003D81H   LINE      CODE     ---       #83
      ---         BLOCKEND  ---      ---       LVL=0

      010034E3H   BLOCK     CODE     ---       LVL=0
      010034E3H   BLOCK     CODE     NEAR LAB  LVL=1
      00000005H   SYMBOL    DATA     BYTE      buf
      00000006H   SYMBOL    DATA     BYTE      i
      00000007H   SYMBOL    DATA     BYTE      Time
      ---         BLOCKEND  ---      ---       LVL=1
      010034E3H   LINE      CODE     ---       #86
      010034E3H   LINE      CODE     ---       #87
      010034E3H   LINE      CODE     ---       #91
      010034F7H   LINE      CODE     ---       #92
      010034F7H   LINE      CODE     ---       #93
      010034FAH   LINE      CODE     ---       #94
      01003509H   LINE      CODE     ---       #95
      0100350BH   LINE      CODE     ---       #96
      01003511H   LINE      CODE     ---       #97
      01003515H   LINE      CODE     ---       #98
      0100351CH   LINE      CODE     ---       #99
      0100351FH   LINE      CODE     ---       #100
      ---         BLOCKEND  ---      ---       LVL=0

      01002F67H   BLOCK     CODE     ---       LVL=0
      01002F67H   BLOCK     CODE     NEAR LAB  LVL=1
      00000007H   SYMBOL    DATA     BYTE      time
      ---         BLOCKEND  ---      ---       LVL=1
      01002F67H   LINE      CODE     ---       #103
      01002F67H   LINE      CODE     ---       #104
      01002F67H   LINE      CODE     ---       #107
      01002F73H   LINE      CODE     ---       #108
      01002F73H   LINE      CODE     ---       #109
      01002F75H   LINE      CODE     ---       #110
      01002F7AH   LINE      CODE     ---       #111
      01002F7DH   LINE      CODE     ---       #112
      01002F85H   LINE      CODE     ---       #113
      01002F85H   LINE      CODE     ---       #114
      01002F88H   LINE      CODE     ---       #115
      01002F8AH   LINE      CODE     ---       #116
LX51 LINKER/LOCATER V4.66.97.0                                                        05/01/2025  09:54:43  PAGE 49


      01002F8CH   LINE      CODE     ---       #117
      01002F92H   LINE      CODE     ---       #118
      01002F92H   LINE      CODE     ---       #119
      01002FA6H   LINE      CODE     ---       #120
      01002FA9H   LINE      CODE     ---       #121
      01002FA9H   LINE      CODE     ---       #122
      01002FABH   LINE      CODE     ---       #125
      01002FABH   LINE      CODE     ---       #126
      01002FADH   LINE      CODE     ---       #127
      01002FB5H   LINE      CODE     ---       #128
      01002FBDH   LINE      CODE     ---       #129
      01002FBDH   LINE      CODE     ---       #131
      01002FC4H   LINE      CODE     ---       #132
      01002FCAH   LINE      CODE     ---       #133
      ---         BLOCKEND  ---      ---       LVL=0

      01003AE6H   BLOCK     CODE     ---       LVL=0
      01003AE6H   LINE      CODE     ---       #136
      01003AE6H   LINE      CODE     ---       #137
      01003AE6H   LINE      CODE     ---       #139
      01003AEDH   LINE      CODE     ---       #140
      01003AF3H   LINE      CODE     ---       #142
      01003AF5H   LINE      CODE     ---       #143
      01003AFDH   LINE      CODE     ---       #144
      01003B05H   LINE      CODE     ---       #145
      ---         BLOCKEND  ---      ---       LVL=0

      01003D4BH   BLOCK     CODE     ---       LVL=0
      00000006H   SYMBOL    DATA     INT       PressCount
      01003D4BH   LINE      CODE     ---       #148
      01003D4BH   LINE      CODE     ---       #149
      01003D4BH   LINE      CODE     ---       #150
      01003D4EH   LINE      CODE     ---       #151
      01003D50H   LINE      CODE     ---       #152
      01003D52H   LINE      CODE     ---       #153
      01003D54H   LINE      CODE     ---       #155
      01003D58H   LINE      CODE     ---       #156
      ---         BLOCKEND  ---      ---       LVL=0

      01002292H   BLOCK     CODE     ---       LVL=0
      01002292H   BLOCK     CODE     NEAR LAB  LVL=1
      00000024H   SYMBOL    DATA     BYTE      buf
      ---         BLOCKEND  ---      ---       LVL=1
      01002292H   LINE      CODE     ---       #158
      01002292H   LINE      CODE     ---       #159
      01002292H   LINE      CODE     ---       #163
      0100229BH   LINE      CODE     ---       #164
      0100229BH   LINE      CODE     ---       #166
      010022A2H   LINE      CODE     ---       #167
      010022A8H   LINE      CODE     ---       #169
      010022AEH   LINE      CODE     ---       #170
      010022B7H   LINE      CODE     ---       #171
      010022B7H   LINE      CODE     ---       #172
      010022BAH   LINE      CODE     ---       #173
      010022BDH   LINE      CODE     ---       #174
      010022C8H   LINE      CODE     ---       #175
      010022D7H   LINE      CODE     ---       #176
      010022DEH   LINE      CODE     ---       #177
      010022DEH   LINE      CODE     ---       #178
      010022DEH   LINE      CODE     ---       #180
      010022E9H   LINE      CODE     ---       #182
      010022F3H   LINE      CODE     ---       #183
      010022FBH   LINE      CODE     ---       #184
      010022FBH   LINE      CODE     ---       #186
      0100230BH   LINE      CODE     ---       #188
LX51 LINKER/LOCATER V4.66.97.0                                                        05/01/2025  09:54:43  PAGE 50


      0100230BH   LINE      CODE     ---       #189
      0100230EH   LINE      CODE     ---       #190
      01002311H   LINE      CODE     ---       #191
      01002314H   LINE      CODE     ---       #192
      01002314H   LINE      CODE     ---       #193
      01002317H   LINE      CODE     ---       #194
      01002317H   LINE      CODE     ---       #196
      01002320H   LINE      CODE     ---       #197
      01002320H   LINE      CODE     ---       #198
      01002322H   LINE      CODE     ---       #199
      01002326H   LINE      CODE     ---       #200
      0100232AH   LINE      CODE     ---       #202
      0100232DH   LINE      CODE     ---       #203
      0100232DH   LINE      CODE     ---       #204
      ---         BLOCKEND  ---      ---       LVL=0

      01003BCBH   BLOCK     CODE     ---       LVL=0
      00000020H.1 SYMBOL    BIT      BIT       IsRemoveResult
      01003BCBH   BLOCK     CODE     NEAR LAB  LVL=1
      00000006H   SYMBOL    DATA     INT       buf
      ---         BLOCKEND  ---      ---       LVL=1
      01003BCBH   LINE      CODE     ---       #206
      01003BCBH   LINE      CODE     ---       #207
      01003BCBH   LINE      CODE     ---       #209
      01003BD2H   LINE      CODE     ---       #210
      01003BD8H   LINE      CODE     ---       #211
      01003BDAH   LINE      CODE     ---       #212
      01003BDDH   LINE      CODE     ---       #213
      01003BDDH   LINE      CODE     ---       #214
      01003BE0H   LINE      CODE     ---       #215
      01003BE2H   LINE      CODE     ---       #216
      01003BE2H   LINE      CODE     ---       #217
      01003BE2H   LINE      CODE     ---       #218
      ---         BLOCKEND  ---      ---       LVL=0

      01003D82H   BLOCK     CODE     ---       LVL=0
      01003D82H   LINE      CODE     ---       #220
      01003D82H   LINE      CODE     ---       #221
      01003D82H   LINE      CODE     ---       #222
      01003D8AH   LINE      CODE     ---       #223
      01003D8DH   LINE      CODE     ---       #224
      01003D8EH   LINE      CODE     ---       #225
      ---         BLOCKEND  ---      ---       LVL=0

      01000003H   BLOCK     CODE     ---       LVL=0
      01000003H   LINE      CODE     ---       #227
      01000003H   LINE      CODE     ---       #228
      01000003H   LINE      CODE     ---       #229
      01000009H   LINE      CODE     ---       #230
      ---         BLOCKEND  ---      ---       LVL=0

      01003DE5H   BLOCK     CODE     ---       LVL=0
      01003DE5H   LINE      CODE     ---       #232
      01003DE5H   LINE      CODE     ---       #233
      01003DE5H   LINE      CODE     ---       #234
      01003DEDH   LINE      CODE     ---       #235
      ---         BLOCKEND  ---      ---       LVL=0

      0100000EH   BLOCK     CODE     ---       LVL=0
      0100000EH   LINE      CODE     ---       #237
      0100000EH   LINE      CODE     ---       #238
      0100000EH   LINE      CODE     ---       #240
      01000028H   LINE      CODE     ---       #241
      ---         BLOCKEND  ---      ---       LVL=0

LX51 LINKER/LOCATER V4.66.97.0                                                        05/01/2025  09:54:43  PAGE 51


      ---         MODULE    ---      ---       LEDMGMT
      0000005AH   PUBLIC    DATA     BYTE      LEDMode
      00000023H.1 PUBLIC    BIT      BIT       IsHalfBrightness
      010038BAH   PUBLIC    CODE     ---       _MakeFastStrobe
      0100165AH   PUBLIC    CODE     ---       LEDControlHandler
      01002938H   PUBLIC    CODE     ---       LED_Init
      000000C8H.0 SFRSYM    DATA     BIT       T2I0
      000000C3H   SFRSYM    DATA     BYTE      CCH1
      00000080H   SFRSYM    DATA     BYTE      P0
      000000C8H.1 SFRSYM    DATA     BIT       T2I1
      000000C5H   SFRSYM    DATA     BYTE      CCH2
      00000090H   SFRSYM    DATA     BYTE      P1
      000000C7H   SFRSYM    DATA     BYTE      CCH3
      000000ACH   SFRSYM    DATA     BYTE      P0EXTIE
      000000A0H   SFRSYM    DATA     BYTE      P2
      000000B4H   SFRSYM    DATA     BYTE      P0EXTIF
      000000B0H   SFRSYM    DATA     BYTE      P3
      000000ADH   SFRSYM    DATA     BYTE      P1EXTIE
      000000D0H.6 SFRSYM    DATA     BIT       AC
      000000FFH   SFRSYM    DATA     BYTE      MCTRL
      000000C2H   SFRSYM    DATA     BYTE      CCL1
      000000B5H   SFRSYM    DATA     BYTE      P1EXTIF
      000000AEH   SFRSYM    DATA     BYTE      P2EXTIE
      000000C4H   SFRSYM    DATA     BYTE      CCL2
      000000B6H   SFRSYM    DATA     BYTE      P2EXTIF
      000000AFH   SFRSYM    DATA     BYTE      P3EXTIE
      000000A8H.7 SFRSYM    DATA     BIT       EA
      000000C6H   SFRSYM    DATA     BYTE      CCL3
      000000B7H   SFRSYM    DATA     BYTE      P3EXTIF
      000000AAH   SFRSYM    DATA     BYTE      EIE2
      000000B2H   SFRSYM    DATA     BYTE      EIF2
      000000C8H.3 SFRSYM    DATA     BIT       T2R0
      000000C8H.4 SFRSYM    DATA     BIT       T2R1
      00000083H   SFRSYM    DATA     BYTE      DPH0
      000000A8H   SFRSYM    DATA     BYTE      IE
      00000085H   SFRSYM    DATA     BYTE      DPH1
      000000B9H   SFRSYM    DATA     BYTE      EIP1
      000000BAH   SFRSYM    DATA     BYTE      EIP2
      00000082H   SFRSYM    DATA     BYTE      DPL0
      00000084H   SFRSYM    DATA     BYTE      DPL1
      000000C8H.6 SFRSYM    DATA     BIT       I3FR
      000000CFH   SFRSYM    DATA     BYTE      T2IE
      00000096H   SFRSYM    DATA     BYTE      TA
      000000C9H   SFRSYM    DATA     BYTE      T2IF
      000000C8H.2 SFRSYM    DATA     BIT       T2CM
      000000DFH   SFRSYM    DATA     BYTE      ADCON0
      000000DEH   SFRSYM    DATA     BYTE      ADCON1
      000000E9H   SFRSYM    DATA     BYTE      ADCON2
      000000B8H   SFRSYM    DATA     BYTE      IP
      000000CEH   SFRSYM    DATA     BYTE      CCEN
      000000D0H.7 SFRSYM    DATA     BIT       CY
      000000D2H   SFRSYM    DATA     BYTE      T34MOD
      00000093H   SFRSYM    DATA     BYTE      DPX0
      00000095H   SFRSYM    DATA     BYTE      DPX1
      000000F4H   SFRSYM    DATA     BYTE      I2CMSA
      000000F5H   SFRSYM    DATA     BYTE      I2CMCR
      00000081H   SFRSYM    DATA     BYTE      SP
      000000D0H.2 SFRSYM    DATA     BIT       OV
      000000F2H   SFRSYM    DATA     BYTE      I2CSCR
      000000C8H.7 SFRSYM    DATA     BIT       T2PS
      000000D1H   SFRSYM    DATA     BYTE      ADCMPC
      000000CBH   SFRSYM    DATA     BYTE      RLDH
      000000D5H   SFRSYM    DATA     BYTE      ADCMPH
      000000CAH   SFRSYM    DATA     BYTE      RLDL
      00000080H.0 SFRSYM    DATA     BIT       P00
LX51 LINKER/LOCATER V4.66.97.0                                                        05/01/2025  09:54:43  PAGE 52


      00000090H.0 SFRSYM    DATA     BIT       P10
      00000080H.1 SFRSYM    DATA     BIT       P01
      000000F7H   SFRSYM    DATA     BYTE      I2CMTP
      00000099H   SFRSYM    DATA     BYTE      SBUF
      00000087H   SFRSYM    DATA     BYTE      PCON
      000000A0H.0 SFRSYM    DATA     BIT       P20
      00000090H.1 SFRSYM    DATA     BIT       P11
      00000080H.2 SFRSYM    DATA     BIT       P02
      000000F5H   SFRSYM    DATA     BYTE      I2CMSR
      000000B0H.0 SFRSYM    DATA     BIT       P30
      000000A0H.1 SFRSYM    DATA     BIT       P21
      00000090H.2 SFRSYM    DATA     BIT       P12
      00000080H.3 SFRSYM    DATA     BIT       P03
      000000D4H   SFRSYM    DATA     BYTE      ADCMPL
      000000B0H.1 SFRSYM    DATA     BIT       P31
      000000A0H.2 SFRSYM    DATA     BIT       P22
      00000090H.3 SFRSYM    DATA     BIT       P13
      00000080H.4 SFRSYM    DATA     BIT       P04
      000000B0H.2 SFRSYM    DATA     BIT       P32
      000000A0H.3 SFRSYM    DATA     BIT       P23
      00000090H.4 SFRSYM    DATA     BIT       P14
      00000080H.5 SFRSYM    DATA     BIT       P05
      00000089H   SFRSYM    DATA     BYTE      TMOD
      00000088H   SFRSYM    DATA     BYTE      TCON
      000000B0H.3 SFRSYM    DATA     BIT       P33
      000000A0H.4 SFRSYM    DATA     BIT       P24
      00000090H.5 SFRSYM    DATA     BIT       P15
      00000080H.6 SFRSYM    DATA     BIT       P06
      000000B0H.4 SFRSYM    DATA     BIT       P34
      000000A0H.5 SFRSYM    DATA     BIT       P25
      00000090H.6 SFRSYM    DATA     BIT       P16
      00000080H.7 SFRSYM    DATA     BIT       P07
      000000B0H.5 SFRSYM    DATA     BIT       P35
      000000A0H.6 SFRSYM    DATA     BIT       P26
      00000090H.7 SFRSYM    DATA     BIT       P17
      000000F2H   SFRSYM    DATA     BYTE      I2CSSR
      000000B0H.6 SFRSYM    DATA     BIT       P36
      000000A0H.7 SFRSYM    DATA     BIT       P27
      000000ECH   SFRSYM    DATA     BYTE      SPCR
      000000DDH   SFRSYM    DATA     BYTE      ADRESH
      000000B0H.7 SFRSYM    DATA     BIT       P37
      000000EEH   SFRSYM    DATA     BYTE      SPDR
      000000EFH   SFRSYM    DATA     BYTE      SSCR
      000000D3H   SFRSYM    DATA     BYTE      ADDLYL
      000000DCH   SFRSYM    DATA     BYTE      ADRESL
      00000088H.1 SFRSYM    DATA     BIT       IE0
      00000088H.3 SFRSYM    DATA     BIT       IE1
      0000008FH   SFRSYM    DATA     BYTE      CLKDIV
      000000F0H   SFRSYM    DATA     BYTE      B
      00000091H   SFRSYM    DATA     BYTE      FUNCCR
      0000009AH   SFRSYM    DATA     BYTE      P0TRIS
      000000A1H   SFRSYM    DATA     BYTE      P1TRIS
      000000A2H   SFRSYM    DATA     BYTE      P2TRIS
      000000E0H   SFRSYM    DATA     BYTE      ACC
      000000A3H   SFRSYM    DATA     BYTE      P3TRIS
      000000A8H.4 SFRSYM    DATA     BIT       ES0
      000000A8H.6 SFRSYM    DATA     BIT       ES1
      000000A8H.1 SFRSYM    DATA     BIT       ET0
      000000EDH   SFRSYM    DATA     BYTE      SPSR
      000000A8H.3 SFRSYM    DATA     BIT       ET1
      00000088H.5 SFRSYM    DATA     BIT       TF0
      000000A8H.5 SFRSYM    DATA     BIT       ET2
      00000098H.0 SFRSYM    DATA     BIT       RI0
      00000088H.7 SFRSYM    DATA     BIT       TF1
      0000008CH   SFRSYM    DATA     BYTE      TH0
LX51 LINKER/LOCATER V4.66.97.0                                                        05/01/2025  09:54:43  PAGE 53


      000000A8H.0 SFRSYM    DATA     BIT       EX0
      00000098H.1 SFRSYM    DATA     BIT       TI0
      00000088H.0 SFRSYM    DATA     BIT       IT0
      0000008DH   SFRSYM    DATA     BYTE      TH1
      000000A8H.2 SFRSYM    DATA     BIT       EX1
      00000088H.2 SFRSYM    DATA     BIT       IT1
      000000CDH   SFRSYM    DATA     BYTE      TH2
      000000D0H.0 SFRSYM    DATA     BIT       P
      000000DBH   SFRSYM    DATA     BYTE      TH3
      000000E3H   SFRSYM    DATA     BYTE      TH4
      0000008AH   SFRSYM    DATA     BYTE      TL0
      0000008BH   SFRSYM    DATA     BYTE      TL1
      00000098H.2 SFRSYM    DATA     BIT       U0RB8
      000000CCH   SFRSYM    DATA     BYTE      TL2
      000000B8H.4 SFRSYM    DATA     BIT       PS0
      000000DAH   SFRSYM    DATA     BYTE      TL3
      000000BFH   SFRSYM    DATA     BYTE      BUZCON
      000000B8H.6 SFRSYM    DATA     BIT       PS1
      000000B8H.1 SFRSYM    DATA     BIT       PT0
      00000098H.3 SFRSYM    DATA     BIT       U0TB8
      000000E2H   SFRSYM    DATA     BYTE      TL4
      000000D0H.3 SFRSYM    DATA     BIT       RS0
      000000B8H.3 SFRSYM    DATA     BIT       PT1
      000000D0H.4 SFRSYM    DATA     BIT       RS1
      000000B8H.5 SFRSYM    DATA     BIT       PT2
      00000098H.7 SFRSYM    DATA     BIT       U0SM0
      00000088H.4 SFRSYM    DATA     BIT       TR0
      000000BEH   SFRSYM    DATA     BYTE      BUZDIV
      00000098H.6 SFRSYM    DATA     BIT       U0SM1
      00000088H.6 SFRSYM    DATA     BIT       TR1
      000000B8H.0 SFRSYM    DATA     BIT       PX0
      00000098H.5 SFRSYM    DATA     BIT       U0SM2
      000000B8H.2 SFRSYM    DATA     BIT       PX1
      000000BDH   SFRSYM    DATA     BYTE      WUTCRH
      00000099H   SFRSYM    DATA     BYTE      SBUF0
      000000EBH   SFRSYM    DATA     BYTE      SBUF1
      000000BCH   SFRSYM    DATA     BYTE      WUTCRL
      00000098H   SFRSYM    DATA     BYTE      SCON0
      000000EAH   SFRSYM    DATA     BYTE      SCON1
      000000C8H   SFRSYM    DATA     BYTE      T2CON
      00000086H   SFRSYM    DATA     BYTE      DPS
      000000FEH   SFRSYM    DATA     BYTE      MDATA
      000000F6H   SFRSYM    DATA     BYTE      I2CMBUF
      000000F1H   SFRSYM    DATA     BYTE      I2CSADR
      00000098H.4 SFRSYM    DATA     BIT       U0REN
      000000C8H.5 SFRSYM    DATA     BIT       CAPES
      000000FDH   SFRSYM    DATA     BYTE      MADRH
      0000008EH   SFRSYM    DATA     BYTE      CKCON
      000000F3H   SFRSYM    DATA     BYTE      I2CSBUF
      000000FCH   SFRSYM    DATA     BYTE      MADRL
      000000D0H.5 SFRSYM    DATA     BIT       F0
      000000FBH   SFRSYM    DATA     BYTE      MLOCK
      000000D0H   SFRSYM    DATA     BYTE      PSW
      00000097H   SFRSYM    DATA     BYTE      WDCON
      01003AA4H   SYMBOL    CODE     ---       SetLEDONOFF
      01003645H   SYMBOL    CODE     ---       SetLEDBrightNess
      00000059H   SYMBOL    DATA     CHAR      timer

      01003DB3H   BLOCK     CODE     ---       LVL=0
      ---         BLOCKEND  ---      ---       LVL=0

      01003645H   BLOCK     CODE     ---       LVL=0
      01003645H   LINE      CODE     ---       #17
      01003645H   LINE      CODE     ---       #18
      01003645H   LINE      CODE     ---       #20
LX51 LINKER/LOCATER V4.66.97.0                                                        05/01/2025  09:54:43  PAGE 54


      01003651H   LINE      CODE     ---       #21
      0100365DH   LINE      CODE     ---       #22
      01003669H   LINE      CODE     ---       #23
      01003675H   LINE      CODE     ---       #25
      0100367CH   LINE      CODE     ---       #26
      ---         BLOCKEND  ---      ---       LVL=0

      01002938H   BLOCK     CODE     ---       LVL=0
      01002938H   BLOCK     CODE     NEAR LAB  LVL=1
      00000024H   SYMBOL    DATA     ---       LEDInitCfg
      ---         BLOCKEND  ---      ---       LVL=1
      01002938H   LINE      CODE     ---       #29
      01002938H   LINE      CODE     ---       #30
      01002938H   LINE      CODE     ---       #33
      0100293BH   LINE      CODE     ---       #34
      0100293EH   LINE      CODE     ---       #35
      01002941H   LINE      CODE     ---       #37
      01002943H   LINE      CODE     ---       #39
      01002948H   LINE      CODE     ---       #40
      0100294EH   LINE      CODE     ---       #41
      01002950H   LINE      CODE     ---       #43
      01002956H   LINE      CODE     ---       #44
      0100295CH   LINE      CODE     ---       #45
      01002962H   LINE      CODE     ---       #46
      01002968H   LINE      CODE     ---       #48
      0100296FH   LINE      CODE     ---       #50
      01002972H   LINE      CODE     ---       #51
      0100297AH   LINE      CODE     ---       #53
      01002983H   LINE      CODE     ---       #54
      0100298CH   LINE      CODE     ---       #56
      01002991H   LINE      CODE     ---       #57
      01002996H   LINE      CODE     ---       #58
      0100299FH   LINE      CODE     ---       #59
      010029A8H   LINE      CODE     ---       #60
      ---         BLOCKEND  ---      ---       LVL=0

      01003AA4H   BLOCK     CODE     ---       LVL=0
      00000020H.4 SYMBOL    BIT      BIT       RLED
      00000020H.5 SYMBOL    BIT      BIT       GLED
      01003AA4H   BLOCK     CODE     NEAR LAB  LVL=1
      00000007H   SYMBOL    DATA     BYTE      buf
      ---         BLOCKEND  ---      ---       LVL=1
      01003AA4H   LINE      CODE     ---       #63
      01003AA4H   LINE      CODE     ---       #64
      01003AA4H   LINE      CODE     ---       #66
      01003AA9H   LINE      CODE     ---       #67
      01003AB1H   LINE      CODE     ---       #68
      01003AB4H   LINE      CODE     ---       #69
      01003ABCH   LINE      CODE     ---       #70
      01003ABFH   LINE      CODE     ---       #71
      01003AC4H   LINE      CODE     ---       #72
      ---         BLOCKEND  ---      ---       LVL=0

      0100165AH   BLOCK     CODE     ---       LVL=0
      0100165AH   BLOCK     CODE     NEAR LAB  LVL=1
      00000007H   SYMBOL    DATA     CHAR      buf
      00000020H.1 SYMBOL    BIT      BIT       IsLEDON
      00000020H.2 SYMBOL    BIT      BIT       RLED
      00000020H.3 SYMBOL    BIT      BIT       GLED
      ---         BLOCKEND  ---      ---       LVL=1
      0100165AH   LINE      CODE     ---       #75
      0100165AH   LINE      CODE     ---       #76
      0100165AH   LINE      CODE     ---       #78
      0100165EH   LINE      CODE     ---       #80
      0100166AH   LINE      CODE     ---       #81
LX51 LINKER/LOCATER V4.66.97.0                                                        05/01/2025  09:54:43  PAGE 55


      0100166AH   LINE      CODE     ---       #82
      0100166FH   LINE      CODE     ---       #83
      0100166FH   LINE      CODE     ---       #84
      01001671H   LINE      CODE     ---       #85
      01001673H   LINE      CODE     ---       #86
      01001675H   LINE      CODE     ---       #87
      01001677H   LINE      CODE     ---       #88
      0100167EH   LINE      CODE     ---       #89
      0100167EH   LINE      CODE     ---       #91
      010016B3H   LINE      CODE     ---       #92
      010016B3H   LINE      CODE     ---       #93
      010016B9H   LINE      CODE     ---       #94
      010016C0H   LINE      CODE     ---       #95
      010016C5H   LINE      CODE     ---       #96
      010016CAH   LINE      CODE     ---       #97
      010016CAH   LINE      CODE     ---       #98
      010016CAH   LINE      CODE     ---       #99
      010016CFH   LINE      CODE     ---       #100
      010016E5H   LINE      CODE     ---       #101
      010016E5H   LINE      CODE     ---       #102
      010016E6H   LINE      CODE     ---       #103
      010016E9H   LINE      CODE     ---       #104
      010016ECH   LINE      CODE     ---       #105
      010016EEH   LINE      CODE     ---       #106
      010016F9H   LINE      CODE     ---       #107
      01001702H   LINE      CODE     ---       #108
      01001704H   LINE      CODE     ---       #109
      01001704H   LINE      CODE     ---       #110
      01001704H   LINE      CODE     ---       #111
      01001704H   LINE      CODE     ---       #112
      01001707H   LINE      CODE     ---       #113
      0100172CH   LINE      CODE     ---       #115
      0100172CH   LINE      CODE     ---       #116
      0100173DH   LINE      CODE     ---       #117
      0100174AH   LINE      CODE     ---       #118
      0100174EH   LINE      CODE     ---       #119
      01001750H   LINE      CODE     ---       #120
      01001750H   LINE      CODE     ---       #121
      01001752H   LINE      CODE     ---       #122
      01001752H   LINE      CODE     ---       #124
      01001754H   LINE      CODE     ---       #126
      01001757H   LINE      CODE     ---       #127
      ---         BLOCKEND  ---      ---       LVL=0

      010038BAH   BLOCK     CODE     ---       LVL=0
      00000007H   SYMBOL    DATA     BYTE      LEDMode
      010038BAH   LINE      CODE     ---       #131
      010038BAH   LINE      CODE     ---       #132
      010038BAH   LINE      CODE     ---       #134
      010038C4H   LINE      CODE     ---       #135
      010038C4H   LINE      CODE     ---       #136
      010038C8H   LINE      CODE     ---       #137
      010038CEH   LINE      CODE     ---       #138
      010038D5H   LINE      CODE     ---       #139
      010038D5H   LINE      CODE     ---       #140
      010038D5H   LINE      CODE     ---       #141
      010038DCH   LINE      CODE     ---       #143
      010038E3H   LINE      CODE     ---       #144
      ---         BLOCKEND  ---      ---       LVL=0

      ---         MODULE    ---      ---       PWM
      0200002DH   PUBLIC    XDATA    INT       PreChargeDACDuty
      00000022H.0 PUBLIC    BIT      BIT       IsNeedToUploadPWM
      02000029H   PUBLIC    XDATA    FLOAT     PWMDuty
      0100154FH   PUBLIC    CODE     ---       PWM_OutputCtrlHandler
LX51 LINKER/LOCATER V4.66.97.0                                                        05/01/2025  09:54:43  PAGE 56


      00000020H.2 PUBLIC    BIT      BIT       ?PWM_ForceEnableOut?BIT
      0100367DH   PUBLIC    CODE     ---       PWM_ForceEnableOut
      01001CDBH   PUBLIC    CODE     ---       PWM_Init
      01003B63H   PUBLIC    CODE     ---       PWM_DeInit
      000000C8H.0 SFRSYM    DATA     BIT       T2I0
      000000C3H   SFRSYM    DATA     BYTE      CCH1
      00000080H   SFRSYM    DATA     BYTE      P0
      000000C8H.1 SFRSYM    DATA     BIT       T2I1
      000000C5H   SFRSYM    DATA     BYTE      CCH2
      00000090H   SFRSYM    DATA     BYTE      P1
      000000C7H   SFRSYM    DATA     BYTE      CCH3
      000000ACH   SFRSYM    DATA     BYTE      P0EXTIE
      000000A0H   SFRSYM    DATA     BYTE      P2
      000000B4H   SFRSYM    DATA     BYTE      P0EXTIF
      000000B0H   SFRSYM    DATA     BYTE      P3
      000000ADH   SFRSYM    DATA     BYTE      P1EXTIE
      000000D0H.6 SFRSYM    DATA     BIT       AC
      000000FFH   SFRSYM    DATA     BYTE      MCTRL
      000000C2H   SFRSYM    DATA     BYTE      CCL1
      000000B5H   SFRSYM    DATA     BYTE      P1EXTIF
      000000AEH   SFRSYM    DATA     BYTE      P2EXTIE
      000000C4H   SFRSYM    DATA     BYTE      CCL2
      000000B6H   SFRSYM    DATA     BYTE      P2EXTIF
      000000AFH   SFRSYM    DATA     BYTE      P3EXTIE
      000000A8H.7 SFRSYM    DATA     BIT       EA
      000000C6H   SFRSYM    DATA     BYTE      CCL3
      000000B7H   SFRSYM    DATA     BYTE      P3EXTIF
      000000AAH   SFRSYM    DATA     BYTE      EIE2
      000000B2H   SFRSYM    DATA     BYTE      EIF2
      000000C8H.3 SFRSYM    DATA     BIT       T2R0
      000000C8H.4 SFRSYM    DATA     BIT       T2R1
      00000083H   SFRSYM    DATA     BYTE      DPH0
      000000A8H   SFRSYM    DATA     BYTE      IE
      00000085H   SFRSYM    DATA     BYTE      DPH1
      000000B9H   SFRSYM    DATA     BYTE      EIP1
      000000BAH   SFRSYM    DATA     BYTE      EIP2
      00000082H   SFRSYM    DATA     BYTE      DPL0
      00000084H   SFRSYM    DATA     BYTE      DPL1
      000000C8H.6 SFRSYM    DATA     BIT       I3FR
      000000CFH   SFRSYM    DATA     BYTE      T2IE
      00000096H   SFRSYM    DATA     BYTE      TA
      000000C9H   SFRSYM    DATA     BYTE      T2IF
      000000C8H.2 SFRSYM    DATA     BIT       T2CM
      000000DFH   SFRSYM    DATA     BYTE      ADCON0
      000000DEH   SFRSYM    DATA     BYTE      ADCON1
      000000E9H   SFRSYM    DATA     BYTE      ADCON2
      000000B8H   SFRSYM    DATA     BYTE      IP
      000000CEH   SFRSYM    DATA     BYTE      CCEN
      000000D0H.7 SFRSYM    DATA     BIT       CY
      000000D2H   SFRSYM    DATA     BYTE      T34MOD
      00000093H   SFRSYM    DATA     BYTE      DPX0
      00000095H   SFRSYM    DATA     BYTE      DPX1
      000000F4H   SFRSYM    DATA     BYTE      I2CMSA
      000000F5H   SFRSYM    DATA     BYTE      I2CMCR
      00000081H   SFRSYM    DATA     BYTE      SP
      000000D0H.2 SFRSYM    DATA     BIT       OV
      000000F2H   SFRSYM    DATA     BYTE      I2CSCR
      000000C8H.7 SFRSYM    DATA     BIT       T2PS
      000000D1H   SFRSYM    DATA     BYTE      ADCMPC
      000000CBH   SFRSYM    DATA     BYTE      RLDH
      000000D5H   SFRSYM    DATA     BYTE      ADCMPH
      000000CAH   SFRSYM    DATA     BYTE      RLDL
      00000080H.0 SFRSYM    DATA     BIT       P00
      00000090H.0 SFRSYM    DATA     BIT       P10
      00000080H.1 SFRSYM    DATA     BIT       P01
LX51 LINKER/LOCATER V4.66.97.0                                                        05/01/2025  09:54:43  PAGE 57


      000000F7H   SFRSYM    DATA     BYTE      I2CMTP
      00000099H   SFRSYM    DATA     BYTE      SBUF
      00000087H   SFRSYM    DATA     BYTE      PCON
      000000A0H.0 SFRSYM    DATA     BIT       P20
      00000090H.1 SFRSYM    DATA     BIT       P11
      00000080H.2 SFRSYM    DATA     BIT       P02
      000000F5H   SFRSYM    DATA     BYTE      I2CMSR
      000000B0H.0 SFRSYM    DATA     BIT       P30
      000000A0H.1 SFRSYM    DATA     BIT       P21
      00000090H.2 SFRSYM    DATA     BIT       P12
      00000080H.3 SFRSYM    DATA     BIT       P03
      000000D4H   SFRSYM    DATA     BYTE      ADCMPL
      000000B0H.1 SFRSYM    DATA     BIT       P31
      000000A0H.2 SFRSYM    DATA     BIT       P22
      00000090H.3 SFRSYM    DATA     BIT       P13
      00000080H.4 SFRSYM    DATA     BIT       P04
      000000B0H.2 SFRSYM    DATA     BIT       P32
      000000A0H.3 SFRSYM    DATA     BIT       P23
      00000090H.4 SFRSYM    DATA     BIT       P14
      00000080H.5 SFRSYM    DATA     BIT       P05
      00000089H   SFRSYM    DATA     BYTE      TMOD
      00000088H   SFRSYM    DATA     BYTE      TCON
      000000B0H.3 SFRSYM    DATA     BIT       P33
      000000A0H.4 SFRSYM    DATA     BIT       P24
      00000090H.5 SFRSYM    DATA     BIT       P15
      00000080H.6 SFRSYM    DATA     BIT       P06
      000000B0H.4 SFRSYM    DATA     BIT       P34
      000000A0H.5 SFRSYM    DATA     BIT       P25
      00000090H.6 SFRSYM    DATA     BIT       P16
      00000080H.7 SFRSYM    DATA     BIT       P07
      000000B0H.5 SFRSYM    DATA     BIT       P35
      000000A0H.6 SFRSYM    DATA     BIT       P26
      00000090H.7 SFRSYM    DATA     BIT       P17
      000000F2H   SFRSYM    DATA     BYTE      I2CSSR
      000000B0H.6 SFRSYM    DATA     BIT       P36
      000000A0H.7 SFRSYM    DATA     BIT       P27
      000000ECH   SFRSYM    DATA     BYTE      SPCR
      000000DDH   SFRSYM    DATA     BYTE      ADRESH
      000000B0H.7 SFRSYM    DATA     BIT       P37
      000000EEH   SFRSYM    DATA     BYTE      SPDR
      000000EFH   SFRSYM    DATA     BYTE      SSCR
      000000D3H   SFRSYM    DATA     BYTE      ADDLYL
      000000DCH   SFRSYM    DATA     BYTE      ADRESL
      00000088H.1 SFRSYM    DATA     BIT       IE0
      00000088H.3 SFRSYM    DATA     BIT       IE1
      0000008FH   SFRSYM    DATA     BYTE      CLKDIV
      000000F0H   SFRSYM    DATA     BYTE      B
      00000091H   SFRSYM    DATA     BYTE      FUNCCR
      0000009AH   SFRSYM    DATA     BYTE      P0TRIS
      000000A1H   SFRSYM    DATA     BYTE      P1TRIS
      000000A2H   SFRSYM    DATA     BYTE      P2TRIS
      000000E0H   SFRSYM    DATA     BYTE      ACC
      000000A3H   SFRSYM    DATA     BYTE      P3TRIS
      000000A8H.4 SFRSYM    DATA     BIT       ES0
      000000A8H.6 SFRSYM    DATA     BIT       ES1
      000000A8H.1 SFRSYM    DATA     BIT       ET0
      000000EDH   SFRSYM    DATA     BYTE      SPSR
      000000A8H.3 SFRSYM    DATA     BIT       ET1
      00000088H.5 SFRSYM    DATA     BIT       TF0
      000000A8H.5 SFRSYM    DATA     BIT       ET2
      00000098H.0 SFRSYM    DATA     BIT       RI0
      00000088H.7 SFRSYM    DATA     BIT       TF1
      0000008CH   SFRSYM    DATA     BYTE      TH0
      000000A8H.0 SFRSYM    DATA     BIT       EX0
      00000098H.1 SFRSYM    DATA     BIT       TI0
LX51 LINKER/LOCATER V4.66.97.0                                                        05/01/2025  09:54:43  PAGE 58


      00000088H.0 SFRSYM    DATA     BIT       IT0
      0000008DH   SFRSYM    DATA     BYTE      TH1
      000000A8H.2 SFRSYM    DATA     BIT       EX1
      00000088H.2 SFRSYM    DATA     BIT       IT1
      000000CDH   SFRSYM    DATA     BYTE      TH2
      000000D0H.0 SFRSYM    DATA     BIT       P
      000000DBH   SFRSYM    DATA     BYTE      TH3
      000000E3H   SFRSYM    DATA     BYTE      TH4
      0000008AH   SFRSYM    DATA     BYTE      TL0
      0000008BH   SFRSYM    DATA     BYTE      TL1
      00000098H.2 SFRSYM    DATA     BIT       U0RB8
      000000CCH   SFRSYM    DATA     BYTE      TL2
      000000B8H.4 SFRSYM    DATA     BIT       PS0
      000000DAH   SFRSYM    DATA     BYTE      TL3
      000000BFH   SFRSYM    DATA     BYTE      BUZCON
      000000B8H.6 SFRSYM    DATA     BIT       PS1
      000000B8H.1 SFRSYM    DATA     BIT       PT0
      00000098H.3 SFRSYM    DATA     BIT       U0TB8
      000000E2H   SFRSYM    DATA     BYTE      TL4
      000000D0H.3 SFRSYM    DATA     BIT       RS0
      000000B8H.3 SFRSYM    DATA     BIT       PT1
      000000D0H.4 SFRSYM    DATA     BIT       RS1
      000000B8H.5 SFRSYM    DATA     BIT       PT2
      00000098H.7 SFRSYM    DATA     BIT       U0SM0
      00000088H.4 SFRSYM    DATA     BIT       TR0
      000000BEH   SFRSYM    DATA     BYTE      BUZDIV
      00000098H.6 SFRSYM    DATA     BIT       U0SM1
      00000088H.6 SFRSYM    DATA     BIT       TR1
      000000B8H.0 SFRSYM    DATA     BIT       PX0
      00000098H.5 SFRSYM    DATA     BIT       U0SM2
      000000B8H.2 SFRSYM    DATA     BIT       PX1
      000000BDH   SFRSYM    DATA     BYTE      WUTCRH
      00000099H   SFRSYM    DATA     BYTE      SBUF0
      000000EBH   SFRSYM    DATA     BYTE      SBUF1
      000000BCH   SFRSYM    DATA     BYTE      WUTCRL
      00000098H   SFRSYM    DATA     BYTE      SCON0
      000000EAH   SFRSYM    DATA     BYTE      SCON1
      000000C8H   SFRSYM    DATA     BYTE      T2CON
      00000086H   SFRSYM    DATA     BYTE      DPS
      000000FEH   SFRSYM    DATA     BYTE      MDATA
      000000F6H   SFRSYM    DATA     BYTE      I2CMBUF
      000000F1H   SFRSYM    DATA     BYTE      I2CSADR
      00000098H.4 SFRSYM    DATA     BIT       U0REN
      000000C8H.5 SFRSYM    DATA     BIT       CAPES
      000000FDH   SFRSYM    DATA     BYTE      MADRH
      0000008EH   SFRSYM    DATA     BYTE      CKCON
      000000F3H   SFRSYM    DATA     BYTE      I2CSBUF
      000000FCH   SFRSYM    DATA     BYTE      MADRL
      000000D0H.5 SFRSYM    DATA     BIT       F0
      000000FBH   SFRSYM    DATA     BYTE      MLOCK
      000000D0H   SFRSYM    DATA     BYTE      PSW
      00000097H   SFRSYM    DATA     BYTE      WDCON
      00000021H.7 SYMBOL    BIT      BIT       IsNeedToEnableMOS
      01003D3CH   SYMBOL    CODE     ---       UploadPWMValue
      00000022H.1 SYMBOL    BIT      BIT       IsNeedToEnableOutput
      00000022H.2 SYMBOL    BIT      BIT       IsPWMLoading

      01003B7EH   BLOCK     CODE     ---       LVL=0
      ---         BLOCKEND  ---      ---       LVL=0

      01003B63H   BLOCK     CODE     ---       LVL=0
      01003B63H   LINE      CODE     ---       #15
      01003B63H   LINE      CODE     ---       #16
      01003B63H   LINE      CODE     ---       #18
      01003B6CH   LINE      CODE     ---       #20
LX51 LINKER/LOCATER V4.66.97.0                                                        05/01/2025  09:54:43  PAGE 59


      01003B71H   LINE      CODE     ---       #21
      01003B75H   LINE      CODE     ---       #22
      01003B79H   LINE      CODE     ---       #23
      01003B7DH   LINE      CODE     ---       #24
      ---         BLOCKEND  ---      ---       LVL=0

      01003D3CH   BLOCK     CODE     ---       LVL=0
      01003D3CH   LINE      CODE     ---       #27
      01003D3CH   LINE      CODE     ---       #28
      01003D3CH   LINE      CODE     ---       #29
      01003D42H   LINE      CODE     ---       #30
      01003D4AH   LINE      CODE     ---       #31
      ---         BLOCKEND  ---      ---       LVL=0

      01001CDBH   BLOCK     CODE     ---       LVL=0
      01001CDBH   BLOCK     CODE     NEAR LAB  LVL=1
      00000024H   SYMBOL    DATA     ---       PWMInitCfg
      ---         BLOCKEND  ---      ---       LVL=1
      01001CDBH   LINE      CODE     ---       #34
      01001CDBH   LINE      CODE     ---       #35
      01001CDBH   LINE      CODE     ---       #38
      01001CDEH   LINE      CODE     ---       #39
      01001CE1H   LINE      CODE     ---       #40
      01001CE4H   LINE      CODE     ---       #42
      01001CEDH   LINE      CODE     ---       #43
      01001CF6H   LINE      CODE     ---       #44
      01001D03H   LINE      CODE     ---       #45
      01001D10H   LINE      CODE     ---       #47
      01001D19H   LINE      CODE     ---       #48
      01001D22H   LINE      CODE     ---       #50
      01001D27H   LINE      CODE     ---       #51
      01001D2BH   LINE      CODE     ---       #52
      01001D31H   LINE      CODE     ---       #53
      01001D35H   LINE      CODE     ---       #54
      01001D3BH   LINE      CODE     ---       #55
      01001D3FH   LINE      CODE     ---       #56
      01001D44H   LINE      CODE     ---       #57
      01001D4AH   LINE      CODE     ---       #58
      01001D4CH   LINE      CODE     ---       #59
      01001D51H   LINE      CODE     ---       #60
      01001D55H   LINE      CODE     ---       #61
      01001D5BH   LINE      CODE     ---       #63
      01001D61H   LINE      CODE     ---       #64
      01001D67H   LINE      CODE     ---       #65
      01001D6DH   LINE      CODE     ---       #66
      01001D73H   LINE      CODE     ---       #68
      01001D78H   LINE      CODE     ---       #69
      01001D7CH   LINE      CODE     ---       #70
      01001D80H   LINE      CODE     ---       #71
      01001D84H   LINE      CODE     ---       #73
      01001D8EH   LINE      CODE     ---       #74
      01001D95H   LINE      CODE     ---       #75
      01001D97H   LINE      CODE     ---       #76
      01001D99H   LINE      CODE     ---       #78
      01001DA3H   LINE      CODE     ---       #79
      ---         BLOCKEND  ---      ---       LVL=0

      0100367DH   BLOCK     CODE     ---       LVL=0
      00000020H.2 SYMBOL    BIT      BIT       IsEnable
      0100367DH   LINE      CODE     ---       #83
      0100367DH   LINE      CODE     ---       #84
      0100367DH   LINE      CODE     ---       #85
      01003689H   LINE      CODE     ---       #86
      01003695H   LINE      CODE     ---       #87
      010036A1H   LINE      CODE     ---       #88
LX51 LINKER/LOCATER V4.66.97.0                                                        05/01/2025  09:54:43  PAGE 60


      010036A4H   LINE      CODE     ---       #89
      010036AFH   LINE      CODE     ---       #90
      010036B2H   LINE      CODE     ---       #91
      ---         BLOCKEND  ---      ---       LVL=0

      0100154FH   BLOCK     CODE     ---       LVL=0
      0100154FH   BLOCK     CODE     NEAR LAB  LVL=1
      00000004H   SYMBOL    DATA     INT       value
      00000024H   SYMBOL    DATA     FLOAT     buf
      ---         BLOCKEND  ---      ---       LVL=1
      0100154FH   LINE      CODE     ---       #94
      0100154FH   LINE      CODE     ---       #95
      0100154FH   LINE      CODE     ---       #99
      01001555H   LINE      CODE     ---       #100
      01001558H   LINE      CODE     ---       #101
      01001558H   LINE      CODE     ---       #102
      01001563H   LINE      CODE     ---       #104
      0100156FH   LINE      CODE     ---       #105
      01001572H   LINE      CODE     ---       #106
      0100157EH   LINE      CODE     ---       #107
      01001581H   LINE      CODE     ---       #108
      01001583H   LINE      CODE     ---       #109
      01001586H   LINE      CODE     ---       #111
      01001586H   LINE      CODE     ---       #113
      010015A1H   LINE      CODE     ---       #114
      010015B3H   LINE      CODE     ---       #115
      010015C8H   LINE      CODE     ---       #116
      010015D4H   LINE      CODE     ---       #118
      010015E4H   LINE      CODE     ---       #119
      010015F8H   LINE      CODE     ---       #121
      01001617H   LINE      CODE     ---       #122
      01001629H   LINE      CODE     ---       #123
      01001630H   LINE      CODE     ---       #124
      0100163FH   LINE      CODE     ---       #125
      01001644H   LINE      CODE     ---       #126
      0100164BH   LINE      CODE     ---       #127
      01001650H   LINE      CODE     ---       #129
      01001652H   LINE      CODE     ---       #130
      01001659H   LINE      CODE     ---       #131
      ---         BLOCKEND  ---      ---       LVL=0

      ---         MODULE    ---      ---       OUTPUTCHANNEL
      02000027H   PUBLIC    XDATA    INT       Current
      02000023H   PUBLIC    XDATA    INT       CurrentBuf
      01000A9AH   PUBLIC    CODE     ---       OutputChannel_Calc
      010027BEH   PUBLIC    CODE     ---       OutputChannel_TestRun
      01003C41H   PUBLIC    CODE     ---       GetIfSystemInPOFFSeq
      01003C2BH   PUBLIC    CODE     ---       GetIfOutputEnabled
      01003B06H   PUBLIC    CODE     ---       OutputChannel_DeInit
      01003087H   PUBLIC    CODE     ---       OCFSM_TIMHandler
      01003273H   PUBLIC    CODE     ---       OutputChannel_Init
      000000B0H.2 SFRSYM    DATA     BIT       BOOSTRUN
      000000C8H.0 SFRSYM    DATA     BIT       T2I0
      000000C3H   SFRSYM    DATA     BYTE      CCH1
      00000080H   SFRSYM    DATA     BYTE      P0
      000000C8H.1 SFRSYM    DATA     BIT       T2I1
      000000C5H   SFRSYM    DATA     BYTE      CCH2
      00000090H   SFRSYM    DATA     BYTE      P1
      000000C7H   SFRSYM    DATA     BYTE      CCH3
      000000ACH   SFRSYM    DATA     BYTE      P0EXTIE
      000000A0H   SFRSYM    DATA     BYTE      P2
      000000A0H.6 SFRSYM    DATA     BIT       AUXEN
      000000B4H   SFRSYM    DATA     BYTE      P0EXTIF
      000000B0H   SFRSYM    DATA     BYTE      P3
      000000ADH   SFRSYM    DATA     BYTE      P1EXTIE
LX51 LINKER/LOCATER V4.66.97.0                                                        05/01/2025  09:54:43  PAGE 61


      000000D0H.6 SFRSYM    DATA     BIT       AC
      000000FFH   SFRSYM    DATA     BYTE      MCTRL
      000000C2H   SFRSYM    DATA     BYTE      CCL1
      000000B5H   SFRSYM    DATA     BYTE      P1EXTIF
      000000AEH   SFRSYM    DATA     BYTE      P2EXTIE
      000000C4H   SFRSYM    DATA     BYTE      CCL2
      000000B6H   SFRSYM    DATA     BYTE      P2EXTIF
      000000AFH   SFRSYM    DATA     BYTE      P3EXTIE
      000000A8H.7 SFRSYM    DATA     BIT       EA
      000000C6H   SFRSYM    DATA     BYTE      CCL3
      000000B7H   SFRSYM    DATA     BYTE      P3EXTIF
      000000AAH   SFRSYM    DATA     BYTE      EIE2
      000000B2H   SFRSYM    DATA     BYTE      EIF2
      000000C8H.3 SFRSYM    DATA     BIT       T2R0
      000000C8H.4 SFRSYM    DATA     BIT       T2R1
      00000083H   SFRSYM    DATA     BYTE      DPH0
      000000A8H   SFRSYM    DATA     BYTE      IE
      00000085H   SFRSYM    DATA     BYTE      DPH1
      000000B9H   SFRSYM    DATA     BYTE      EIP1
      000000BAH   SFRSYM    DATA     BYTE      EIP2
      00000082H   SFRSYM    DATA     BYTE      DPL0
      00000084H   SFRSYM    DATA     BYTE      DPL1
      000000C8H.6 SFRSYM    DATA     BIT       I3FR
      000000CFH   SFRSYM    DATA     BYTE      T2IE
      00000096H   SFRSYM    DATA     BYTE      TA
      000000C9H   SFRSYM    DATA     BYTE      T2IF
      000000C8H.2 SFRSYM    DATA     BIT       T2CM
      000000DFH   SFRSYM    DATA     BYTE      ADCON0
      000000DEH   SFRSYM    DATA     BYTE      ADCON1
      000000E9H   SFRSYM    DATA     BYTE      ADCON2
      000000B8H   SFRSYM    DATA     BYTE      IP
      000000CEH   SFRSYM    DATA     BYTE      CCEN
      000000D0H.7 SFRSYM    DATA     BIT       CY
      000000D2H   SFRSYM    DATA     BYTE      T34MOD
      00000093H   SFRSYM    DATA     BYTE      DPX0
      00000095H   SFRSYM    DATA     BYTE      DPX1
      000000F4H   SFRSYM    DATA     BYTE      I2CMSA
      000000F5H   SFRSYM    DATA     BYTE      I2CMCR
      00000081H   SFRSYM    DATA     BYTE      SP
      000000D0H.2 SFRSYM    DATA     BIT       OV
      000000F2H   SFRSYM    DATA     BYTE      I2CSCR
      000000C8H.7 SFRSYM    DATA     BIT       T2PS
      000000D1H   SFRSYM    DATA     BYTE      ADCMPC
      000000CBH   SFRSYM    DATA     BYTE      RLDH
      000000D5H   SFRSYM    DATA     BYTE      ADCMPH
      000000CAH   SFRSYM    DATA     BYTE      RLDL
      00000080H.0 SFRSYM    DATA     BIT       P00
      00000090H.0 SFRSYM    DATA     BIT       P10
      00000080H.1 SFRSYM    DATA     BIT       P01
      000000F7H   SFRSYM    DATA     BYTE      I2CMTP
      00000099H   SFRSYM    DATA     BYTE      SBUF
      00000087H   SFRSYM    DATA     BYTE      PCON
      000000A0H.0 SFRSYM    DATA     BIT       P20
      00000090H.1 SFRSYM    DATA     BIT       P11
      00000080H.2 SFRSYM    DATA     BIT       P02
      000000F5H   SFRSYM    DATA     BYTE      I2CMSR
      000000B0H.0 SFRSYM    DATA     BIT       P30
      000000A0H.1 SFRSYM    DATA     BIT       P21
      00000090H.2 SFRSYM    DATA     BIT       P12
      00000080H.3 SFRSYM    DATA     BIT       P03
      000000D4H   SFRSYM    DATA     BYTE      ADCMPL
      000000B0H.1 SFRSYM    DATA     BIT       P31
      000000A0H.2 SFRSYM    DATA     BIT       P22
      00000090H.3 SFRSYM    DATA     BIT       P13
      00000080H.4 SFRSYM    DATA     BIT       P04
LX51 LINKER/LOCATER V4.66.97.0                                                        05/01/2025  09:54:43  PAGE 62


      000000B0H.2 SFRSYM    DATA     BIT       P32
      000000A0H.3 SFRSYM    DATA     BIT       P23
      00000090H.4 SFRSYM    DATA     BIT       P14
      00000080H.5 SFRSYM    DATA     BIT       P05
      00000089H   SFRSYM    DATA     BYTE      TMOD
      00000088H   SFRSYM    DATA     BYTE      TCON
      000000B0H.3 SFRSYM    DATA     BIT       P33
      000000A0H.4 SFRSYM    DATA     BIT       P24
      00000090H.5 SFRSYM    DATA     BIT       P15
      00000080H.6 SFRSYM    DATA     BIT       P06
      000000B0H.4 SFRSYM    DATA     BIT       P34
      000000A0H.5 SFRSYM    DATA     BIT       P25
      00000090H.6 SFRSYM    DATA     BIT       P16
      00000080H.7 SFRSYM    DATA     BIT       P07
      000000B0H.5 SFRSYM    DATA     BIT       P35
      000000A0H.6 SFRSYM    DATA     BIT       P26
      00000090H.7 SFRSYM    DATA     BIT       P17
      000000F2H   SFRSYM    DATA     BYTE      I2CSSR
      000000B0H.6 SFRSYM    DATA     BIT       P36
      000000A0H.7 SFRSYM    DATA     BIT       P27
      000000ECH   SFRSYM    DATA     BYTE      SPCR
      000000DDH   SFRSYM    DATA     BYTE      ADRESH
      000000B0H.7 SFRSYM    DATA     BIT       P37
      000000EEH   SFRSYM    DATA     BYTE      SPDR
      000000EFH   SFRSYM    DATA     BYTE      SSCR
      000000D3H   SFRSYM    DATA     BYTE      ADDLYL
      000000DCH   SFRSYM    DATA     BYTE      ADRESL
      00000088H.1 SFRSYM    DATA     BIT       IE0
      00000088H.3 SFRSYM    DATA     BIT       IE1
      0000008FH   SFRSYM    DATA     BYTE      CLKDIV
      000000F0H   SFRSYM    DATA     BYTE      B
      00000091H   SFRSYM    DATA     BYTE      FUNCCR
      0000009AH   SFRSYM    DATA     BYTE      P0TRIS
      000000A1H   SFRSYM    DATA     BYTE      P1TRIS
      000000A0H.5 SFRSYM    DATA     BIT       LEDMOS
      000000A2H   SFRSYM    DATA     BYTE      P2TRIS
      000000E0H   SFRSYM    DATA     BYTE      ACC
      000000A3H   SFRSYM    DATA     BYTE      P3TRIS
      000000A8H.4 SFRSYM    DATA     BIT       ES0
      000000A8H.6 SFRSYM    DATA     BIT       ES1
      000000A8H.1 SFRSYM    DATA     BIT       ET0
      000000EDH   SFRSYM    DATA     BYTE      SPSR
      000000A8H.3 SFRSYM    DATA     BIT       ET1
      00000088H.5 SFRSYM    DATA     BIT       TF0
      000000A8H.5 SFRSYM    DATA     BIT       ET2
      00000098H.0 SFRSYM    DATA     BIT       RI0
      00000088H.7 SFRSYM    DATA     BIT       TF1
      0000008CH   SFRSYM    DATA     BYTE      TH0
      000000A8H.0 SFRSYM    DATA     BIT       EX0
      00000098H.1 SFRSYM    DATA     BIT       TI0
      00000088H.0 SFRSYM    DATA     BIT       IT0
      0000008DH   SFRSYM    DATA     BYTE      TH1
      000000A8H.2 SFRSYM    DATA     BIT       EX1
      00000088H.2 SFRSYM    DATA     BIT       IT1
      000000CDH   SFRSYM    DATA     BYTE      TH2
      000000D0H.0 SFRSYM    DATA     BIT       P
      000000DBH   SFRSYM    DATA     BYTE      TH3
      000000E3H   SFRSYM    DATA     BYTE      TH4
      0000008AH   SFRSYM    DATA     BYTE      TL0
      0000008BH   SFRSYM    DATA     BYTE      TL1
      000000A0H.3 SFRSYM    DATA     BIT       PWMDACEN
      00000098H.2 SFRSYM    DATA     BIT       U0RB8
      000000CCH   SFRSYM    DATA     BYTE      TL2
      000000B8H.4 SFRSYM    DATA     BIT       PS0
      000000DAH   SFRSYM    DATA     BYTE      TL3
LX51 LINKER/LOCATER V4.66.97.0                                                        05/01/2025  09:54:43  PAGE 63


      000000BFH   SFRSYM    DATA     BYTE      BUZCON
      000000B8H.6 SFRSYM    DATA     BIT       PS1
      000000B8H.1 SFRSYM    DATA     BIT       PT0
      00000098H.3 SFRSYM    DATA     BIT       U0TB8
      000000E2H   SFRSYM    DATA     BYTE      TL4
      000000D0H.3 SFRSYM    DATA     BIT       RS0
      000000B8H.3 SFRSYM    DATA     BIT       PT1
      000000D0H.4 SFRSYM    DATA     BIT       RS1
      000000B8H.5 SFRSYM    DATA     BIT       PT2
      00000098H.7 SFRSYM    DATA     BIT       U0SM0
      00000088H.4 SFRSYM    DATA     BIT       TR0
      000000BEH   SFRSYM    DATA     BYTE      BUZDIV
      00000098H.6 SFRSYM    DATA     BIT       U0SM1
      00000088H.6 SFRSYM    DATA     BIT       TR1
      000000B8H.0 SFRSYM    DATA     BIT       PX0
      00000098H.5 SFRSYM    DATA     BIT       U0SM2
      000000B8H.2 SFRSYM    DATA     BIT       PX1
      000000BDH   SFRSYM    DATA     BYTE      WUTCRH
      00000080H.4 SFRSYM    DATA     BIT       SYSHBLED
      00000099H   SFRSYM    DATA     BYTE      SBUF0
      000000EBH   SFRSYM    DATA     BYTE      SBUF1
      000000BCH   SFRSYM    DATA     BYTE      WUTCRL
      00000098H   SFRSYM    DATA     BYTE      SCON0
      000000EAH   SFRSYM    DATA     BYTE      SCON1
      000000C8H   SFRSYM    DATA     BYTE      T2CON
      00000086H   SFRSYM    DATA     BYTE      DPS
      000000FEH   SFRSYM    DATA     BYTE      MDATA
      000000F6H   SFRSYM    DATA     BYTE      I2CMBUF
      000000F1H   SFRSYM    DATA     BYTE      I2CSADR
      00000098H.4 SFRSYM    DATA     BIT       U0REN
      000000C8H.5 SFRSYM    DATA     BIT       CAPES
      000000FDH   SFRSYM    DATA     BYTE      MADRH
      0000008EH   SFRSYM    DATA     BYTE      CKCON
      000000F3H   SFRSYM    DATA     BYTE      I2CSBUF
      000000FCH   SFRSYM    DATA     BYTE      MADRL
      000000D0H.5 SFRSYM    DATA     BIT       F0
      000000FBH   SFRSYM    DATA     BYTE      MLOCK
      000000D0H   SFRSYM    DATA     BYTE      PSW
      00000097H   SFRSYM    DATA     BYTE      WDCON
      02000022H   SYMBOL    XDATA    BYTE      OutputFSMState
      02000025H   SYMBOL    XDATA    CHAR      HBTimer
      02000026H   SYMBOL    XDATA    CHAR      PreChargeFSMTimer
      00000023H.2 SYMBOL    BIT      BIT       IsEnableSlowILEDRamp
      01002AA7H   SYMBOL    CODE     ---       _Duty_Calc

      010029B4H   BLOCK     CODE     ---       LVL=0
      ---         BLOCKEND  ---      ---       LVL=0

      01002AA7H   BLOCK     CODE     ---       LVL=0
      00000006H   SYMBOL    DATA     INT       CurrentInput
      01002AA7H   BLOCK     CODE     NEAR LAB  LVL=1
      00000028H   SYMBOL    DATA     FLOAT     buf
      ---         BLOCKEND  ---      ---       LVL=1
      01002AA7H   LINE      CODE     ---       #34
      01002AA7H   LINE      CODE     ---       #35
      01002AA7H   LINE      CODE     ---       #38
      01002AB2H   LINE      CODE     ---       #39
      01002ABDH   LINE      CODE     ---       #40
      01002AC2H   LINE      CODE     ---       #41
      01002AF2H   LINE      CODE     ---       #42
      01002AF7H   LINE      CODE     ---       #44
      01002B1DH   LINE      CODE     ---       #45
      ---         BLOCKEND  ---      ---       LVL=0

      01003273H   BLOCK     CODE     ---       LVL=0
LX51 LINKER/LOCATER V4.66.97.0                                                        05/01/2025  09:54:43  PAGE 64


      01003273H   BLOCK     CODE     NEAR LAB  LVL=1
      00000024H   SYMBOL    DATA     ---       OCInitCfg
      ---         BLOCKEND  ---      ---       LVL=1
      01003273H   LINE      CODE     ---       #52
      01003273H   LINE      CODE     ---       #53
      01003273H   LINE      CODE     ---       #56
      01003276H   LINE      CODE     ---       #57
      01003279H   LINE      CODE     ---       #58
      0100327CH   LINE      CODE     ---       #60
      0100327EH   LINE      CODE     ---       #61
      01003280H   LINE      CODE     ---       #62
      01003282H   LINE      CODE     ---       #63
      01003284H   LINE      CODE     ---       #65
      01003286H   LINE      CODE     ---       #66
      01003290H   LINE      CODE     ---       #67
      0100329DH   LINE      CODE     ---       #68
      0100329FH   LINE      CODE     ---       #69
      010032A9H   LINE      CODE     ---       #71
      010032ACH   LINE      CODE     ---       #72
      ---         BLOCKEND  ---      ---       LVL=0

      01003087H   BLOCK     CODE     ---       LVL=0
      01003087H   LINE      CODE     ---       #81
      01003087H   LINE      CODE     ---       #82
      01003087H   LINE      CODE     ---       #84
      0100308EH   LINE      CODE     ---       #85
      01003097H   LINE      CODE     ---       #86
      0100309CH   LINE      CODE     ---       #87
      0100309CH   LINE      CODE     ---       #89
      010030A4H   LINE      CODE     ---       #90
      010030A4H   LINE      CODE     ---       #91
      010030B1H   LINE      CODE     ---       #92
      010030BBH   LINE      CODE     ---       #96
      010030BDH   LINE      CODE     ---       #97
      010030BFH   LINE      CODE     ---       #99
      010030BFH   LINE      CODE     ---       #100
      010030CCH   LINE      CODE     ---       #102
      010030CCH   LINE      CODE     ---       #103
      010030D3H   LINE      CODE     ---       #104
      010030D8H   LINE      CODE     ---       #105
      010030D8H   LINE      CODE     ---       #106
      010030D8H   LINE      CODE     ---       #108
      010030E0H   LINE      CODE     ---       #109
      ---         BLOCKEND  ---      ---       LVL=0

      01003B06H   BLOCK     CODE     ---       LVL=0
      01003B06H   LINE      CODE     ---       #112
      01003B06H   LINE      CODE     ---       #113
      01003B06H   LINE      CODE     ---       #114
      01003B08H   LINE      CODE     ---       #115
      01003B0AH   LINE      CODE     ---       #116
      01003B0CH   LINE      CODE     ---       #117
      01003B0EH   LINE      CODE     ---       #118
      01003B10H   LINE      CODE     ---       #120
      01003B17H   LINE      CODE     ---       #121
      01003B1DH   LINE      CODE     ---       #122
      01003B1FH   LINE      CODE     ---       #124
      01003B21H   LINE      CODE     ---       #125
      01003B25H   LINE      CODE     ---       #126
      ---         BLOCKEND  ---      ---       LVL=0

      01003C2BH   BLOCK     CODE     ---       LVL=0
      01003C2BH   LINE      CODE     ---       #129
      01003C2BH   LINE      CODE     ---       #130
      01003C2BH   LINE      CODE     ---       #131
LX51 LINKER/LOCATER V4.66.97.0                                                        05/01/2025  09:54:43  PAGE 65


      01003C38H   LINE      CODE     ---       #132
      01003C40H   LINE      CODE     ---       #134
      01003C40H   LINE      CODE     ---       #135
      ---         BLOCKEND  ---      ---       LVL=0

      01003C41H   BLOCK     CODE     ---       LVL=0
      01003C41H   LINE      CODE     ---       #138
      01003C41H   LINE      CODE     ---       #139
      01003C41H   LINE      CODE     ---       #141
      01003C4EH   LINE      CODE     ---       #142
      01003C56H   LINE      CODE     ---       #144
      01003C56H   LINE      CODE     ---       #145
      ---         BLOCKEND  ---      ---       LVL=0

      010027BEH   BLOCK     CODE     ---       LVL=0
      010027BEH   BLOCK     CODE     NEAR LAB  LVL=1
      00000024H   SYMBOL    DATA     CHAR      retry
      00000020H.1 SYMBOL    BIT      BIT       IsDCDCOV
      ---         BLOCKEND  ---      ---       LVL=1
      010027BEH   LINE      CODE     ---       #148
      010027BEH   LINE      CODE     ---       #149
      010027BEH   LINE      CODE     ---       #150
      010027C1H   LINE      CODE     ---       #151
      010027C3H   LINE      CODE     ---       #153
      010027C5H   LINE      CODE     ---       #154
      010027C7H   LINE      CODE     ---       #155
      010027CCH   LINE      CODE     ---       #157
      010027D3H   LINE      CODE     ---       #158
      010027D6H   LINE      CODE     ---       #159
      010027EFH   LINE      CODE     ---       #161
      010027EFH   LINE      CODE     ---       #162
      010027F4H   LINE      CODE     ---       #163
      010027F7H   LINE      CODE     ---       #165
      010027F7H   LINE      CODE     ---       #168
      010027F7H   LINE      CODE     ---       #169
      010027FAH   LINE      CODE     ---       #170
      01002807H   LINE      CODE     ---       #171
      0100280EH   LINE      CODE     ---       #172
      0100280EH   LINE      CODE     ---       #174
      01002810H   LINE      CODE     ---       #175
      01002817H   LINE      CODE     ---       #177
      01002819H   LINE      CODE     ---       #178
      0100281EH   LINE      CODE     ---       #180
      01002821H   LINE      CODE     ---       #182
      01002821H   LINE      CODE     ---       #184
      01002828H   LINE      CODE     ---       #185
      0100282AH   LINE      CODE     ---       #186
      0100282AH   LINE      CODE     ---       #187
      01002832H   LINE      CODE     ---       #189
      0100283CH   LINE      CODE     ---       #190
      ---         BLOCKEND  ---      ---       LVL=0

      01000A9AH   BLOCK     CODE     ---       LVL=0
      01000A9AH   BLOCK     CODE     NEAR LAB  LVL=1
      00000024H   SYMBOL    DATA     INT       TargetCurrent
      00000026H   SYMBOL    DATA     INT       ILIM
      ---         BLOCKEND  ---      ---       LVL=1
      01000A9AH   LINE      CODE     ---       #193
      01000A9AH   LINE      CODE     ---       #194
      01000A9AH   LINE      CODE     ---       #197
      01000AA4H   LINE      CODE     ---       #198
      01000AB5H   LINE      CODE     ---       #199
      01000AB5H   LINE      CODE     ---       #201
      01000ABCH   LINE      CODE     ---       #202
      01000AD3H   LINE      CODE     ---       #203
LX51 LINKER/LOCATER V4.66.97.0                                                        05/01/2025  09:54:43  PAGE 66


      01000AD3H   LINE      CODE     ---       #205
      01000B0AH   LINE      CODE     ---       #206
      01000B0AH   LINE      CODE     ---       #208
      01000B0AH   LINE      CODE     ---       #209
      01000B0DH   LINE      CODE     ---       #210
      01000B0DH   LINE      CODE     ---       #212
      01000B0DH   LINE      CODE     ---       #214
      01000B0FH   LINE      CODE     ---       #215
      01000B11H   LINE      CODE     ---       #216
      01000B13H   LINE      CODE     ---       #217
      01000B15H   LINE      CODE     ---       #219
      01000B38H   LINE      CODE     ---       #220
      01000B38H   LINE      CODE     ---       #221
      01000B3BH   LINE      CODE     ---       #222
      01000B45H   LINE      CODE     ---       #223
      01000B47H   LINE      CODE     ---       #224
      01000B47H   LINE      CODE     ---       #226
      01000B55H   LINE      CODE     ---       #227
      01000B56H   LINE      CODE     ---       #229
      01000B56H   LINE      CODE     ---       #231
      01000B58H   LINE      CODE     ---       #232
      01000B72H   LINE      CODE     ---       #234
      01000B72H   LINE      CODE     ---       #236
      01000B75H   LINE      CODE     ---       #237
      01000B7BH   LINE      CODE     ---       #238
      01000B7CH   LINE      CODE     ---       #240
      01000B7CH   LINE      CODE     ---       #242
      01000B82H   LINE      CODE     ---       #243
      01000B89H   LINE      CODE     ---       #245
      01000B8BH   LINE      CODE     ---       #246
      01000B91H   LINE      CODE     ---       #247
      01000B97H   LINE      CODE     ---       #248
      01000B98H   LINE      CODE     ---       #250
      01000B98H   LINE      CODE     ---       #252
      01000B9AH   LINE      CODE     ---       #253
      01000BA7H   LINE      CODE     ---       #255
      01000BAFH   LINE      CODE     ---       #256
      01000BB4H   LINE      CODE     ---       #257
      01000BB4H   LINE      CODE     ---       #258
      01000BB7H   LINE      CODE     ---       #260
      01000BB7H   LINE      CODE     ---       #262
      01000BB9H   LINE      CODE     ---       #264
      01000BC2H   LINE      CODE     ---       #266
      01000BD3H   LINE      CODE     ---       #268
      01000BD9H   LINE      CODE     ---       #269
      01000BE8H   LINE      CODE     ---       #270
      01000BFBH   LINE      CODE     ---       #271
      01000C12H   LINE      CODE     ---       #272
      01000C1BH   LINE      CODE     ---       #273
      01000C1DH   LINE      CODE     ---       #274
      01000C1EH   LINE      CODE     ---       #276
      01000C1EH   LINE      CODE     ---       #277
      01000C24H   LINE      CODE     ---       #278
      01000C2DH   LINE      CODE     ---       #280
      01000C4BH   LINE      CODE     ---       #281
      01000C52H   LINE      CODE     ---       #282
      01000C52H   LINE      CODE     ---       #283
      01000C62H   LINE      CODE     ---       #284
      01000C70H   LINE      CODE     ---       #285
      01000C70H   LINE      CODE     ---       #286
      01000C80H   LINE      CODE     ---       #287
      01000C90H   LINE      CODE     ---       #288
      01000CA0H   LINE      CODE     ---       #289
      01000CAEH   LINE      CODE     ---       #290
      01000CAEH   LINE      CODE     ---       #291
LX51 LINKER/LOCATER V4.66.97.0                                                        05/01/2025  09:54:43  PAGE 67


      01000CC3H   LINE      CODE     ---       #292
      01000CC3H   LINE      CODE     ---       #293
      01000CC5H   LINE      CODE     ---       #294
      01000CC5H   LINE      CODE     ---       #295
      01000CC5H   LINE      CODE     ---       #296
      01000CC7H   LINE      CODE     ---       #297
      01000CD1H   LINE      CODE     ---       #299
      01000CD3H   LINE      CODE     ---       #300
      01000CDEH   LINE      CODE     ---       #302
      01000CF5H   LINE      CODE     ---       #303
      01000CF6H   LINE      CODE     ---       #305
      01000CF6H   LINE      CODE     ---       #306
      01000D00H   LINE      CODE     ---       #307
      01000D11H   LINE      CODE     ---       #308
      01000D22H   LINE      CODE     ---       #309
      01000D25H   LINE      CODE     ---       #311
      01000D25H   LINE      CODE     ---       #313
      01000D27H   LINE      CODE     ---       #314
      01000D29H   LINE      CODE     ---       #316
      01000D2BH   LINE      CODE     ---       #317
      01000D35H   LINE      CODE     ---       #318
      01000D3FH   LINE      CODE     ---       #319
      01000D41H   LINE      CODE     ---       #321
      01000D47H   LINE      CODE     ---       #322
      01000D4DH   LINE      CODE     ---       #323
      01000D4EH   LINE      CODE     ---       #325
      01000D4EH   LINE      CODE     ---       #327
      01000D60H   LINE      CODE     ---       #329
      01000D63H   LINE      CODE     ---       #330
      01000D65H   LINE      CODE     ---       #332
      01000D67H   LINE      CODE     ---       #333
      01000D69H   LINE      CODE     ---       #334
      01000D6DH   LINE      CODE     ---       #335
      01000D71H   LINE      CODE     ---       #336
      01000D72H   LINE      CODE     ---       #338
      01000D72H   LINE      CODE     ---       #340
      01000D72H   LINE      CODE     ---       #341
      01000D75H   LINE      CODE     ---       #343
      01000D89H   LINE      CODE     ---       #344
      01000D8BH   LINE      CODE     ---       #345
      01000D91H   LINE      CODE     ---       #346
      01000D92H   LINE      CODE     ---       #348
      01000D92H   LINE      CODE     ---       #349
      01000D9BH   LINE      CODE     ---       #350
      01000DA0H   LINE      CODE     ---       #351
      01000DA0H   LINE      CODE     ---       #352
      01000DA2H   LINE      CODE     ---       #353
      01000DA5H   LINE      CODE     ---       #354
      01000DA7H   LINE      CODE     ---       #355
      01000DADH   LINE      CODE     ---       #356
      01000DADH   LINE      CODE     ---       #357
      01000DAEH   LINE      CODE     ---       #359
      01000DB4H   LINE      CODE     ---       #360
      01000DB4H   LINE      CODE     ---       #361
      ---         BLOCKEND  ---      ---       LVL=0

      ---         MODULE    ---      ---       FLASH
      01003782H   PUBLIC    CODE     ---       _Flash_Operation
      00000020H.3 PUBLIC    BIT      BIT       ?SetFlashState?BIT
      01003D1AH   PUBLIC    CODE     ---       SetFlashState
      000000C8H.0 SFRSYM    DATA     BIT       T2I0
      000000C3H   SFRSYM    DATA     BYTE      CCH1
      00000080H   SFRSYM    DATA     BYTE      P0
      000000C8H.1 SFRSYM    DATA     BIT       T2I1
      000000C5H   SFRSYM    DATA     BYTE      CCH2
LX51 LINKER/LOCATER V4.66.97.0                                                        05/01/2025  09:54:43  PAGE 68


      00000090H   SFRSYM    DATA     BYTE      P1
      000000C7H   SFRSYM    DATA     BYTE      CCH3
      000000ACH   SFRSYM    DATA     BYTE      P0EXTIE
      000000A0H   SFRSYM    DATA     BYTE      P2
      000000B4H   SFRSYM    DATA     BYTE      P0EXTIF
      000000B0H   SFRSYM    DATA     BYTE      P3
      000000ADH   SFRSYM    DATA     BYTE      P1EXTIE
      000000D0H.6 SFRSYM    DATA     BIT       AC
      000000FFH   SFRSYM    DATA     BYTE      MCTRL
      000000C2H   SFRSYM    DATA     BYTE      CCL1
      000000B5H   SFRSYM    DATA     BYTE      P1EXTIF
      000000AEH   SFRSYM    DATA     BYTE      P2EXTIE
      000000C4H   SFRSYM    DATA     BYTE      CCL2
      000000B6H   SFRSYM    DATA     BYTE      P2EXTIF
      000000AFH   SFRSYM    DATA     BYTE      P3EXTIE
      000000A8H.7 SFRSYM    DATA     BIT       EA
      000000C6H   SFRSYM    DATA     BYTE      CCL3
      000000B7H   SFRSYM    DATA     BYTE      P3EXTIF
      000000AAH   SFRSYM    DATA     BYTE      EIE2
      000000B2H   SFRSYM    DATA     BYTE      EIF2
      000000C8H.3 SFRSYM    DATA     BIT       T2R0
      000000C8H.4 SFRSYM    DATA     BIT       T2R1
      00000083H   SFRSYM    DATA     BYTE      DPH0
      000000A8H   SFRSYM    DATA     BYTE      IE
      00000085H   SFRSYM    DATA     BYTE      DPH1
      000000B9H   SFRSYM    DATA     BYTE      EIP1
      000000BAH   SFRSYM    DATA     BYTE      EIP2
      00000082H   SFRSYM    DATA     BYTE      DPL0
      00000084H   SFRSYM    DATA     BYTE      DPL1
      000000C8H.6 SFRSYM    DATA     BIT       I3FR
      000000CFH   SFRSYM    DATA     BYTE      T2IE
      00000096H   SFRSYM    DATA     BYTE      TA
      000000C9H   SFRSYM    DATA     BYTE      T2IF
      000000C8H.2 SFRSYM    DATA     BIT       T2CM
      000000DFH   SFRSYM    DATA     BYTE      ADCON0
      000000DEH   SFRSYM    DATA     BYTE      ADCON1
      000000E9H   SFRSYM    DATA     BYTE      ADCON2
      000000B8H   SFRSYM    DATA     BYTE      IP
      000000CEH   SFRSYM    DATA     BYTE      CCEN
      000000D0H.7 SFRSYM    DATA     BIT       CY
      000000D2H   SFRSYM    DATA     BYTE      T34MOD
      00000093H   SFRSYM    DATA     BYTE      DPX0
      00000095H   SFRSYM    DATA     BYTE      DPX1
      000000F4H   SFRSYM    DATA     BYTE      I2CMSA
      000000F5H   SFRSYM    DATA     BYTE      I2CMCR
      00000081H   SFRSYM    DATA     BYTE      SP
      000000D0H.2 SFRSYM    DATA     BIT       OV
      000000F2H   SFRSYM    DATA     BYTE      I2CSCR
      000000C8H.7 SFRSYM    DATA     BIT       T2PS
      000000D1H   SFRSYM    DATA     BYTE      ADCMPC
      000000CBH   SFRSYM    DATA     BYTE      RLDH
      000000D5H   SFRSYM    DATA     BYTE      ADCMPH
      000000CAH   SFRSYM    DATA     BYTE      RLDL
      00000080H.0 SFRSYM    DATA     BIT       P00
      00000090H.0 SFRSYM    DATA     BIT       P10
      00000080H.1 SFRSYM    DATA     BIT       P01
      000000F7H   SFRSYM    DATA     BYTE      I2CMTP
      00000099H   SFRSYM    DATA     BYTE      SBUF
      00000087H   SFRSYM    DATA     BYTE      PCON
      000000A0H.0 SFRSYM    DATA     BIT       P20
      00000090H.1 SFRSYM    DATA     BIT       P11
      00000080H.2 SFRSYM    DATA     BIT       P02
      000000F5H   SFRSYM    DATA     BYTE      I2CMSR
      000000B0H.0 SFRSYM    DATA     BIT       P30
      000000A0H.1 SFRSYM    DATA     BIT       P21
LX51 LINKER/LOCATER V4.66.97.0                                                        05/01/2025  09:54:43  PAGE 69


      00000090H.2 SFRSYM    DATA     BIT       P12
      00000080H.3 SFRSYM    DATA     BIT       P03
      000000D4H   SFRSYM    DATA     BYTE      ADCMPL
      000000B0H.1 SFRSYM    DATA     BIT       P31
      000000A0H.2 SFRSYM    DATA     BIT       P22
      00000090H.3 SFRSYM    DATA     BIT       P13
      00000080H.4 SFRSYM    DATA     BIT       P04
      000000B0H.2 SFRSYM    DATA     BIT       P32
      000000A0H.3 SFRSYM    DATA     BIT       P23
      00000090H.4 SFRSYM    DATA     BIT       P14
      00000080H.5 SFRSYM    DATA     BIT       P05
      00000089H   SFRSYM    DATA     BYTE      TMOD
      00000088H   SFRSYM    DATA     BYTE      TCON
      000000B0H.3 SFRSYM    DATA     BIT       P33
      000000A0H.4 SFRSYM    DATA     BIT       P24
      00000090H.5 SFRSYM    DATA     BIT       P15
      00000080H.6 SFRSYM    DATA     BIT       P06
      000000B0H.4 SFRSYM    DATA     BIT       P34
      000000A0H.5 SFRSYM    DATA     BIT       P25
      00000090H.6 SFRSYM    DATA     BIT       P16
      00000080H.7 SFRSYM    DATA     BIT       P07
      000000B0H.5 SFRSYM    DATA     BIT       P35
      000000A0H.6 SFRSYM    DATA     BIT       P26
      00000090H.7 SFRSYM    DATA     BIT       P17
      000000F2H   SFRSYM    DATA     BYTE      I2CSSR
      000000B0H.6 SFRSYM    DATA     BIT       P36
      000000A0H.7 SFRSYM    DATA     BIT       P27
      000000ECH   SFRSYM    DATA     BYTE      SPCR
      000000DDH   SFRSYM    DATA     BYTE      ADRESH
      000000B0H.7 SFRSYM    DATA     BIT       P37
      000000EEH   SFRSYM    DATA     BYTE      SPDR
      000000EFH   SFRSYM    DATA     BYTE      SSCR
      000000D3H   SFRSYM    DATA     BYTE      ADDLYL
      000000DCH   SFRSYM    DATA     BYTE      ADRESL
      00000088H.1 SFRSYM    DATA     BIT       IE0
      00000088H.3 SFRSYM    DATA     BIT       IE1
      0000008FH   SFRSYM    DATA     BYTE      CLKDIV
      000000F0H   SFRSYM    DATA     BYTE      B
      00000091H   SFRSYM    DATA     BYTE      FUNCCR
      0000009AH   SFRSYM    DATA     BYTE      P0TRIS
      000000A1H   SFRSYM    DATA     BYTE      P1TRIS
      000000A2H   SFRSYM    DATA     BYTE      P2TRIS
      000000E0H   SFRSYM    DATA     BYTE      ACC
      000000A3H   SFRSYM    DATA     BYTE      P3TRIS
      000000A8H.4 SFRSYM    DATA     BIT       ES0
      000000A8H.6 SFRSYM    DATA     BIT       ES1
      000000A8H.1 SFRSYM    DATA     BIT       ET0
      000000EDH   SFRSYM    DATA     BYTE      SPSR
      000000A8H.3 SFRSYM    DATA     BIT       ET1
      00000088H.5 SFRSYM    DATA     BIT       TF0
      000000A8H.5 SFRSYM    DATA     BIT       ET2
      00000098H.0 SFRSYM    DATA     BIT       RI0
      00000088H.7 SFRSYM    DATA     BIT       TF1
      0000008CH   SFRSYM    DATA     BYTE      TH0
      000000A8H.0 SFRSYM    DATA     BIT       EX0
      00000098H.1 SFRSYM    DATA     BIT       TI0
      00000088H.0 SFRSYM    DATA     BIT       IT0
      0000008DH   SFRSYM    DATA     BYTE      TH1
      000000A8H.2 SFRSYM    DATA     BIT       EX1
      00000088H.2 SFRSYM    DATA     BIT       IT1
      000000CDH   SFRSYM    DATA     BYTE      TH2
      000000D0H.0 SFRSYM    DATA     BIT       P
      000000DBH   SFRSYM    DATA     BYTE      TH3
      000000E3H   SFRSYM    DATA     BYTE      TH4
      0000008AH   SFRSYM    DATA     BYTE      TL0
LX51 LINKER/LOCATER V4.66.97.0                                                        05/01/2025  09:54:43  PAGE 70


      0000008BH   SFRSYM    DATA     BYTE      TL1
      00000098H.2 SFRSYM    DATA     BIT       U0RB8
      000000CCH   SFRSYM    DATA     BYTE      TL2
      000000B8H.4 SFRSYM    DATA     BIT       PS0
      000000DAH   SFRSYM    DATA     BYTE      TL3
      000000BFH   SFRSYM    DATA     BYTE      BUZCON
      000000B8H.6 SFRSYM    DATA     BIT       PS1
      000000B8H.1 SFRSYM    DATA     BIT       PT0
      00000098H.3 SFRSYM    DATA     BIT       U0TB8
      000000E2H   SFRSYM    DATA     BYTE      TL4
      000000D0H.3 SFRSYM    DATA     BIT       RS0
      000000B8H.3 SFRSYM    DATA     BIT       PT1
      000000D0H.4 SFRSYM    DATA     BIT       RS1
      000000B8H.5 SFRSYM    DATA     BIT       PT2
      00000098H.7 SFRSYM    DATA     BIT       U0SM0
      00000088H.4 SFRSYM    DATA     BIT       TR0
      000000BEH   SFRSYM    DATA     BYTE      BUZDIV
      00000098H.6 SFRSYM    DATA     BIT       U0SM1
      00000088H.6 SFRSYM    DATA     BIT       TR1
      000000B8H.0 SFRSYM    DATA     BIT       PX0
      00000098H.5 SFRSYM    DATA     BIT       U0SM2
      000000B8H.2 SFRSYM    DATA     BIT       PX1
      000000BDH   SFRSYM    DATA     BYTE      WUTCRH
      00000099H   SFRSYM    DATA     BYTE      SBUF0
      000000EBH   SFRSYM    DATA     BYTE      SBUF1
      000000BCH   SFRSYM    DATA     BYTE      WUTCRL
      00000098H   SFRSYM    DATA     BYTE      SCON0
      000000EAH   SFRSYM    DATA     BYTE      SCON1
      000000C8H   SFRSYM    DATA     BYTE      T2CON
      00000086H   SFRSYM    DATA     BYTE      DPS
      000000FEH   SFRSYM    DATA     BYTE      MDATA
      000000F6H   SFRSYM    DATA     BYTE      I2CMBUF
      000000F1H   SFRSYM    DATA     BYTE      I2CSADR
      00000098H.4 SFRSYM    DATA     BIT       U0REN
      000000C8H.5 SFRSYM    DATA     BIT       CAPES
      000000FDH   SFRSYM    DATA     BYTE      MADRH
      0000008EH   SFRSYM    DATA     BYTE      CKCON
      000000F3H   SFRSYM    DATA     BYTE      I2CSBUF
      000000FCH   SFRSYM    DATA     BYTE      MADRL
      000000D0H.5 SFRSYM    DATA     BIT       F0
      000000FBH   SFRSYM    DATA     BYTE      MLOCK
      000000D0H   SFRSYM    DATA     BYTE      PSW
      00000097H   SFRSYM    DATA     BYTE      WDCON

      01003D1AH   BLOCK     CODE     ---       LVL=0
      00000020H.3 SYMBOL    BIT      BIT       IsUnlocked
      01003D1AH   LINE      CODE     ---       #5
      01003D1AH   LINE      CODE     ---       #6
      01003D1AH   LINE      CODE     ---       #8
      01003D1DH   LINE      CODE     ---       #9
      01003D1DH   LINE      CODE     ---       #10
      01003D1FH   LINE      CODE     ---       #11
      01003D20H   LINE      CODE     ---       #12
      01003D23H   LINE      CODE     ---       #13
      01003D24H   LINE      CODE     ---       #16
      01003D24H   LINE      CODE     ---       #17
      01003D27H   LINE      CODE     ---       #18
      01003D28H   LINE      CODE     ---       #19
      01003D2AH   LINE      CODE     ---       #20
      01003D2AH   LINE      CODE     ---       #21
      ---         BLOCKEND  ---      ---       LVL=0

      01003782H   BLOCK     CODE     ---       LVL=0
      00000031H   SYMBOL    DATA     BYTE      Operation
      00000004H   SYMBOL    DATA     INT       ADDR
LX51 LINKER/LOCATER V4.66.97.0                                                        05/01/2025  09:54:43  PAGE 71


      00000001H   SYMBOL    DATA     ---       Data
      01003782H   LINE      CODE     ---       #24
      01003784H   LINE      CODE     ---       #25
      01003784H   LINE      CODE     ---       #26
      0100378EH   LINE      CODE     ---       #27
      01003791H   LINE      CODE     ---       #28
      01003796H   LINE      CODE     ---       #29
      01003797H   LINE      CODE     ---       #30
      0100379AH   LINE      CODE     ---       #31
      0100379BH   LINE      CODE     ---       #32
      0100379CH   LINE      CODE     ---       #33
      0100379DH   LINE      CODE     ---       #34
      0100379EH   LINE      CODE     ---       #35
      0100379FH   LINE      CODE     ---       #36
      010037A0H   LINE      CODE     ---       #37
      010037A5H   LINE      CODE     ---       #38
      010037B0H   LINE      CODE     ---       #39
      ---         BLOCKEND  ---      ---       LVL=0

      ---         MODULE    ---      ---       SYSRESET
      01003D8FH   PUBLIC    CODE     ---       ClearSoftwareResetFlag
      01003D59H   PUBLIC    CODE     ---       TriggerSoftwareReset
      000000C8H.0 SFRSYM    DATA     BIT       T2I0
      000000C3H   SFRSYM    DATA     BYTE      CCH1
      00000080H   SFRSYM    DATA     BYTE      P0
      000000C8H.1 SFRSYM    DATA     BIT       T2I1
      000000C5H   SFRSYM    DATA     BYTE      CCH2
      00000090H   SFRSYM    DATA     BYTE      P1
      000000C7H   SFRSYM    DATA     BYTE      CCH3
      000000ACH   SFRSYM    DATA     BYTE      P0EXTIE
      000000A0H   SFRSYM    DATA     BYTE      P2
      000000B4H   SFRSYM    DATA     BYTE      P0EXTIF
      000000B0H   SFRSYM    DATA     BYTE      P3
      000000ADH   SFRSYM    DATA     BYTE      P1EXTIE
      000000D0H.6 SFRSYM    DATA     BIT       AC
      000000FFH   SFRSYM    DATA     BYTE      MCTRL
      000000C2H   SFRSYM    DATA     BYTE      CCL1
      000000B5H   SFRSYM    DATA     BYTE      P1EXTIF
      000000AEH   SFRSYM    DATA     BYTE      P2EXTIE
      000000C4H   SFRSYM    DATA     BYTE      CCL2
      000000B6H   SFRSYM    DATA     BYTE      P2EXTIF
      000000AFH   SFRSYM    DATA     BYTE      P3EXTIE
      000000A8H.7 SFRSYM    DATA     BIT       EA
      000000C6H   SFRSYM    DATA     BYTE      CCL3
      000000B7H   SFRSYM    DATA     BYTE      P3EXTIF
      000000AAH   SFRSYM    DATA     BYTE      EIE2
      000000B2H   SFRSYM    DATA     BYTE      EIF2
      000000C8H.3 SFRSYM    DATA     BIT       T2R0
      000000C8H.4 SFRSYM    DATA     BIT       T2R1
      00000083H   SFRSYM    DATA     BYTE      DPH0
      000000A8H   SFRSYM    DATA     BYTE      IE
      00000085H   SFRSYM    DATA     BYTE      DPH1
      000000B9H   SFRSYM    DATA     BYTE      EIP1
      000000BAH   SFRSYM    DATA     BYTE      EIP2
      00000082H   SFRSYM    DATA     BYTE      DPL0
      00000084H   SFRSYM    DATA     BYTE      DPL1
      000000C8H.6 SFRSYM    DATA     BIT       I3FR
      000000CFH   SFRSYM    DATA     BYTE      T2IE
      00000096H   SFRSYM    DATA     BYTE      TA
      000000C9H   SFRSYM    DATA     BYTE      T2IF
      000000C8H.2 SFRSYM    DATA     BIT       T2CM
      000000DFH   SFRSYM    DATA     BYTE      ADCON0
      000000DEH   SFRSYM    DATA     BYTE      ADCON1
      000000E9H   SFRSYM    DATA     BYTE      ADCON2
      000000B8H   SFRSYM    DATA     BYTE      IP
LX51 LINKER/LOCATER V4.66.97.0                                                        05/01/2025  09:54:43  PAGE 72


      000000CEH   SFRSYM    DATA     BYTE      CCEN
      000000D0H.7 SFRSYM    DATA     BIT       CY
      000000D2H   SFRSYM    DATA     BYTE      T34MOD
      00000093H   SFRSYM    DATA     BYTE      DPX0
      00000095H   SFRSYM    DATA     BYTE      DPX1
      000000F4H   SFRSYM    DATA     BYTE      I2CMSA
      000000F5H   SFRSYM    DATA     BYTE      I2CMCR
      00000081H   SFRSYM    DATA     BYTE      SP
      000000D0H.2 SFRSYM    DATA     BIT       OV
      000000F2H   SFRSYM    DATA     BYTE      I2CSCR
      000000C8H.7 SFRSYM    DATA     BIT       T2PS
      000000D1H   SFRSYM    DATA     BYTE      ADCMPC
      000000CBH   SFRSYM    DATA     BYTE      RLDH
      000000D5H   SFRSYM    DATA     BYTE      ADCMPH
      000000CAH   SFRSYM    DATA     BYTE      RLDL
      00000080H.0 SFRSYM    DATA     BIT       P00
      00000090H.0 SFRSYM    DATA     BIT       P10
      00000080H.1 SFRSYM    DATA     BIT       P01
      000000F7H   SFRSYM    DATA     BYTE      I2CMTP
      00000099H   SFRSYM    DATA     BYTE      SBUF
      00000087H   SFRSYM    DATA     BYTE      PCON
      000000A0H.0 SFRSYM    DATA     BIT       P20
      00000090H.1 SFRSYM    DATA     BIT       P11
      00000080H.2 SFRSYM    DATA     BIT       P02
      000000F5H   SFRSYM    DATA     BYTE      I2CMSR
      000000B0H.0 SFRSYM    DATA     BIT       P30
      000000A0H.1 SFRSYM    DATA     BIT       P21
      00000090H.2 SFRSYM    DATA     BIT       P12
      00000080H.3 SFRSYM    DATA     BIT       P03
      000000D4H   SFRSYM    DATA     BYTE      ADCMPL
      000000B0H.1 SFRSYM    DATA     BIT       P31
      000000A0H.2 SFRSYM    DATA     BIT       P22
      00000090H.3 SFRSYM    DATA     BIT       P13
      00000080H.4 SFRSYM    DATA     BIT       P04
      000000B0H.2 SFRSYM    DATA     BIT       P32
      000000A0H.3 SFRSYM    DATA     BIT       P23
      00000090H.4 SFRSYM    DATA     BIT       P14
      00000080H.5 SFRSYM    DATA     BIT       P05
      00000089H   SFRSYM    DATA     BYTE      TMOD
      00000088H   SFRSYM    DATA     BYTE      TCON
      000000B0H.3 SFRSYM    DATA     BIT       P33
      000000A0H.4 SFRSYM    DATA     BIT       P24
      00000090H.5 SFRSYM    DATA     BIT       P15
      00000080H.6 SFRSYM    DATA     BIT       P06
      000000B0H.4 SFRSYM    DATA     BIT       P34
      000000A0H.5 SFRSYM    DATA     BIT       P25
      00000090H.6 SFRSYM    DATA     BIT       P16
      00000080H.7 SFRSYM    DATA     BIT       P07
      000000B0H.5 SFRSYM    DATA     BIT       P35
      000000A0H.6 SFRSYM    DATA     BIT       P26
      00000090H.7 SFRSYM    DATA     BIT       P17
      000000F2H   SFRSYM    DATA     BYTE      I2CSSR
      000000B0H.6 SFRSYM    DATA     BIT       P36
      000000A0H.7 SFRSYM    DATA     BIT       P27
      000000ECH   SFRSYM    DATA     BYTE      SPCR
      000000DDH   SFRSYM    DATA     BYTE      ADRESH
      000000B0H.7 SFRSYM    DATA     BIT       P37
      000000EEH   SFRSYM    DATA     BYTE      SPDR
      000000EFH   SFRSYM    DATA     BYTE      SSCR
      000000D3H   SFRSYM    DATA     BYTE      ADDLYL
      000000DCH   SFRSYM    DATA     BYTE      ADRESL
      00000088H.1 SFRSYM    DATA     BIT       IE0
      00000088H.3 SFRSYM    DATA     BIT       IE1
      0000008FH   SFRSYM    DATA     BYTE      CLKDIV
      000000F0H   SFRSYM    DATA     BYTE      B
LX51 LINKER/LOCATER V4.66.97.0                                                        05/01/2025  09:54:43  PAGE 73


      00000091H   SFRSYM    DATA     BYTE      FUNCCR
      0000009AH   SFRSYM    DATA     BYTE      P0TRIS
      000000A1H   SFRSYM    DATA     BYTE      P1TRIS
      000000A2H   SFRSYM    DATA     BYTE      P2TRIS
      000000E0H   SFRSYM    DATA     BYTE      ACC
      000000A3H   SFRSYM    DATA     BYTE      P3TRIS
      000000A8H.4 SFRSYM    DATA     BIT       ES0
      000000A8H.6 SFRSYM    DATA     BIT       ES1
      000000A8H.1 SFRSYM    DATA     BIT       ET0
      000000EDH   SFRSYM    DATA     BYTE      SPSR
      000000A8H.3 SFRSYM    DATA     BIT       ET1
      00000088H.5 SFRSYM    DATA     BIT       TF0
      000000A8H.5 SFRSYM    DATA     BIT       ET2
      00000098H.0 SFRSYM    DATA     BIT       RI0
      00000088H.7 SFRSYM    DATA     BIT       TF1
      0000008CH   SFRSYM    DATA     BYTE      TH0
      000000A8H.0 SFRSYM    DATA     BIT       EX0
      00000098H.1 SFRSYM    DATA     BIT       TI0
      00000088H.0 SFRSYM    DATA     BIT       IT0
      0000008DH   SFRSYM    DATA     BYTE      TH1
      000000A8H.2 SFRSYM    DATA     BIT       EX1
      00000088H.2 SFRSYM    DATA     BIT       IT1
      000000CDH   SFRSYM    DATA     BYTE      TH2
      000000D0H.0 SFRSYM    DATA     BIT       P
      000000DBH   SFRSYM    DATA     BYTE      TH3
      000000E3H   SFRSYM    DATA     BYTE      TH4
      0000008AH   SFRSYM    DATA     BYTE      TL0
      0000008BH   SFRSYM    DATA     BYTE      TL1
      00000098H.2 SFRSYM    DATA     BIT       U0RB8
      000000CCH   SFRSYM    DATA     BYTE      TL2
      000000B8H.4 SFRSYM    DATA     BIT       PS0
      000000DAH   SFRSYM    DATA     BYTE      TL3
      000000BFH   SFRSYM    DATA     BYTE      BUZCON
      000000B8H.6 SFRSYM    DATA     BIT       PS1
      000000B8H.1 SFRSYM    DATA     BIT       PT0
      00000098H.3 SFRSYM    DATA     BIT       U0TB8
      000000E2H   SFRSYM    DATA     BYTE      TL4
      000000D0H.3 SFRSYM    DATA     BIT       RS0
      000000B8H.3 SFRSYM    DATA     BIT       PT1
      000000D0H.4 SFRSYM    DATA     BIT       RS1
      000000B8H.5 SFRSYM    DATA     BIT       PT2
      00000098H.7 SFRSYM    DATA     BIT       U0SM0
      00000088H.4 SFRSYM    DATA     BIT       TR0
      000000BEH   SFRSYM    DATA     BYTE      BUZDIV
      00000098H.6 SFRSYM    DATA     BIT       U0SM1
      00000088H.6 SFRSYM    DATA     BIT       TR1
      000000B8H.0 SFRSYM    DATA     BIT       PX0
      00000098H.5 SFRSYM    DATA     BIT       U0SM2
      000000B8H.2 SFRSYM    DATA     BIT       PX1
      000000BDH   SFRSYM    DATA     BYTE      WUTCRH
      00000099H   SFRSYM    DATA     BYTE      SBUF0
      000000EBH   SFRSYM    DATA     BYTE      SBUF1
      000000BCH   SFRSYM    DATA     BYTE      WUTCRL
      00000098H   SFRSYM    DATA     BYTE      SCON0
      000000EAH   SFRSYM    DATA     BYTE      SCON1
      000000C8H   SFRSYM    DATA     BYTE      T2CON
      00000086H   SFRSYM    DATA     BYTE      DPS
      000000FEH   SFRSYM    DATA     BYTE      MDATA
      000000F6H   SFRSYM    DATA     BYTE      I2CMBUF
      000000F1H   SFRSYM    DATA     BYTE      I2CSADR
      00000098H.4 SFRSYM    DATA     BIT       U0REN
      000000C8H.5 SFRSYM    DATA     BIT       CAPES
      000000FDH   SFRSYM    DATA     BYTE      MADRH
      0000008EH   SFRSYM    DATA     BYTE      CKCON
      000000F3H   SFRSYM    DATA     BYTE      I2CSBUF
LX51 LINKER/LOCATER V4.66.97.0                                                        05/01/2025  09:54:43  PAGE 74


      000000FCH   SFRSYM    DATA     BYTE      MADRL
      000000D0H.5 SFRSYM    DATA     BIT       F0
      000000FBH   SFRSYM    DATA     BYTE      MLOCK
      000000D0H   SFRSYM    DATA     BYTE      PSW
      00000097H   SFRSYM    DATA     BYTE      WDCON

      01003D59H   BLOCK     CODE     ---       LVL=0
      01003D59H   LINE      CODE     ---       #5
      01003D59H   LINE      CODE     ---       #6
      01003D59H   LINE      CODE     ---       #7
      01003D5BH   LINE      CODE     ---       #8
      01003D5CH   LINE      CODE     ---       #9
      01003D5FH   LINE      CODE     ---       #10
      01003D62H   LINE      CODE     ---       #11
      01003D65H   LINE      CODE     ---       #12
      ---         BLOCKEND  ---      ---       LVL=0

      01003D8FH   BLOCK     CODE     ---       LVL=0
      01003D8FH   LINE      CODE     ---       #16
      01003D8FH   LINE      CODE     ---       #17
      01003D8FH   LINE      CODE     ---       #18
      01003D91H   LINE      CODE     ---       #19
      01003D92H   LINE      CODE     ---       #20
      01003D95H   LINE      CODE     ---       #21
      01003D98H   LINE      CODE     ---       #22
      01003D9BH   LINE      CODE     ---       #23
      ---         BLOCKEND  ---      ---       LVL=0

      ---         MODULE    ---      ---       BATTVOLTDISPLAY
      0200000CH   PUBLIC    XDATA    FLOAT     Battery
      00000022H.7 PUBLIC    BIT      BIT       IsBatteryFault
      00000022H.6 PUBLIC    BIT      BIT       IsBatteryAlert
      00000056H   PUBLIC    DATA     BYTE      BattState
      02000002H   PUBLIC    XDATA    BYTE      VshowFSMState
      01001C03H   PUBLIC    CODE     ---       BatteryTelemHandler
      01001306H   PUBLIC    CODE     ---       BattDisplayTIM
      01003520H   PUBLIC    CODE     ---       DisplayVBattAtStart
      010038E4H   PUBLIC    CODE     ---       LowPowerStrobe
      01003B99H   PUBLIC    CODE     ---       TriggerVshowDisplay
      02000000H   SYMBOL    XDATA    INT       VshowTIM
      0100380DH   SYMBOL    CODE     ---       _VshowFSMGenTIMValue
      010011D1H   SYMBOL    CODE     ---       BatVshowFSM
      01003A60H   SYMBOL    CODE     ---       ResetBattAvg
      02000003H   SYMBOL    XDATA    ---       BattVolt
      00000057H   SYMBOL    DATA     CHAR      BattShowTimer
      01003B26H   SYMBOL    CODE     ---       SetPowerLEDBasedOnVbatt
      00000058H   SYMBOL    DATA     CHAR      LowVoltStrobeTIM
      010030E1H   SYMBOL    CODE     ---       _VshowGenerateSideStrobe
      0100232EH   SYMBOL    CODE     ---       BatteryStateFSM
      02000010H   SYMBOL    XDATA    FLOAT     VbattSample

      01002D58H   BLOCK     CODE     ---       LVL=0
      ---         BLOCKEND  ---      ---       LVL=0

      01003B99H   BLOCK     CODE     ---       LVL=0
      01003B99H   LINE      CODE     ---       #27
      01003B99H   LINE      CODE     ---       #28
      01003B99H   LINE      CODE     ---       #29
      01003B9FH   LINE      CODE     ---       #30
      01003BA1H   LINE      CODE     ---       #31
      01003BA6H   LINE      CODE     ---       #32
      01003BA6H   LINE      CODE     ---       #33
      01003BA9H   LINE      CODE     ---       #34
      01003BB1H   LINE      CODE     ---       #35
      01003BB1H   LINE      CODE     ---       #36
LX51 LINKER/LOCATER V4.66.97.0                                                        05/01/2025  09:54:43  PAGE 75


      ---         BLOCKEND  ---      ---       LVL=0

      010038E4H   BLOCK     CODE     ---       LVL=0
      010038E4H   LINE      CODE     ---       #39
      010038E4H   LINE      CODE     ---       #40
      010038E4H   LINE      CODE     ---       #42
      010038EFH   LINE      CODE     ---       #44
      010038F8H   LINE      CODE     ---       #45
      0100390CH   LINE      CODE     ---       #47
      0100390DH   LINE      CODE     ---       #48
      ---         BLOCKEND  ---      ---       LVL=0

      010030E1H   BLOCK     CODE     ---       LVL=0
      00000028H   SYMBOL    DATA     BYTE      Color
      00000029H   SYMBOL    DATA     BYTE      NextStep
      010030E1H   LINE      CODE     ---       #51
      010030E5H   LINE      CODE     ---       #52
      010030E5H   LINE      CODE     ---       #54
      010030F1H   LINE      CODE     ---       #55
      010030F1H   LINE      CODE     ---       #56
      010030F4H   LINE      CODE     ---       #57
      010030FBH   LINE      CODE     ---       #58
      010030FBH   LINE      CODE     ---       #60
      0100311EH   LINE      CODE     ---       #62
      01003129H   LINE      CODE     ---       #63
      01003129H   LINE      CODE     ---       #64
      0100312CH   LINE      CODE     ---       #65
      01003134H   LINE      CODE     ---       #66
      01003138H   LINE      CODE     ---       #67
      01003138H   LINE      CODE     ---       #68
      ---         BLOCKEND  ---      ---       LVL=0

      0100380DH   BLOCK     CODE     ---       LVL=0
      00000006H   SYMBOL    DATA     INT       Vsample
      00000005H   SYMBOL    DATA     BYTE      NextStep
      0100380DH   LINE      CODE     ---       #70
      0100380DH   LINE      CODE     ---       #71
      0100380DH   LINE      CODE     ---       #72
      01003812H   LINE      CODE     ---       #73
      0100381DH   LINE      CODE     ---       #74
      01003834H   LINE      CODE     ---       #75
      01003839H   LINE      CODE     ---       #76
      ---         BLOCKEND  ---      ---       LVL=0

      01003B26H   BLOCK     CODE     ---       LVL=0
      01003B26H   LINE      CODE     ---       #79
      01003B26H   LINE      CODE     ---       #80
      01003B26H   LINE      CODE     ---       #81
      01003B35H   LINE      CODE     ---       #82
      01003B35H   LINE      CODE     ---       #83
      01003B39H   LINE      CODE     ---       #84
      01003B3DH   LINE      CODE     ---       #85
      01003B41H   LINE      CODE     ---       #86
      01003B44H   LINE      CODE     ---       #87
      01003B44H   LINE      CODE     ---       #88
      ---         BLOCKEND  ---      ---       LVL=0

      010011D1H   BLOCK     CODE     ---       LVL=0
      010011D1H   LINE      CODE     ---       #91
      010011D1H   LINE      CODE     ---       #92
      010011D1H   LINE      CODE     ---       #94
      01001207H   LINE      CODE     ---       #95
      01001207H   LINE      CODE     ---       #96
      01001207H   LINE      CODE     ---       #97
      01001214H   LINE      CODE     ---       #98
LX51 LINKER/LOCATER V4.66.97.0                                                        05/01/2025  09:54:43  PAGE 76


      0100121CH   LINE      CODE     ---       #99
      01001220H   LINE      CODE     ---       #100
      01001221H   LINE      CODE     ---       #102
      01001221H   LINE      CODE     ---       #103
      01001238H   LINE      CODE     ---       #104
      01001248H   LINE      CODE     ---       #105
      01001258H   LINE      CODE     ---       #106
      0100125BH   LINE      CODE     ---       #108
      01001269H   LINE      CODE     ---       #109
      01001277H   LINE      CODE     ---       #110
      01001290H   LINE      CODE     ---       #111
      01001290H   LINE      CODE     ---       #112
      01001293H   LINE      CODE     ---       #113
      01001293H   LINE      CODE     ---       #114
      01001295H   LINE      CODE     ---       #115
      01001295H   LINE      CODE     ---       #116
      010012A2H   LINE      CODE     ---       #117
      010012A4H   LINE      CODE     ---       #119
      010012A4H   LINE      CODE     ---       #120
      010012A8H   LINE      CODE     ---       #121
      010012AAH   LINE      CODE     ---       #123
      010012AAH   LINE      CODE     ---       #124
      010012B6H   LINE      CODE     ---       #125
      010012B8H   LINE      CODE     ---       #127
      010012B8H   LINE      CODE     ---       #128
      010012BCH   LINE      CODE     ---       #129
      010012BEH   LINE      CODE     ---       #131
      010012BEH   LINE      CODE     ---       #132
      010012D6H   LINE      CODE     ---       #133
      010012D6H   LINE      CODE     ---       #135
      010012D6H   LINE      CODE     ---       #136
      010012DDH   LINE      CODE     ---       #137
      010012DDH   LINE      CODE     ---       #139
      010012DDH   LINE      CODE     ---       #140
      010012E2H   LINE      CODE     ---       #141
      010012EDH   LINE      CODE     ---       #142
      010012F3H   LINE      CODE     ---       #143
      010012F4H   LINE      CODE     ---       #145
      010012F4H   LINE      CODE     ---       #146
      010012FBH   LINE      CODE     ---       #147
      01001305H   LINE      CODE     ---       #148
      01001305H   LINE      CODE     ---       #149
      01001305H   LINE      CODE     ---       #150
      ---         BLOCKEND  ---      ---       LVL=0

      0100232EH   BLOCK     CODE     ---       LVL=0
      0100232EH   BLOCK     CODE     NEAR LAB  LVL=1
      00000028H   SYMBOL    DATA     FLOAT     Thres
      ---         BLOCKEND  ---      ---       LVL=1
      0100232EH   LINE      CODE     ---       #152
      0100232EH   LINE      CODE     ---       #153
      0100232EH   LINE      CODE     ---       #156
      01002340H   LINE      CODE     ---       #157
      0100234BH   LINE      CODE     ---       #159
      0100235AH   LINE      CODE     ---       #160
      0100235AH   LINE      CODE     ---       #162
      0100235AH   LINE      CODE     ---       #163
      0100236DH   LINE      CODE     ---       #164
      0100236EH   LINE      CODE     ---       #166
      0100236EH   LINE      CODE     ---       #167
      0100238EH   LINE      CODE     ---       #168
      01002396H   LINE      CODE     ---       #169
      01002398H   LINE      CODE     ---       #171
      01002398H   LINE      CODE     ---       #172
      010023AAH   LINE      CODE     ---       #173
LX51 LINKER/LOCATER V4.66.97.0                                                        05/01/2025  09:54:43  PAGE 77


      010023BBH   LINE      CODE     ---       #174
      010023BCH   LINE      CODE     ---       #176
      010023BCH   LINE      CODE     ---       #177
      010023C9H   LINE      CODE     ---       #178
      010023C9H   LINE      CODE     ---       #179
      010023C9H   LINE      CODE     ---       #180
      ---         BLOCKEND  ---      ---       LVL=0

      01003A60H   BLOCK     CODE     ---       LVL=0
      01003A60H   LINE      CODE     ---       #183
      01003A60H   LINE      CODE     ---       #184
      01003A60H   LINE      CODE     ---       #185
      01003A6AH   LINE      CODE     ---       #186
      01003A72H   LINE      CODE     ---       #187
      01003A77H   LINE      CODE     ---       #188
      01003A81H   LINE      CODE     ---       #189
      ---         BLOCKEND  ---      ---       LVL=0

      01003520H   BLOCK     CODE     ---       LVL=0
      01003520H   BLOCK     CODE     NEAR LAB  LVL=1
      00000024H   SYMBOL    DATA     CHAR      i
      ---         BLOCKEND  ---      ---       LVL=1
      01003520H   LINE      CODE     ---       #192
      01003520H   LINE      CODE     ---       #193
      01003520H   LINE      CODE     ---       #196
      01003523H   LINE      CODE     ---       #198
      01003528H   LINE      CODE     ---       #199
      0100353CH   LINE      CODE     ---       #200
      0100353CH   LINE      CODE     ---       #201
      0100353FH   LINE      CODE     ---       #202
      0100354DH   LINE      CODE     ---       #203
      01003550H   LINE      CODE     ---       #204
      01003554H   LINE      CODE     ---       #206
      01003559H   LINE      CODE     ---       #207
      0100355CH   LINE      CODE     ---       #208
      ---         BLOCKEND  ---      ---       LVL=0

      01001306H   BLOCK     CODE     ---       LVL=0
      01001306H   BLOCK     CODE     NEAR LAB  LVL=1
      00000024H   SYMBOL    DATA     LONG      buf
      ---         BLOCKEND  ---      ---       LVL=1
      01001306H   LINE      CODE     ---       #210
      01001306H   LINE      CODE     ---       #211
      01001306H   LINE      CODE     ---       #214
      01001313H   LINE      CODE     ---       #215
      01001313H   LINE      CODE     ---       #216
      01001330H   LINE      CODE     ---       #217
      01001336H   LINE      CODE     ---       #218
      0100134EH   LINE      CODE     ---       #219
      01001361H   LINE      CODE     ---       #220
      0100137AH   LINE      CODE     ---       #221
      0100137CH   LINE      CODE     ---       #223
      0100137CH   LINE      CODE     ---       #224
      010013BCH   LINE      CODE     ---       #225
      010013DBH   LINE      CODE     ---       #226
      010013F3H   LINE      CODE     ---       #227
      010013F6H   LINE      CODE     ---       #228
      010013F6H   LINE      CODE     ---       #230
      01001408H   LINE      CODE     ---       #231
      0100140EH   LINE      CODE     ---       #233
      01001426H   LINE      CODE     ---       #235
      0100142CH   LINE      CODE     ---       #236
      ---         BLOCKEND  ---      ---       LVL=0

      01001C03H   BLOCK     CODE     ---       LVL=0
LX51 LINKER/LOCATER V4.66.97.0                                                        05/01/2025  09:54:43  PAGE 78


      01001C03H   BLOCK     CODE     NEAR LAB  LVL=1
      00000024H   SYMBOL    DATA     INT       AlertThr
      00000026H   SYMBOL    DATA     INT       VBatt
      ---         BLOCKEND  ---      ---       LVL=1
      01001C03H   LINE      CODE     ---       #239
      01001C03H   LINE      CODE     ---       #240
      01001C03H   LINE      CODE     ---       #243
      01001C12H   LINE      CODE     ---       #244
      01001C1DH   LINE      CODE     ---       #245
      01001C31H   LINE      CODE     ---       #246
      01001C43H   LINE      CODE     ---       #247
      01001C4AH   LINE      CODE     ---       #248
      01001C86H   LINE      CODE     ---       #249
      01001C9CH   LINE      CODE     ---       #251
      01001C9FH   LINE      CODE     ---       #253
      01001CABH   LINE      CODE     ---       #254
      01001CB4H   LINE      CODE     ---       #255
      01001CBDH   LINE      CODE     ---       #256
      01001CCBH   LINE      CODE     ---       #257
      01001CD7H   LINE      CODE     ---       #258
      01001CDAH   LINE      CODE     ---       #259
      ---         BLOCKEND  ---      ---       LVL=0

      ---         MODULE    ---      ---       TEMPCONTROL
      00000021H.1 PUBLIC    BIT      BIT       IsForceLeaveTurbo
      00000020H.6 PUBLIC    BIT      BIT       IsDisableTurbo
      01002737H   PUBLIC    CODE     ---       ThermalMgmtProcess
      01002C78H   PUBLIC    CODE     ---       ShowThermalStepDown
      0100142DH   PUBLIC    CODE     ---       ThermalPILoopCalc
      01002DC5H   PUBLIC    CODE     ---       ThermalILIMCalc
      010032BEH   PUBLIC    CODE     ---       _RecalcPILoop
      01003CABH   SYMBOL    CODE     ---       QueryConstantTemp
      00000020H.7 SYMBOL    BIT      BIT       IsSystemShutDown
      00000021H.0 SYMBOL    BIT      BIT       IsTempLIMActive
      0000005BH   SYMBOL    DATA     CHAR      StepDownTIM
      00000021H.2 SYMBOL    BIT      BIT       IsThermalStepDown
      0100390EH   SYMBOL    CODE     ---       TempSchmittTrigger
      02000034H   SYMBOL    XDATA    INT       TempIntegral
      0000005CH   SYMBOL    DATA     BYTE      StepUpLockTIM
      02000036H   SYMBOL    XDATA    INT       TempProtBuf

      0100341EH   BLOCK     CODE     ---       LVL=0
      ---         BLOCKEND  ---      ---       LVL=0

      010032BEH   BLOCK     CODE     ---       LVL=0
      0000002DH   SYMBOL    DATA     INT       LastCurrent
      010032C2H   BLOCK     CODE     NEAR LAB  LVL=1
      00000006H   SYMBOL    DATA     INT       buf
      00000002H   SYMBOL    DATA     INT       ModeCur
      ---         BLOCKEND  ---      ---       LVL=1
      010032BEH   LINE      CODE     ---       #32
      010032C2H   LINE      CODE     ---       #33
      010032C2H   LINE      CODE     ---       #36
      010032CDH   LINE      CODE     ---       #38
      010032D3H   LINE      CODE     ---       #40
      010032E0H   LINE      CODE     ---       #41
      010032E5H   LINE      CODE     ---       #42
      010032E5H   LINE      CODE     ---       #43
      010032F5H   LINE      CODE     ---       #44
      01003304H   LINE      CODE     ---       #45
      01003307H   LINE      CODE     ---       #46
      ---         BLOCKEND  ---      ---       LVL=0

      01002DC5H   BLOCK     CODE     ---       LVL=0
      01002DC5H   BLOCK     CODE     NEAR LAB  LVL=1
LX51 LINKER/LOCATER V4.66.97.0                                                        05/01/2025  09:54:43  PAGE 79


      00000006H   SYMBOL    DATA     INT       result
      ---         BLOCKEND  ---      ---       LVL=1
      01002DC5H   LINE      CODE     ---       #49
      01002DC5H   LINE      CODE     ---       #50
      01002DC5H   LINE      CODE     ---       #53
      01002DD2H   LINE      CODE     ---       #56
      01002DD2H   LINE      CODE     ---       #57
      01002DE1H   LINE      CODE     ---       #58
      01002DEBH   LINE      CODE     ---       #59
      01002DF8H   LINE      CODE     ---       #60
      01002E03H   LINE      CODE     ---       #61
      01002E03H   LINE      CODE     ---       #62
      01002E15H   LINE      CODE     ---       #63
      01002E18H   LINE      CODE     ---       #64
      01002E1CH   LINE      CODE     ---       #65
      01002E1CH   LINE      CODE     ---       #66
      01002E1CH   LINE      CODE     ---       #68
      01002E2EH   LINE      CODE     ---       #69
      01002E2EH   LINE      CODE     ---       #70
      ---         BLOCKEND  ---      ---       LVL=0

      01003CABH   BLOCK     CODE     ---       LVL=0
      01003CABH   LINE      CODE     ---       #72
      01003CABH   LINE      CODE     ---       #73
      01003CABH   LINE      CODE     ---       #75
      01003CBDH   LINE      CODE     ---       #76
      ---         BLOCKEND  ---      ---       LVL=0

      0100142DH   BLOCK     CODE     ---       LVL=0
      0100142DH   BLOCK     CODE     NEAR LAB  LVL=1
      00000024H   SYMBOL    DATA     INT       ProtFact
      00000026H   SYMBOL    DATA     INT       Err
      ---         BLOCKEND  ---      ---       LVL=1
      0100142DH   LINE      CODE     ---       #79
      0100142DH   LINE      CODE     ---       #80
      0100142DH   LINE      CODE     ---       #83
      01001430H   LINE      CODE     ---       #84
      01001430H   LINE      CODE     ---       #85
      01001433H   LINE      CODE     ---       #86
      01001437H   LINE      CODE     ---       #87
      01001439H   LINE      CODE     ---       #88
      0100143AH   LINE      CODE     ---       #90
      0100144CH   LINE      CODE     ---       #91
      0100144CH   LINE      CODE     ---       #93
      01001453H   LINE      CODE     ---       #95
      0100145CH   LINE      CODE     ---       #96
      0100145CH   LINE      CODE     ---       #98
      01001468H   LINE      CODE     ---       #100
      0100146BH   LINE      CODE     ---       #101
      01001478H   LINE      CODE     ---       #102
      01001478H   LINE      CODE     ---       #103
      0100148BH   LINE      CODE     ---       #104
      010014A7H   LINE      CODE     ---       #105
      010014BEH   LINE      CODE     ---       #106
      010014E1H   LINE      CODE     ---       #107
      010014E4H   LINE      CODE     ---       #108
      010014E4H   LINE      CODE     ---       #110
      010014F7H   LINE      CODE     ---       #111
      010014F8H   LINE      CODE     ---       #113
      010014FEH   LINE      CODE     ---       #114
      010014FEH   LINE      CODE     ---       #116
      0100150BH   LINE      CODE     ---       #118
      01001513H   LINE      CODE     ---       #120
      01001513H   LINE      CODE     ---       #121
      01001528H   LINE      CODE     ---       #122
LX51 LINKER/LOCATER V4.66.97.0                                                        05/01/2025  09:54:43  PAGE 80


      01001534H   LINE      CODE     ---       #123
      01001534H   LINE      CODE     ---       #125
      0100154EH   LINE      CODE     ---       #126
      0100154EH   LINE      CODE     ---       #127
      0100154EH   LINE      CODE     ---       #128
      ---         BLOCKEND  ---      ---       LVL=0

      01002C78H   BLOCK     CODE     ---       LVL=0
      01002C78H   BLOCK     CODE     NEAR LAB  LVL=1
      00000024H   SYMBOL    DATA     BYTE      Reason
      ---         BLOCKEND  ---      ---       LVL=1
      01002C78H   LINE      CODE     ---       #130
      01002C78H   LINE      CODE     ---       #131
      01002C78H   LINE      CODE     ---       #134
      01002C80H   LINE      CODE     ---       #135
      01002C88H   LINE      CODE     ---       #136
      01002CAFH   LINE      CODE     ---       #137
      01002CB2H   LINE      CODE     ---       #139
      01002CBEH   LINE      CODE     ---       #140
      01002CBEH   LINE      CODE     ---       #141
      01002CC3H   LINE      CODE     ---       #142
      01002CC3H   LINE      CODE     ---       #144
      01002CD0H   LINE      CODE     ---       #145
      01002CD0H   LINE      CODE     ---       #146
      01002CD2H   LINE      CODE     ---       #147
      01002CD4H   LINE      CODE     ---       #148
      01002CD4H   LINE      CODE     ---       #149
      01002CD4H   LINE      CODE     ---       #150
      01002CD6H   LINE      CODE     ---       #151
      01002CE3H   LINE      CODE     ---       #152
      01002CE3H   LINE      CODE     ---       #153
      01002CE5H   LINE      CODE     ---       #154
      01002CE7H   LINE      CODE     ---       #155
      01002CE7H   LINE      CODE     ---       #156
      01002CE7H   LINE      CODE     ---       #157
      01002CE7H   LINE      CODE     ---       #159
      01002CE8H   LINE      CODE     ---       #160
      ---         BLOCKEND  ---      ---       LVL=0

      0100390EH   BLOCK     CODE     ---       LVL=0
      00000020H.2 SYMBOL    BIT      BIT       ValueIN
      00000024H   SYMBOL    DATA     CHAR      HighThreshold
      00000025H   SYMBOL    DATA     CHAR      LowThreshold
      0100390EH   LINE      CODE     ---       #163
      0100390EH   LINE      CODE     ---       #164
      0100390EH   LINE      CODE     ---       #165
      01003921H   LINE      CODE     ---       #166
      01003934H   LINE      CODE     ---       #168
      01003936H   LINE      CODE     ---       #169
      ---         BLOCKEND  ---      ---       LVL=0

      01002737H   BLOCK     CODE     ---       LVL=0
      01002737H   BLOCK     CODE     NEAR LAB  LVL=1
      00000020H.1 SYMBOL    BIT      BIT       ThermalStatus
      ---         BLOCKEND  ---      ---       LVL=1
      01002737H   LINE      CODE     ---       #172
      01002737H   LINE      CODE     ---       #173
      01002737H   LINE      CODE     ---       #176
      0100273BH   LINE      CODE     ---       #177
      0100273BH   LINE      CODE     ---       #178
      01002740H   LINE      CODE     ---       #180
      01002740H   LINE      CODE     ---       #182
      0100274FH   LINE      CODE     ---       #183
      0100275EH   LINE      CODE     ---       #185
      0100276DH   LINE      CODE     ---       #186
LX51 LINKER/LOCATER V4.66.97.0                                                        05/01/2025  09:54:43  PAGE 81


      01002777H   LINE      CODE     ---       #187
      01002782H   LINE      CODE     ---       #189
      01002790H   LINE      CODE     ---       #191
      01002790H   LINE      CODE     ---       #192
      010027A1H   LINE      CODE     ---       #193
      010027A7H   LINE      CODE     ---       #194
      010027BDH   LINE      CODE     ---       #195
      010027BDH   LINE      CODE     ---       #196
      ---         BLOCKEND  ---      ---       LVL=0

      ---         MODULE    ---      ---       SLEEP
      0000005DH   PUBLIC    DATA     INT       SleepTimer
      01002E2FH   PUBLIC    CODE     ---       SleepMgmt
      01003C97H   PUBLIC    CODE     ---       LoadSleepTimer
      00000020H.2 PUBLIC    BIT      BIT       ?SystemPeripheralCTRL?BIT
      01003AC5H   PUBLIC    CODE     ---       SystemPeripheralCTRL
      000000C8H.0 SFRSYM    DATA     BIT       T2I0
      000000C3H   SFRSYM    DATA     BYTE      CCH1
      00000080H   SFRSYM    DATA     BYTE      P0
      000000C8H.1 SFRSYM    DATA     BIT       T2I1
      000000C5H   SFRSYM    DATA     BYTE      CCH2
      00000090H   SFRSYM    DATA     BYTE      P1
      000000C7H   SFRSYM    DATA     BYTE      CCH3
      000000ACH   SFRSYM    DATA     BYTE      P0EXTIE
      000000A0H   SFRSYM    DATA     BYTE      P2
      000000B4H   SFRSYM    DATA     BYTE      P0EXTIF
      000000B0H   SFRSYM    DATA     BYTE      P3
      000000ADH   SFRSYM    DATA     BYTE      P1EXTIE
      000000D0H.6 SFRSYM    DATA     BIT       AC
      000000FFH   SFRSYM    DATA     BYTE      MCTRL
      000000C2H   SFRSYM    DATA     BYTE      CCL1
      000000B5H   SFRSYM    DATA     BYTE      P1EXTIF
      000000AEH   SFRSYM    DATA     BYTE      P2EXTIE
      000000C4H   SFRSYM    DATA     BYTE      CCL2
      000000B6H   SFRSYM    DATA     BYTE      P2EXTIF
      000000AFH   SFRSYM    DATA     BYTE      P3EXTIE
      000000A8H.7 SFRSYM    DATA     BIT       EA
      000000C6H   SFRSYM    DATA     BYTE      CCL3
      000000B7H   SFRSYM    DATA     BYTE      P3EXTIF
      000000AAH   SFRSYM    DATA     BYTE      EIE2
      000000B2H   SFRSYM    DATA     BYTE      EIF2
      000000C8H.3 SFRSYM    DATA     BIT       T2R0
      000000C8H.4 SFRSYM    DATA     BIT       T2R1
      00000083H   SFRSYM    DATA     BYTE      DPH0
      000000A8H   SFRSYM    DATA     BYTE      IE
      00000085H   SFRSYM    DATA     BYTE      DPH1
      000000B9H   SFRSYM    DATA     BYTE      EIP1
      000000BAH   SFRSYM    DATA     BYTE      EIP2
      00000082H   SFRSYM    DATA     BYTE      DPL0
      00000084H   SFRSYM    DATA     BYTE      DPL1
      000000C8H.6 SFRSYM    DATA     BIT       I3FR
      000000CFH   SFRSYM    DATA     BYTE      T2IE
      00000096H   SFRSYM    DATA     BYTE      TA
      000000C9H   SFRSYM    DATA     BYTE      T2IF
      000000C8H.2 SFRSYM    DATA     BIT       T2CM
      000000DFH   SFRSYM    DATA     BYTE      ADCON0
      000000DEH   SFRSYM    DATA     BYTE      ADCON1
      000000E9H   SFRSYM    DATA     BYTE      ADCON2
      000000B8H   SFRSYM    DATA     BYTE      IP
      000000CEH   SFRSYM    DATA     BYTE      CCEN
      000000D0H.7 SFRSYM    DATA     BIT       CY
      000000D2H   SFRSYM    DATA     BYTE      T34MOD
      00000093H   SFRSYM    DATA     BYTE      DPX0
      00000095H   SFRSYM    DATA     BYTE      DPX1
      000000F4H   SFRSYM    DATA     BYTE      I2CMSA
LX51 LINKER/LOCATER V4.66.97.0                                                        05/01/2025  09:54:43  PAGE 82


      000000F5H   SFRSYM    DATA     BYTE      I2CMCR
      00000081H   SFRSYM    DATA     BYTE      SP
      000000D0H.2 SFRSYM    DATA     BIT       OV
      000000F2H   SFRSYM    DATA     BYTE      I2CSCR
      000000C8H.7 SFRSYM    DATA     BIT       T2PS
      000000D1H   SFRSYM    DATA     BYTE      ADCMPC
      000000CBH   SFRSYM    DATA     BYTE      RLDH
      000000D5H   SFRSYM    DATA     BYTE      ADCMPH
      000000CAH   SFRSYM    DATA     BYTE      RLDL
      00000080H.0 SFRSYM    DATA     BIT       P00
      00000090H.0 SFRSYM    DATA     BIT       P10
      00000080H.1 SFRSYM    DATA     BIT       P01
      000000F7H   SFRSYM    DATA     BYTE      I2CMTP
      00000099H   SFRSYM    DATA     BYTE      SBUF
      00000087H   SFRSYM    DATA     BYTE      PCON
      000000A0H.0 SFRSYM    DATA     BIT       P20
      00000090H.1 SFRSYM    DATA     BIT       P11
      00000080H.2 SFRSYM    DATA     BIT       P02
      000000F5H   SFRSYM    DATA     BYTE      I2CMSR
      000000B0H.0 SFRSYM    DATA     BIT       P30
      000000A0H.1 SFRSYM    DATA     BIT       P21
      00000090H.2 SFRSYM    DATA     BIT       P12
      00000080H.3 SFRSYM    DATA     BIT       P03
      000000D4H   SFRSYM    DATA     BYTE      ADCMPL
      000000B0H.1 SFRSYM    DATA     BIT       P31
      000000A0H.2 SFRSYM    DATA     BIT       P22
      00000090H.3 SFRSYM    DATA     BIT       P13
      00000080H.4 SFRSYM    DATA     BIT       P04
      000000B0H.2 SFRSYM    DATA     BIT       P32
      000000A0H.3 SFRSYM    DATA     BIT       P23
      00000090H.4 SFRSYM    DATA     BIT       P14
      00000080H.5 SFRSYM    DATA     BIT       P05
      00000089H   SFRSYM    DATA     BYTE      TMOD
      00000088H   SFRSYM    DATA     BYTE      TCON
      000000B0H.3 SFRSYM    DATA     BIT       P33
      000000A0H.4 SFRSYM    DATA     BIT       P24
      00000090H.5 SFRSYM    DATA     BIT       P15
      00000080H.6 SFRSYM    DATA     BIT       P06
      000000B0H.4 SFRSYM    DATA     BIT       P34
      000000A0H.5 SFRSYM    DATA     BIT       P25
      00000090H.6 SFRSYM    DATA     BIT       P16
      00000080H.7 SFRSYM    DATA     BIT       P07
      000000B0H.5 SFRSYM    DATA     BIT       P35
      000000A0H.6 SFRSYM    DATA     BIT       P26
      00000090H.7 SFRSYM    DATA     BIT       P17
      000000F2H   SFRSYM    DATA     BYTE      I2CSSR
      000000B0H.6 SFRSYM    DATA     BIT       P36
      000000A0H.7 SFRSYM    DATA     BIT       P27
      000000ECH   SFRSYM    DATA     BYTE      SPCR
      000000DDH   SFRSYM    DATA     BYTE      ADRESH
      000000B0H.7 SFRSYM    DATA     BIT       P37
      000000EEH   SFRSYM    DATA     BYTE      SPDR
      000000EFH   SFRSYM    DATA     BYTE      SSCR
      000000D3H   SFRSYM    DATA     BYTE      ADDLYL
      000000DCH   SFRSYM    DATA     BYTE      ADRESL
      00000088H.1 SFRSYM    DATA     BIT       IE0
      00000088H.3 SFRSYM    DATA     BIT       IE1
      0000008FH   SFRSYM    DATA     BYTE      CLKDIV
      000000F0H   SFRSYM    DATA     BYTE      B
      00000091H   SFRSYM    DATA     BYTE      FUNCCR
      0000009AH   SFRSYM    DATA     BYTE      P0TRIS
      000000A1H   SFRSYM    DATA     BYTE      P1TRIS
      000000A2H   SFRSYM    DATA     BYTE      P2TRIS
      000000E0H   SFRSYM    DATA     BYTE      ACC
      000000A3H   SFRSYM    DATA     BYTE      P3TRIS
LX51 LINKER/LOCATER V4.66.97.0                                                        05/01/2025  09:54:43  PAGE 83


      000000A8H.4 SFRSYM    DATA     BIT       ES0
      000000A8H.6 SFRSYM    DATA     BIT       ES1
      000000A8H.1 SFRSYM    DATA     BIT       ET0
      000000EDH   SFRSYM    DATA     BYTE      SPSR
      000000A8H.3 SFRSYM    DATA     BIT       ET1
      00000088H.5 SFRSYM    DATA     BIT       TF0
      000000A8H.5 SFRSYM    DATA     BIT       ET2
      00000098H.0 SFRSYM    DATA     BIT       RI0
      00000088H.7 SFRSYM    DATA     BIT       TF1
      0000008CH   SFRSYM    DATA     BYTE      TH0
      000000A8H.0 SFRSYM    DATA     BIT       EX0
      00000098H.1 SFRSYM    DATA     BIT       TI0
      00000088H.0 SFRSYM    DATA     BIT       IT0
      0000008DH   SFRSYM    DATA     BYTE      TH1
      000000A8H.2 SFRSYM    DATA     BIT       EX1
      00000088H.2 SFRSYM    DATA     BIT       IT1
      000000CDH   SFRSYM    DATA     BYTE      TH2
      000000D0H.0 SFRSYM    DATA     BIT       P
      000000DBH   SFRSYM    DATA     BYTE      TH3
      000000E3H   SFRSYM    DATA     BYTE      TH4
      0000008AH   SFRSYM    DATA     BYTE      TL0
      0000008BH   SFRSYM    DATA     BYTE      TL1
      00000098H.2 SFRSYM    DATA     BIT       U0RB8
      000000CCH   SFRSYM    DATA     BYTE      TL2
      000000B8H.4 SFRSYM    DATA     BIT       PS0
      000000DAH   SFRSYM    DATA     BYTE      TL3
      000000BFH   SFRSYM    DATA     BYTE      BUZCON
      000000B8H.6 SFRSYM    DATA     BIT       PS1
      000000B8H.1 SFRSYM    DATA     BIT       PT0
      00000098H.3 SFRSYM    DATA     BIT       U0TB8
      000000E2H   SFRSYM    DATA     BYTE      TL4
      000000D0H.3 SFRSYM    DATA     BIT       RS0
      000000B8H.3 SFRSYM    DATA     BIT       PT1
      000000D0H.4 SFRSYM    DATA     BIT       RS1
      000000B8H.5 SFRSYM    DATA     BIT       PT2
      00000098H.7 SFRSYM    DATA     BIT       U0SM0
      00000088H.4 SFRSYM    DATA     BIT       TR0
      000000BEH   SFRSYM    DATA     BYTE      BUZDIV
      00000098H.6 SFRSYM    DATA     BIT       U0SM1
      00000088H.6 SFRSYM    DATA     BIT       TR1
      000000B8H.0 SFRSYM    DATA     BIT       PX0
      00000098H.5 SFRSYM    DATA     BIT       U0SM2
      000000B8H.2 SFRSYM    DATA     BIT       PX1
      000000BDH   SFRSYM    DATA     BYTE      WUTCRH
      00000099H   SFRSYM    DATA     BYTE      SBUF0
      000000EBH   SFRSYM    DATA     BYTE      SBUF1
      000000BCH   SFRSYM    DATA     BYTE      WUTCRL
      00000098H   SFRSYM    DATA     BYTE      SCON0
      000000EAH   SFRSYM    DATA     BYTE      SCON1
      000000C8H   SFRSYM    DATA     BYTE      T2CON
      00000086H   SFRSYM    DATA     BYTE      DPS
      000000FEH   SFRSYM    DATA     BYTE      MDATA
      000000F6H   SFRSYM    DATA     BYTE      I2CMBUF
      000000F1H   SFRSYM    DATA     BYTE      I2CSADR
      00000098H.4 SFRSYM    DATA     BIT       U0REN
      000000C8H.5 SFRSYM    DATA     BIT       CAPES
      000000FDH   SFRSYM    DATA     BYTE      MADRH
      0000008EH   SFRSYM    DATA     BYTE      CKCON
      000000F3H   SFRSYM    DATA     BYTE      I2CSBUF
      000000FCH   SFRSYM    DATA     BYTE      MADRL
      000000D0H.5 SFRSYM    DATA     BIT       F0
      000000FBH   SFRSYM    DATA     BYTE      MLOCK
      000000D0H   SFRSYM    DATA     BYTE      PSW
      00000097H   SFRSYM    DATA     BYTE      WDCON
      01003A82H   SYMBOL    CODE     ---       QueryIsSystemNotAllowToSleep
LX51 LINKER/LOCATER V4.66.97.0                                                        05/01/2025  09:54:43  PAGE 84



      01003DBDH   BLOCK     CODE     ---       LVL=0
      ---         BLOCKEND  ---      ---       LVL=0

      01003AC5H   BLOCK     CODE     ---       LVL=0
      00000020H.2 SYMBOL    BIT      BIT       IsEnable
      01003AC5H   LINE      CODE     ---       #18
      01003AC5H   LINE      CODE     ---       #19
      01003AC5H   LINE      CODE     ---       #20
      01003AC8H   LINE      CODE     ---       #21
      01003AC8H   LINE      CODE     ---       #22
      01003ACBH   LINE      CODE     ---       #23
      01003ACEH   LINE      CODE     ---       #24
      01003AD1H   LINE      CODE     ---       #25
      01003AD4H   LINE      CODE     ---       #27
      01003AD4H   LINE      CODE     ---       #29
      01003AD9H   LINE      CODE     ---       #30
      01003ADCH   LINE      CODE     ---       #31
      01003ADFH   LINE      CODE     ---       #32
      01003AE2H   LINE      CODE     ---       #33
      01003AE5H   LINE      CODE     ---       #34
      ---         BLOCKEND  ---      ---       LVL=0

      01003C97H   BLOCK     CODE     ---       LVL=0
      01003C97H   LINE      CODE     ---       #37
      01003C97H   LINE      CODE     ---       #38
      01003C97H   LINE      CODE     ---       #40
      01003CAAH   LINE      CODE     ---       #41
      ---         BLOCKEND  ---      ---       LVL=0

      01003A82H   BLOCK     CODE     ---       LVL=0
      01003A82H   LINE      CODE     ---       #44
      01003A82H   LINE      CODE     ---       #45
      01003A82H   LINE      CODE     ---       #47
      01003A8BH   LINE      CODE     ---       #49
      01003A94H   LINE      CODE     ---       #51
      01003AA3H   LINE      CODE     ---       #53
      01003AA3H   LINE      CODE     ---       #54
      ---         BLOCKEND  ---      ---       LVL=0

      01002E2FH   BLOCK     CODE     ---       LVL=0
      01002E2FH   BLOCK     CODE     NEAR LAB  LVL=1
      00000020H.1 SYMBOL    BIT      BIT       sleepsel
      ---         BLOCKEND  ---      ---       LVL=1
      01002E2FH   LINE      CODE     ---       #57
      01002E2FH   LINE      CODE     ---       #58
      01002E2FH   LINE      CODE     ---       #61
      01002E38H   LINE      CODE     ---       #63
      01002E4EH   LINE      CODE     ---       #66
      01002E4EH   LINE      CODE     ---       #67
      01002E56H   LINE      CODE     ---       #68
      01002E5BH   LINE      CODE     ---       #69
      01002E60H   LINE      CODE     ---       #70
      01002E66H   LINE      CODE     ---       #72
      01002E69H   LINE      CODE     ---       #73
      01002E6EH   LINE      CODE     ---       #74
      01002E71H   LINE      CODE     ---       #76
      01002E71H   LINE      CODE     ---       #77
      01002E78H   LINE      CODE     ---       #78
      01002E7BH   LINE      CODE     ---       #80
      01002E7EH   LINE      CODE     ---       #81
      01002E80H   LINE      CODE     ---       #82
      01002E82H   LINE      CODE     ---       #83
      01002E88H   LINE      CODE     ---       #84
      01002E88H   LINE      CODE     ---       #85
LX51 LINKER/LOCATER V4.66.97.0                                                        05/01/2025  09:54:43  PAGE 85


      01002E8DH   LINE      CODE     ---       #87
      01002E92H   LINE      CODE     ---       #89
      01002E97H   LINE      CODE     ---       #90
      01002E97H   LINE      CODE     ---       #91
      ---         BLOCKEND  ---      ---       LVL=0

      ---         MODULE    ---      ---       MODECONTROL
      0000004DH   PUBLIC    DATA     ---       CurrentMode
      00000044H   PUBLIC    DATA     ---       SysCfg
      0200003AH   PUBLIC    XDATA    CHAR      HoldChangeGearTIM
      02000039H   PUBLIC    XDATA    BYTE      LastMode
      02000038H   PUBLIC    XDATA    CHAR      DisplayLockedTIM
      00000022H.4 PUBLIC    BIT      BIT       IsRampEnabled
      01003F77H   PUBLIC    CONST    ---       ModeSettings
      01000740H   PUBLIC    CODE     ---       ModeSwitchFSM
      01002F00H   PUBLIC    CODE     ---       HoldSwitchGearCmdHandler
      01003BB2H   PUBLIC    CODE     ---       ReturnToOFFState
      01002A2FH   PUBLIC    CODE     ---       _SwitchToGear
      01003937H   PUBLIC    CODE     ---       ModeFSMTIMHandler
      01001DA6H   PUBLIC    CODE     ---       ModeFSMInit
      01003D67H   SYMBOL    CODE     ---       _SideKey1HRevGearHandler
      00000022H.5 SYMBOL    BIT      BIT       IsNotifyMaxRampLimitReached
      010037B1H   SYMBOL    CODE     ---       _DetectIfNeedsOFF
      0200003BH   SYMBOL    XDATA    CHAR      RampDIVCNT
      01001A34H   SYMBOL    CODE     ---       RampAdjHandler
      01003C57H   SYMBOL    CODE     ---       _SideKeySwitchGearHandler

      01002E98H   BLOCK     CODE     ---       LVL=0
      ---         BLOCKEND  ---      ---       LVL=0

      01001DA6H   BLOCK     CODE     ---       LVL=0
      01001DA6H   BLOCK     CODE     NEAR LAB  LVL=1
      00000007H   SYMBOL    DATA     CHAR      i
      ---         BLOCKEND  ---      ---       LVL=1
      01001DA6H   LINE      CODE     ---       #180
      01001DA6H   LINE      CODE     ---       #181
      01001DA6H   LINE      CODE     ---       #184
      01001DA9H   LINE      CODE     ---       #185
      01001DACH   LINE      CODE     ---       #186
      01001DC2H   LINE      CODE     ---       #187
      01001DC2H   LINE      CODE     ---       #189
      01001DEFH   LINE      CODE     ---       #191
      01001DF5H   LINE      CODE     ---       #192
      01001DF5H   LINE      CODE     ---       #193
      01001E08H   LINE      CODE     ---       #194
      01001E15H   LINE      CODE     ---       #196
      01001E32H   LINE      CODE     ---       #197
      01001E44H   LINE      CODE     ---       #198
      01001E44H   LINE      CODE     ---       #199
      01001E48H   LINE      CODE     ---       #201
      01001E4EH   LINE      CODE     ---       #203
      01001E51H   LINE      CODE     ---       #204
      01001E57H   LINE      CODE     ---       #205
      01001E5CH   LINE      CODE     ---       #206
      01001E65H   LINE      CODE     ---       #207
      ---         BLOCKEND  ---      ---       LVL=0

      01003937H   BLOCK     CODE     ---       LVL=0
      01003937H   LINE      CODE     ---       #210
      01003937H   LINE      CODE     ---       #211
      01003937H   LINE      CODE     ---       #213
      01003947H   LINE      CODE     ---       #214
      0100394FH   LINE      CODE     ---       #215
      0100394FH   LINE      CODE     ---       #216
      01003952H   LINE      CODE     ---       #217
LX51 LINKER/LOCATER V4.66.97.0                                                        05/01/2025  09:54:43  PAGE 86


      01003954H   LINE      CODE     ---       #218
      01003954H   LINE      CODE     ---       #220
      0100395FH   LINE      CODE     ---       #221
      ---         BLOCKEND  ---      ---       LVL=0

      01002A2FH   BLOCK     CODE     ---       LVL=0
      00000028H   SYMBOL    DATA     BYTE      TargetMode
      01002A31H   BLOCK     CODE     NEAR LAB  LVL=1
      00000029H   SYMBOL    DATA     CHAR      i
      0000002AH   SYMBOL    DATA     INT       LastICC
      0000002CH   SYMBOL    DATA     BYTE      BeforeMode
      ---         BLOCKEND  ---      ---       LVL=1
      01002A2FH   LINE      CODE     ---       #224
      01002A31H   LINE      CODE     ---       #225
      01002A31H   LINE      CODE     ---       #229
      01002A36H   LINE      CODE     ---       #230
      01002A3EH   LINE      CODE     ---       #232
      01002A61H   LINE      CODE     ---       #233
      01002A61H   LINE      CODE     ---       #234
      01002A64H   LINE      CODE     ---       #235
      01002A67H   LINE      CODE     ---       #236
      01002A6AH   LINE      CODE     ---       #237
      01002A86H   LINE      CODE     ---       #238
      01002A8FH   LINE      CODE     ---       #239
      01002AA2H   LINE      CODE     ---       #240
      01002AA6H   LINE      CODE     ---       #241
      ---         BLOCKEND  ---      ---       LVL=0

      01003BB2H   BLOCK     CODE     ---       LVL=0
      01003BB2H   LINE      CODE     ---       #244
      01003BB2H   LINE      CODE     ---       #245
      01003BB2H   LINE      CODE     ---       #246
      01003BB8H   LINE      CODE     ---       #247
      01003BC5H   LINE      CODE     ---       #248
      01003BCAH   LINE      CODE     ---       #249
      ---         BLOCKEND  ---      ---       LVL=0

      01002F00H   BLOCK     CODE     ---       LVL=0
      01002F00H   BLOCK     CODE     NEAR LAB  LVL=1
      00000024H   SYMBOL    DATA     CHAR      buf
      ---         BLOCKEND  ---      ---       LVL=1
      01002F00H   LINE      CODE     ---       #252
      01002F00H   LINE      CODE     ---       #253
      01002F00H   LINE      CODE     ---       #255
      01002F09H   LINE      CODE     ---       #256
      01002F19H   LINE      CODE     ---       #258
      01002F19H   LINE      CODE     ---       #259
      01002F22H   LINE      CODE     ---       #260
      01002F3FH   LINE      CODE     ---       #261
      01002F46H   LINE      CODE     ---       #262
      01002F5CH   LINE      CODE     ---       #263
      01002F5FH   LINE      CODE     ---       #264
      01002F66H   LINE      CODE     ---       #265
      01002F66H   LINE      CODE     ---       #266
      ---         BLOCKEND  ---      ---       LVL=0

      01003C57H   BLOCK     CODE     ---       LVL=0
      00000003H   SYMBOL    DATA     BYTE      TargetMode
      01003C57H   LINE      CODE     ---       #269
      01003C57H   LINE      CODE     ---       #270
      01003C57H   LINE      CODE     ---       #271
      01003C65H   LINE      CODE     ---       #272
      01003C69H   LINE      CODE     ---       #273
      01003C6CH   LINE      CODE     ---       #274
      ---         BLOCKEND  ---      ---       LVL=0
LX51 LINKER/LOCATER V4.66.97.0                                                        05/01/2025  09:54:43  PAGE 87



      01003D67H   BLOCK     CODE     ---       LVL=0
      00000005H   SYMBOL    DATA     BYTE      TargetMode
      01003D67H   LINE      CODE     ---       #277
      01003D67H   LINE      CODE     ---       #278
      01003D67H   LINE      CODE     ---       #279
      01003D6EH   LINE      CODE     ---       #280
      01003D71H   LINE      CODE     ---       #281
      01003D74H   LINE      CODE     ---       #282
      ---         BLOCKEND  ---      ---       LVL=0

      01001A34H   BLOCK     CODE     ---       LVL=0
      01001A34H   BLOCK     CODE     NEAR LAB  LVL=1
      00000022H.3 SYMBOL    BIT      BIT       IsKeyPressed
      00000025H   SYMBOL    DATA     INT       Limit
      00000020H.1 SYMBOL    BIT      BIT       IsPress
      ---         BLOCKEND  ---      ---       LVL=1
      01001A34H   LINE      CODE     ---       #285
      01001A34H   LINE      CODE     ---       #286
      01001A34H   LINE      CODE     ---       #291
      01001A44H   LINE      CODE     ---       #292
      01001A69H   LINE      CODE     ---       #293
      01001A8BH   LINE      CODE     ---       #295
      01001A93H   LINE      CODE     ---       #296
      01001A93H   LINE      CODE     ---       #297
      01001A9AH   LINE      CODE     ---       #299
      01001A9AH   LINE      CODE     ---       #301
      01001AAAH   LINE      CODE     ---       #303
      01001AAAH   LINE      CODE     ---       #304
      01001AACH   LINE      CODE     ---       #305
      01001AAFH   LINE      CODE     ---       #306
      01001AB5H   LINE      CODE     ---       #307
      01001AB7H   LINE      CODE     ---       #308
      01001AB7H   LINE      CODE     ---       #310
      01001AB7H   LINE      CODE     ---       #311
      01001AB7H   LINE      CODE     ---       #312
      01001AB9H   LINE      CODE     ---       #313
      01001AC1H   LINE      CODE     ---       #314
      01001AC1H   LINE      CODE     ---       #315
      01001ACBH   LINE      CODE     ---       #317
      01001ACBH   LINE      CODE     ---       #318
      01001AE7H   LINE      CODE     ---       #320
      01001AE7H   LINE      CODE     ---       #321
      01001AE9H   LINE      CODE     ---       #322
      01001AECH   LINE      CODE     ---       #323
      01001AF0H   LINE      CODE     ---       #324
      01001AF2H   LINE      CODE     ---       #325
      01001AF2H   LINE      CODE     ---       #327
      01001AF2H   LINE      CODE     ---       #328
      01001AF2H   LINE      CODE     ---       #329
      01001AF4H   LINE      CODE     ---       #330
      01001AFAH   LINE      CODE     ---       #331
      01001AFAH   LINE      CODE     ---       #332
      01001AFCH   LINE      CODE     ---       #333
      01001B02H   LINE      CODE     ---       #334
      01001B02H   LINE      CODE     ---       #336
      01001B09H   LINE      CODE     ---       #337
      01001B16H   LINE      CODE     ---       #338
      01001B16H   LINE      CODE     ---       #339
      01001B18H   LINE      CODE     ---       #340
      01001B1DH   LINE      CODE     ---       #341
      01001B1DH   LINE      CODE     ---       #342
      ---         BLOCKEND  ---      ---       LVL=0

      010037B1H   BLOCK     CODE     ---       LVL=0
LX51 LINKER/LOCATER V4.66.97.0                                                        05/01/2025  09:54:43  PAGE 88


      00000025H   SYMBOL    DATA     INT       ClickCount
      010037B1H   LINE      CODE     ---       #345
      010037B5H   LINE      CODE     ---       #346
      010037B5H   LINE      CODE     ---       #347
      010037C6H   LINE      CODE     ---       #348
      010037D2H   LINE      CODE     ---       #349
      010037DBH   LINE      CODE     ---       #350
      010037DEH   LINE      CODE     ---       #351
      ---         BLOCKEND  ---      ---       LVL=0

      01000740H   BLOCK     CODE     ---       LVL=0
      01000740H   BLOCK     CODE     NEAR LAB  LVL=1
      00000024H   SYMBOL    DATA     CHAR      ClickCount
      ---         BLOCKEND  ---      ---       LVL=1
      01000740H   LINE      CODE     ---       #354
      01000740H   LINE      CODE     ---       #355
      01000740H   LINE      CODE     ---       #358
      01000748H   LINE      CODE     ---       #359
      0100074FH   LINE      CODE     ---       #361
      01000764H   LINE      CODE     ---       #363
      01000766H   LINE      CODE     ---       #364
      0100079FH   LINE      CODE     ---       #365
      0100079FH   LINE      CODE     ---       #367
      0100079FH   LINE      CODE     ---       #368
      010007A2H   LINE      CODE     ---       #369
      010007B2H   LINE      CODE     ---       #370
      010007B5H   LINE      CODE     ---       #371
      010007B8H   LINE      CODE     ---       #373
      010007B8H   LINE      CODE     ---       #375
      010007BEH   LINE      CODE     ---       #376
      010007BEH   LINE      CODE     ---       #377
      010007C3H   LINE      CODE     ---       #378
      010007CAH   LINE      CODE     ---       #379
      010007CAH   LINE      CODE     ---       #381
      010007D5H   LINE      CODE     ---       #383
      010007E8H   LINE      CODE     ---       #385
      010007EDH   LINE      CODE     ---       #386
      010007F7H   LINE      CODE     ---       #387
      01000800H   LINE      CODE     ---       #388
      01000800H   LINE      CODE     ---       #389
      01000802H   LINE      CODE     ---       #390
      0100080BH   LINE      CODE     ---       #391
      01000810H   LINE      CODE     ---       #392
      01000810H   LINE      CODE     ---       #394
      0100081CH   LINE      CODE     ---       #395
      0100081FH   LINE      CODE     ---       #397
      0100081FH   LINE      CODE     ---       #398
      01000821H   LINE      CODE     ---       #399
      01000823H   LINE      CODE     ---       #400
      01000826H   LINE      CODE     ---       #402
      0100082EH   LINE      CODE     ---       #403
      0100082EH   LINE      CODE     ---       #404
      01000833H   LINE      CODE     ---       #405
      0100083DH   LINE      CODE     ---       #406
      01000843H   LINE      CODE     ---       #407
      0100084AH   LINE      CODE     ---       #408
      0100084AH   LINE      CODE     ---       #409
      0100084DH   LINE      CODE     ---       #411
      0100084DH   LINE      CODE     ---       #412
      01000850H   LINE      CODE     ---       #413
      01000853H   LINE      CODE     ---       #415
      01000856H   LINE      CODE     ---       #416
      01000859H   LINE      CODE     ---       #417
      0100085CH   LINE      CODE     ---       #419
      0100085CH   LINE      CODE     ---       #420
LX51 LINKER/LOCATER V4.66.97.0                                                        05/01/2025  09:54:43  PAGE 89


      0100085EH   LINE      CODE     ---       #421
      01000861H   LINE      CODE     ---       #422
      01000866H   LINE      CODE     ---       #423
      01000868H   LINE      CODE     ---       #424
      0100086BH   LINE      CODE     ---       #426
      0100086BH   LINE      CODE     ---       #427
      0100086DH   LINE      CODE     ---       #428
      0100086DH   LINE      CODE     ---       #429
      01000873H   LINE      CODE     ---       #431
      01000878H   LINE      CODE     ---       #432
      0100087AH   LINE      CODE     ---       #433
      0100087DH   LINE      CODE     ---       #435
      0100087DH   LINE      CODE     ---       #436
      0100087FH   LINE      CODE     ---       #437
      0100087FH   LINE      CODE     ---       #438
      01000885H   LINE      CODE     ---       #440
      0100088AH   LINE      CODE     ---       #441
      0100088CH   LINE      CODE     ---       #442
      0100088EH   LINE      CODE     ---       #444
      0100088EH   LINE      CODE     ---       #445
      01000890H   LINE      CODE     ---       #446
      01000893H   LINE      CODE     ---       #447
      01000896H   LINE      CODE     ---       #449
      0100089BH   LINE      CODE     ---       #450
      0100089DH   LINE      CODE     ---       #451
      0100089FH   LINE      CODE     ---       #453
      0100089FH   LINE      CODE     ---       #454
      010008A1H   LINE      CODE     ---       #455
      010008A7H   LINE      CODE     ---       #456
      010008ACH   LINE      CODE     ---       #458
      010008B1H   LINE      CODE     ---       #459
      010008B6H   LINE      CODE     ---       #460
      010008B8H   LINE      CODE     ---       #462
      010008B8H   LINE      CODE     ---       #463
      010008BBH   LINE      CODE     ---       #464
      010008C1H   LINE      CODE     ---       #465
      010008C6H   LINE      CODE     ---       #466
      010008DCH   LINE      CODE     ---       #467
      010008EAH   LINE      CODE     ---       #468
      010008ECH   LINE      CODE     ---       #470
      010008ECH   LINE      CODE     ---       #471
      010008EEH   LINE      CODE     ---       #472
      010008EEH   LINE      CODE     ---       #473
      010008F4H   LINE      CODE     ---       #475
      010008F6H   LINE      CODE     ---       #476
      010008F8H   LINE      CODE     ---       #478
      010008F8H   LINE      CODE     ---       #479
      010008FAH   LINE      CODE     ---       #480
      010008FAH   LINE      CODE     ---       #481
      01000900H   LINE      CODE     ---       #483
      01000902H   LINE      CODE     ---       #484
      01000904H   LINE      CODE     ---       #486
      01000904H   LINE      CODE     ---       #487
      0100090BH   LINE      CODE     ---       #488
      01000911H   LINE      CODE     ---       #489
      01000916H   LINE      CODE     ---       #491
      0100091BH   LINE      CODE     ---       #492
      0100091BH   LINE      CODE     ---       #493
      0100091BH   LINE      CODE     ---       #495
      01000930H   LINE      CODE     ---       #496
      01000940H   LINE      CODE     ---       #497
      01000940H   LINE      CODE     ---       #498
      01000940H   LINE      CODE     ---       #499
      01000968H   LINE      CODE     ---       #502
      01000968H   LINE      CODE     ---       #503
LX51 LINKER/LOCATER V4.66.97.0                                                        05/01/2025  09:54:43  PAGE 90


      01000968H   LINE      CODE     ---       #504
      01000968H   LINE      CODE     ---       #505
      01000977H   LINE      CODE     ---       #506
      01000977H   LINE      CODE     ---       #507
      01000986H   LINE      CODE     ---       #508
      01000992H   LINE      CODE     ---       #509
      0100099EH   LINE      CODE     ---       #510
      010009A8H   LINE      CODE     ---       #511
      010009A8H   LINE      CODE     ---       #513
      010009B7H   LINE      CODE     ---       #514
      010009C7H   LINE      CODE     ---       #515
      010009DAH   LINE      CODE     ---       #516
      010009DAH   LINE      CODE     ---       #517
      010009DCH   LINE      CODE     ---       #518
      010009E7H   LINE      CODE     ---       #519
      010009E7H   LINE      CODE     ---       #520
      010009E7H   LINE      CODE     ---       #521
      010009E7H   LINE      CODE     ---       #523
      010009E7H   LINE      CODE     ---       #524
      010009F1H   LINE      CODE     ---       #525
      01000A19H   LINE      CODE     ---       #526
      01000A26H   LINE      CODE     ---       #527
      01000A26H   LINE      CODE     ---       #529
      01000A4AH   LINE      CODE     ---       #531
      01000A4FH   LINE      CODE     ---       #532
      ---         BLOCKEND  ---      ---       LVL=0

      ---         MODULE    ---      ---       SELFTEST
      02000031H   PUBLIC    XDATA    BYTE      ErrCode
      01001B1EH   PUBLIC    CODE     ---       OutputFaultDetect
      01002CE9H   PUBLIC    CODE     ---       DisplayErrorIDHandler
      01003460H   PUBLIC    CODE     ---       DisplayErrorTIMHandler
      01003DEEH   PUBLIC    CODE     ---       ClearError
      01003BE3H   PUBLIC    CODE     ---       _ReportError
      010036E9H   PUBLIC    CODE     ---       IsErrorFatal
      0200002FH   SYMBOL    XDATA    INT       ErrDisplayIndex
      02000032H   SYMBOL    XDATA    CHAR      ShortDetectTIM
      01003FFBH   SYMBOL    CONST    ---       NonCriticalFault
      02000033H   SYMBOL    XDATA    CHAR      ShortBlankTIM
      01003BFBH   SYMBOL    CODE     ---       _ErrTIMCounter

      01003C13H   BLOCK     CODE     ---       LVL=0
      ---         BLOCKEND  ---      ---       LVL=0

      010036E9H   BLOCK     CODE     ---       LVL=0
      010036E9H   BLOCK     CODE     NEAR LAB  LVL=1
      00000007H   SYMBOL    DATA     CHAR      i
      ---         BLOCKEND  ---      ---       LVL=1
      010036E9H   LINE      CODE     ---       #23
      010036E9H   LINE      CODE     ---       #24
      010036E9H   LINE      CODE     ---       #26
      010036FCH   LINE      CODE     ---       #27
      0100371CH   LINE      CODE     ---       #29
      0100371DH   LINE      CODE     ---       #30
      ---         BLOCKEND  ---      ---       LVL=0

      01003BE3H   BLOCK     CODE     ---       LVL=0
      00000007H   SYMBOL    DATA     BYTE      Code
      01003BE3H   LINE      CODE     ---       #33
      01003BE3H   LINE      CODE     ---       #34
      01003BE3H   LINE      CODE     ---       #35
      01003BE8H   LINE      CODE     ---       #36
      01003BF5H   LINE      CODE     ---       #37
      01003BFAH   LINE      CODE     ---       #38
      ---         BLOCKEND  ---      ---       LVL=0
LX51 LINKER/LOCATER V4.66.97.0                                                        05/01/2025  09:54:43  PAGE 91



      01003DEEH   BLOCK     CODE     ---       LVL=0
      01003DEEH   LINE      CODE     ---       #41
      01003DEEH   LINE      CODE     ---       #42
      01003DEEH   LINE      CODE     ---       #43
      01003DF3H   LINE      CODE     ---       #44
      ---         BLOCKEND  ---      ---       LVL=0

      01003460H   BLOCK     CODE     ---       LVL=0
      01003460H   LINE      CODE     ---       #48
      01003460H   LINE      CODE     ---       #49
      01003460H   LINE      CODE     ---       #51
      0100346EH   LINE      CODE     ---       #53
      0100346EH   LINE      CODE     ---       #54
      0100347CH   LINE      CODE     ---       #55
      010034A1H   LINE      CODE     ---       #56
      010034A1H   LINE      CODE     ---       #57
      ---         BLOCKEND  ---      ---       LVL=0

      01002CE9H   BLOCK     CODE     ---       LVL=0
      01002CE9H   BLOCK     CODE     NEAR LAB  LVL=1
      00000006H   SYMBOL    DATA     INT       buf
      ---         BLOCKEND  ---      ---       LVL=1
      01002CE9H   LINE      CODE     ---       #60
      01002CE9H   LINE      CODE     ---       #61
      01002CE9H   LINE      CODE     ---       #64
      01002CFBH   LINE      CODE     ---       #65
      01002CFBH   LINE      CODE     ---       #66
      01002D0BH   LINE      CODE     ---       #70
      01002D34H   LINE      CODE     ---       #71
      01002D34H   LINE      CODE     ---       #72
      01002D43H   LINE      CODE     ---       #73
      01002D52H   LINE      CODE     ---       #74
      01002D52H   LINE      CODE     ---       #75
      01002D54H   LINE      CODE     ---       #76
      01002D57H   LINE      CODE     ---       #77
      ---         BLOCKEND  ---      ---       LVL=0

      01003BFBH   BLOCK     CODE     ---       LVL=0
      00000007H   SYMBOL    DATA     CHAR      buf
      00000005H   SYMBOL    DATA     CHAR      Count
      01003BFBH   LINE      CODE     ---       #79
      01003BFBH   LINE      CODE     ---       #80
      01003BFBH   LINE      CODE     ---       #82
      01003C12H   LINE      CODE     ---       #83
      ---         BLOCKEND  ---      ---       LVL=0

      01001B1EH   BLOCK     CODE     ---       LVL=0
      01001B1EH   BLOCK     CODE     NEAR LAB  LVL=1
      00000024H   SYMBOL    DATA     CHAR      buf
      00000025H   SYMBOL    DATA     CHAR      OErrID
      ---         BLOCKEND  ---      ---       LVL=1
      01001B1EH   LINE      CODE     ---       #86
      01001B1EH   LINE      CODE     ---       #87
      01001B1EH   LINE      CODE     ---       #89
      01001B29H   LINE      CODE     ---       #90
      01001B41H   LINE      CODE     ---       #92
      01001B41H   LINE      CODE     ---       #93
      01001B49H   LINE      CODE     ---       #95
      01001B65H   LINE      CODE     ---       #97
      01001B7FH   LINE      CODE     ---       #98
      01001B7FH   LINE      CODE     ---       #99
      01001B88H   LINE      CODE     ---       #100
      01001B8BH   LINE      CODE     ---       #101
      01001B8DH   LINE      CODE     ---       #103
LX51 LINKER/LOCATER V4.66.97.0                                                        05/01/2025  09:54:43  PAGE 92


      01001BA4H   LINE      CODE     ---       #104
      01001BA4H   LINE      CODE     ---       #105
      01001BADH   LINE      CODE     ---       #106
      01001BB0H   LINE      CODE     ---       #107
      01001BB2H   LINE      CODE     ---       #108
      01001BCEH   LINE      CODE     ---       #110
      01001BD9H   LINE      CODE     ---       #112
      01001BEBH   LINE      CODE     ---       #113
      01001BF9H   LINE      CODE     ---       #114
      01001BF9H   LINE      CODE     ---       #115
      01001BFDH   LINE      CODE     ---       #116
      01001C02H   LINE      CODE     ---       #117
      01001C02H   LINE      CODE     ---       #118
      01001C02H   LINE      CODE     ---       #119
      ---         BLOCKEND  ---      ---       LVL=0

      ---         MODULE    ---      ---       SOS
      01002B93H   PUBLIC    CODE     ---       SOSFSM
      01003DC7H   PUBLIC    CODE     ---       ResetSOSModule
      01003CF6H   PUBLIC    CODE     ---       SOSTIMHandler
      010039F6H   SYMBOL    CODE     ---       _SOSTIMDetect
      01003D9CH   SYMBOL    CODE     ---       _SOSFSM_Jump
      02000046H   SYMBOL    XDATA    CHAR      SOSTIM
      02000047H   SYMBOL    XDATA    BYTE      SOSState

      01003DD1H   BLOCK     CODE     ---       LVL=0
      ---         BLOCKEND  ---      ---       LVL=0

      01003D9CH   BLOCK     CODE     ---       LVL=0
      00000007H   SYMBOL    DATA     BYTE      State
      00000005H   SYMBOL    DATA     CHAR      Time
      01003D9CH   LINE      CODE     ---       #9
      01003D9CH   LINE      CODE     ---       #10
      01003D9CH   LINE      CODE     ---       #11
      01003DA2H   LINE      CODE     ---       #12
      01003DA4H   LINE      CODE     ---       #13
      01003DA7H   LINE      CODE     ---       #14
      ---         BLOCKEND  ---      ---       LVL=0

      01003CF6H   BLOCK     CODE     ---       LVL=0
      01003CF6H   LINE      CODE     ---       #17
      01003CF6H   LINE      CODE     ---       #18
      01003CF6H   LINE      CODE     ---       #20
      01003D07H   LINE      CODE     ---       #21
      ---         BLOCKEND  ---      ---       LVL=0

      01003DC7H   BLOCK     CODE     ---       LVL=0
      01003DC7H   LINE      CODE     ---       #24
      01003DC7H   LINE      CODE     ---       #25
      01003DC7H   LINE      CODE     ---       #26
      01003DCCH   LINE      CODE     ---       #27
      01003DD0H   LINE      CODE     ---       #28
      ---         BLOCKEND  ---      ---       LVL=0

      010039F6H   BLOCK     CODE     ---       LVL=0
      00000003H   SYMBOL    DATA     CHAR      Time
      010039F6H   LINE      CODE     ---       #30
      010039F8H   LINE      CODE     ---       #31
      010039F8H   LINE      CODE     ---       #33
      01003A18H   LINE      CODE     ---       #35
      01003A19H   LINE      CODE     ---       #36
      ---         BLOCKEND  ---      ---       LVL=0

      01002B93H   BLOCK     CODE     ---       LVL=0
      01002B93H   LINE      CODE     ---       #39
LX51 LINKER/LOCATER V4.66.97.0                                                        05/01/2025  09:54:43  PAGE 93


      01002B93H   LINE      CODE     ---       #40
      01002B93H   LINE      CODE     ---       #41
      01002BB8H   LINE      CODE     ---       #42
      01002BB8H   LINE      CODE     ---       #44
      01002BB8H   LINE      CODE     ---       #45
      01002BBDH   LINE      CODE     ---       #46
      01002BC1H   LINE      CODE     ---       #47
      01002BC3H   LINE      CODE     ---       #49
      01002BC3H   LINE      CODE     ---       #50
      01002BC3H   LINE      CODE     ---       #51
      01002BCDH   LINE      CODE     ---       #52
      01002BDBH   LINE      CODE     ---       #53
      01002BDFH   LINE      CODE     ---       #54
      01002BE1H   LINE      CODE     ---       #56
      01002BE1H   LINE      CODE     ---       #57
      01002BE5H   LINE      CODE     ---       #58
      01002BE7H   LINE      CODE     ---       #60
      01002BE7H   LINE      CODE     ---       #61
      01002BF1H   LINE      CODE     ---       #62
      01002BF5H   LINE      CODE     ---       #63
      01002BF7H   LINE      CODE     ---       #65
      01002BF7H   LINE      CODE     ---       #66
      01002BFBH   LINE      CODE     ---       #67
      01002BFDH   LINE      CODE     ---       #69
      01002BFDH   LINE      CODE     ---       #70
      01002C03H   LINE      CODE     ---       #71
      01002C03H   LINE      CODE     ---       #72
      01002C03H   LINE      CODE     ---       #74
      01002C05H   LINE      CODE     ---       #75
      ---         BLOCKEND  ---      ---       LVL=0

      ---         MODULE    ---      ---       LOWVOLTAGEPROT
      0200003EH   PUBLIC    XDATA    INT       TurboILIM
      01001762H   PUBLIC    CODE     ---       RampLowVoltHandler
      01003CBEH   PUBLIC    CODE     ---       RampRestoreLVProtToMax
      01003308H   PUBLIC    CODE     ---       _BatteryLowAlertProcess
      01002622H   PUBLIC    CODE     ---       TurboLVILIMProcess
      01003598H   PUBLIC    CODE     ---       CalcTurboILIM
      010037DFH   PUBLIC    CODE     ---       BattAlertTIMHandler
      0200003CH   SYMBOL    XDATA    CHAR      BattAlertTimer
      0200003DH   SYMBOL    XDATA    CHAR      RampCurrentRiseAttmTIM
      01003DF7H   SYMBOL    CODE     ---       StartBattAlertTimer

      0100318AH   BLOCK     CODE     ---       LVL=0
      ---         BLOCKEND  ---      ---       LVL=0

      01003DF7H   BLOCK     CODE     ---       LVL=0
      01003DF7H   LINE      CODE     ---       #13
      01003DF7H   LINE      CODE     ---       #14
      01003DF7H   LINE      CODE     ---       #16
      01003DFDH   LINE      CODE     ---       #17
      01003DFFH   LINE      CODE     ---       #18
      ---         BLOCKEND  ---      ---       LVL=0

      010037DFH   BLOCK     CODE     ---       LVL=0
      010037DFH   LINE      CODE     ---       #21
      010037DFH   LINE      CODE     ---       #22
      010037DFH   LINE      CODE     ---       #24
      010037F7H   LINE      CODE     ---       #26
      0100380CH   LINE      CODE     ---       #27
      ---         BLOCKEND  ---      ---       LVL=0

      01003598H   BLOCK     CODE     ---       LVL=0
      01003598H   LINE      CODE     ---       #30
      01003598H   LINE      CODE     ---       #31
LX51 LINKER/LOCATER V4.66.97.0                                                        05/01/2025  09:54:43  PAGE 94


      01003598H   LINE      CODE     ---       #32
      010035B2H   LINE      CODE     ---       #33
      010035CAH   LINE      CODE     ---       #34
      010035D1H   LINE      CODE     ---       #35
      ---         BLOCKEND  ---      ---       LVL=0

      01002622H   BLOCK     CODE     ---       LVL=0
      01002622H   LINE      CODE     ---       #38
      01002622H   LINE      CODE     ---       #39
      01002622H   LINE      CODE     ---       #41
      01002625H   LINE      CODE     ---       #42
      01002625H   LINE      CODE     ---       #43
      01002628H   LINE      CODE     ---       #44
      01002636H   LINE      CODE     ---       #46
      01002638H   LINE      CODE     ---       #47
      0100263FH   LINE      CODE     ---       #48
      01002641H   LINE      CODE     ---       #50
      01002644H   LINE      CODE     ---       #51
      01002644H   LINE      CODE     ---       #52
      01002652H   LINE      CODE     ---       #53
      01002661H   LINE      CODE     ---       #55
      01002668H   LINE      CODE     ---       #56
      01002672H   LINE      CODE     ---       #57
      01002672H   LINE      CODE     ---       #59
      0100267EH   LINE      CODE     ---       #60
      0100267EH   LINE      CODE     ---       #61
      010026A4H   LINE      CODE     ---       #62
      010026ACH   LINE      CODE     ---       #63
      010026ACH   LINE      CODE     ---       #64
      ---         BLOCKEND  ---      ---       LVL=0

      01003308H   BLOCK     CODE     ---       LVL=0
      00000025H   SYMBOL    DATA     BYTE      IsNeedToShutOff
      00000026H   SYMBOL    DATA     BYTE      ModeJump
      0100330CH   BLOCK     CODE     NEAR LAB  LVL=1
      00000027H   SYMBOL    DATA     CHAR      Thr
      00000020H.1 SYMBOL    BIT      BIT       IsChangingGear
      ---         BLOCKEND  ---      ---       LVL=1
      01003308H   LINE      CODE     ---       #67
      0100330CH   LINE      CODE     ---       #68
      0100330CH   LINE      CODE     ---       #72
      01003315H   LINE      CODE     ---       #73
      0100331AH   LINE      CODE     ---       #75
      0100331DH   LINE      CODE     ---       #76
      0100331DH   LINE      CODE     ---       #77
      01003320H   LINE      CODE     ---       #79
      0100332DH   LINE      CODE     ---       #83
      0100332DH   LINE      CODE     ---       #84
      01003330H   LINE      CODE     ---       #85
      01003333H   LINE      CODE     ---       #86
      01003333H   LINE      CODE     ---       #88
      0100333AH   LINE      CODE     ---       #89
      0100333AH   LINE      CODE     ---       #91
      01003345H   LINE      CODE     ---       #92
      01003345H   LINE      CODE     ---       #94
      0100334AH   LINE      CODE     ---       #95
      0100334AH   LINE      CODE     ---       #96
      0100334CH   LINE      CODE     ---       #97
      01003351H   LINE      CODE     ---       #98
      01003351H   LINE      CODE     ---       #99
      ---         BLOCKEND  ---      ---       LVL=0

      01003CBEH   BLOCK     CODE     ---       LVL=0
      01003CBEH   LINE      CODE     ---       #102
      01003CBEH   LINE      CODE     ---       #103
LX51 LINKER/LOCATER V4.66.97.0                                                        05/01/2025  09:54:43  PAGE 95


      01003CBEH   LINE      CODE     ---       #104
      01003CC4H   LINE      CODE     ---       #105
      01003CD0H   LINE      CODE     ---       #106
      ---         BLOCKEND  ---      ---       LVL=0

      01001762H   BLOCK     CODE     ---       LVL=0
      01001762H   LINE      CODE     ---       #109
      01001762H   LINE      CODE     ---       #110
      01001762H   LINE      CODE     ---       #111
      0100176EH   LINE      CODE     ---       #112
      0100176EH   LINE      CODE     ---       #113
      01001773H   LINE      CODE     ---       #114
      0100177AH   LINE      CODE     ---       #115
      0100177AH   LINE      CODE     ---       #116
      01001786H   LINE      CODE     ---       #117
      01001786H   LINE      CODE     ---       #118
      01001791H   LINE      CODE     ---       #119
      010017A4H   LINE      CODE     ---       #120
      010017AAH   LINE      CODE     ---       #121
      010017C8H   LINE      CODE     ---       #122
      010017D3H   LINE      CODE     ---       #123
      010017E2H   LINE      CODE     ---       #124
      010017EDH   LINE      CODE     ---       #125
      010017EEH   LINE      CODE     ---       #126
      010017F3H   LINE      CODE     ---       #127
      010017F4H   LINE      CODE     ---       #129
      010017F4H   LINE      CODE     ---       #130
      010017F9H   LINE      CODE     ---       #132
      010017FCH   LINE      CODE     ---       #133
      01001810H   LINE      CODE     ---       #134
      0100181EH   LINE      CODE     ---       #135
      0100181EH   LINE      CODE     ---       #136
      01001837H   LINE      CODE     ---       #137
      01001850H   LINE      CODE     ---       #138
      01001856H   LINE      CODE     ---       #139
      01001856H   LINE      CODE     ---       #140
      ---         BLOCKEND  ---      ---       LVL=0

      ---         MODULE    ---      ---       SPECIALMODE
      00000023H.3 PUBLIC    BIT      BIT       IsDisplayLocked
      0000005FH   PUBLIC    DATA     BYTE      SysMode
      0100283DH   PUBLIC    CODE     ---       _SpecialModeOperation
      010034A2H   PUBLIC    CODE     ---       DisplayTacModeEnabled
      01003960H   PUBLIC    CODE     ---       _LeaveSpecialMode
      01003352H   PUBLIC    CODE     ---       _EnterTurboStrobe
      010035D2H   PUBLIC    CODE     ---       _PowerToNormalMode
      01003C82H   SYMBOL    CODE     ---       EnterExitLock
      0200004DH   SYMBOL    XDATA    CHAR      ShowTacModeTIM
      01003D2BH   SYMBOL    CODE     ---       EnterExitTac

      010039ACH   BLOCK     CODE     ---       LVL=0
      ---         BLOCKEND  ---      ---       LVL=0

      01003C82H   BLOCK     CODE     ---       LVL=0
      01003C82H   LINE      CODE     ---       #17
      01003C82H   LINE      CODE     ---       #18
      01003C82H   LINE      CODE     ---       #19
      01003C88H   LINE      CODE     ---       #20
      01003C92H   LINE      CODE     ---       #21
      ---         BLOCKEND  ---      ---       LVL=0

      01003D2BH   BLOCK     CODE     ---       LVL=0
      01003D2BH   LINE      CODE     ---       #25
      01003D2BH   LINE      CODE     ---       #26
      01003D2BH   LINE      CODE     ---       #27
LX51 LINKER/LOCATER V4.66.97.0                                                        05/01/2025  09:54:43  PAGE 96


      01003D31H   LINE      CODE     ---       #28
      01003D3BH   LINE      CODE     ---       #29
      ---         BLOCKEND  ---      ---       LVL=0

      010035D2H   BLOCK     CODE     ---       LVL=0
      00000027H   SYMBOL    DATA     BYTE      Mode
      010035D2H   LINE      CODE     ---       #32
      010035D4H   LINE      CODE     ---       #33
      010035D4H   LINE      CODE     ---       #34
      010035EAH   LINE      CODE     ---       #35
      010035FEH   LINE      CODE     ---       #36
      01003601H   LINE      CODE     ---       #38
      0100360BH   LINE      CODE     ---       #39
      ---         BLOCKEND  ---      ---       LVL=0

      01003352H   BLOCK     CODE     ---       LVL=0
      00000026H   SYMBOL    DATA     CHAR      ClickCount
      01003352H   LINE      CODE     ---       #42
      01003354H   LINE      CODE     ---       #43
      01003354H   LINE      CODE     ---       #45
      0100335CH   LINE      CODE     ---       #46
      0100335CH   LINE      CODE     ---       #47
      01003370H   LINE      CODE     ---       #48
      01003378H   LINE      CODE     ---       #49
      01003378H   LINE      CODE     ---       #51
      01003382H   LINE      CODE     ---       #52
      01003382H   LINE      CODE     ---       #53
      01003394H   LINE      CODE     ---       #54
      01003397H   LINE      CODE     ---       #55
      01003397H   LINE      CODE     ---       #56
      ---         BLOCKEND  ---      ---       LVL=0

      01003960H   BLOCK     CODE     ---       LVL=0
      00000025H   SYMBOL    DATA     CHAR      ClickCount
      01003960H   LINE      CODE     ---       #59
      01003962H   LINE      CODE     ---       #60
      01003962H   LINE      CODE     ---       #61
      01003972H   LINE      CODE     ---       #62
      01003986H   LINE      CODE     ---       #63
      ---         BLOCKEND  ---      ---       LVL=0

      010034A2H   BLOCK     CODE     ---       LVL=0
      010034A2H   LINE      CODE     ---       #66
      010034A2H   LINE      CODE     ---       #67
      010034A2H   LINE      CODE     ---       #69
      010034BBH   LINE      CODE     ---       #71
      010034BBH   LINE      CODE     ---       #72
      010034C1H   LINE      CODE     ---       #73
      010034D5H   LINE      CODE     ---       #74
      010034DBH   LINE      CODE     ---       #75
      010034DBH   LINE      CODE     ---       #76
      010034DFH   LINE      CODE     ---       #77
      010034E1H   LINE      CODE     ---       #78
      010034E1H   LINE      CODE     ---       #79
      010034E1H   LINE      CODE     ---       #81
      010034E2H   LINE      CODE     ---       #82
      ---         BLOCKEND  ---      ---       LVL=0

      0100283DH   BLOCK     CODE     ---       LVL=0
      00000025H   SYMBOL    DATA     CHAR      Click
      0100283DH   LINE      CODE     ---       #85
      0100283FH   LINE      CODE     ---       #86
      0100283FH   LINE      CODE     ---       #88
      01002841H   LINE      CODE     ---       #90
      01002850H   LINE      CODE     ---       #91
LX51 LINKER/LOCATER V4.66.97.0                                                        05/01/2025  09:54:43  PAGE 97


      01002850H   LINE      CODE     ---       #93
      01002850H   LINE      CODE     ---       #94
      0100285BH   LINE      CODE     ---       #95
      01002866H   LINE      CODE     ---       #96
      01002866H   LINE      CODE     ---       #98
      01002866H   LINE      CODE     ---       #99
      01002871H   LINE      CODE     ---       #100
      01002879H   LINE      CODE     ---       #101
      01002881H   LINE      CODE     ---       #102
      01002882H   LINE      CODE     ---       #104
      01002882H   LINE      CODE     ---       #105
      01002882H   LINE      CODE     ---       #106
      0100288DH   LINE      CODE     ---       #107
      01002895H   LINE      CODE     ---       #108
      01002895H   LINE      CODE     ---       #109
      0100289BH   LINE      CODE     ---       #110
      0100289BH   LINE      CODE     ---       #111
      0100289EH   LINE      CODE     ---       #112
      010028A1H   LINE      CODE     ---       #113
      010028A3H   LINE      CODE     ---       #115
      010028A3H   LINE      CODE     ---       #116
      010028A6H   LINE      CODE     ---       #117
      010028A9H   LINE      CODE     ---       #118
      010028A9H   LINE      CODE     ---       #119
      010028A9H   LINE      CODE     ---       #120
      010028BBH   LINE      CODE     ---       #121
      010028BBH   LINE      CODE     ---       #122
      010028BBH   LINE      CODE     ---       #123
      ---         BLOCKEND  ---      ---       LVL=0

      ---         MODULE    ---      ---       BEACON
      01003139H   PUBLIC    CODE     ---       BeaconFSM
      01003E00H   PUBLIC    CODE     ---       BeaconFSM_TIMHandler
      01003D08H   PUBLIC    CODE     ---       BeaconFSM_Reset
      02000040H   SYMBOL    XDATA    BYTE      State
      02000041H   SYMBOL    XDATA    CHAR      BeaconOffTIM
      02000042H   SYMBOL    XDATA    CHAR      BeaconOnTIM

      01003CD1H   BLOCK     CODE     ---       LVL=0
      ---         BLOCKEND  ---      ---       LVL=0

      01003D08H   BLOCK     CODE     ---       LVL=0
      01003D08H   LINE      CODE     ---       #9
      01003D08H   LINE      CODE     ---       #10
      01003D08H   LINE      CODE     ---       #11
      01003D0EH   LINE      CODE     ---       #12
      01003D13H   LINE      CODE     ---       #13
      01003D19H   LINE      CODE     ---       #14
      ---         BLOCKEND  ---      ---       LVL=0

      01003E00H   BLOCK     CODE     ---       LVL=0
      01003E00H   LINE      CODE     ---       #17
      01003E00H   LINE      CODE     ---       #18
      01003E00H   LINE      CODE     ---       #19
      01003E08H   LINE      CODE     ---       #20
      ---         BLOCKEND  ---      ---       LVL=0

      01003139H   BLOCK     CODE     ---       LVL=0
      01003139H   LINE      CODE     ---       #23
      01003139H   LINE      CODE     ---       #24
      01003139H   LINE      CODE     ---       #25
      0100314AH   LINE      CODE     ---       #26
      0100314AH   LINE      CODE     ---       #27
      0100314AH   LINE      CODE     ---       #28
      01003152H   LINE      CODE     ---       #34
LX51 LINKER/LOCATER V4.66.97.0                                                        05/01/2025  09:54:43  PAGE 98


      01003152H   LINE      CODE     ---       #35
      01003158H   LINE      CODE     ---       #36
      0100315EH   LINE      CODE     ---       #37
      01003161H   LINE      CODE     ---       #39
      01003161H   LINE      CODE     ---       #40
      01003167H   LINE      CODE     ---       #41
      0100316FH   LINE      CODE     ---       #43
      01003175H   LINE      CODE     ---       #44
      0100317BH   LINE      CODE     ---       #45
      0100317DH   LINE      CODE     ---       #47
      0100317DH   LINE      CODE     ---       #48
      01003187H   LINE      CODE     ---       #49
      01003187H   LINE      CODE     ---       #50
      01003187H   LINE      CODE     ---       #52
      01003189H   LINE      CODE     ---       #53
      ---         BLOCKEND  ---      ---       LVL=0

      ---         MODULE    ---      ---       SYSCONFIG
      00000020H.2 PUBLIC    BIT      BIT       ?SaveSysConfig?BIT
      01001E66H   PUBLIC    CODE     ---       SaveSysConfig
      0100360CH   PUBLIC    CODE     ---       RestoreToMinimumSysCurrent
      010026ADH   PUBLIC    CODE     ---       ReadSysConfig
      000000C8H.0 SFRSYM    DATA     BIT       T2I0
      000000C3H   SFRSYM    DATA     BYTE      CCH1
      00000080H   SFRSYM    DATA     BYTE      P0
      000000C8H.1 SFRSYM    DATA     BIT       T2I1
      000000C5H   SFRSYM    DATA     BYTE      CCH2
      00000090H   SFRSYM    DATA     BYTE      P1
      000000C7H   SFRSYM    DATA     BYTE      CCH3
      000000ACH   SFRSYM    DATA     BYTE      P0EXTIE
      000000A0H   SFRSYM    DATA     BYTE      P2
      000000B4H   SFRSYM    DATA     BYTE      P0EXTIF
      000000B0H   SFRSYM    DATA     BYTE      P3
      000000ADH   SFRSYM    DATA     BYTE      P1EXTIE
      000000D0H.6 SFRSYM    DATA     BIT       AC
      000000FFH   SFRSYM    DATA     BYTE      MCTRL
      000000C2H   SFRSYM    DATA     BYTE      CCL1
      000000B5H   SFRSYM    DATA     BYTE      P1EXTIF
      000000AEH   SFRSYM    DATA     BYTE      P2EXTIE
      000000C4H   SFRSYM    DATA     BYTE      CCL2
      000000B6H   SFRSYM    DATA     BYTE      P2EXTIF
      000000AFH   SFRSYM    DATA     BYTE      P3EXTIE
      000000A8H.7 SFRSYM    DATA     BIT       EA
      000000C6H   SFRSYM    DATA     BYTE      CCL3
      000000B7H   SFRSYM    DATA     BYTE      P3EXTIF
      000000AAH   SFRSYM    DATA     BYTE      EIE2
      000000B2H   SFRSYM    DATA     BYTE      EIF2
      000000C8H.3 SFRSYM    DATA     BIT       T2R0
      000000C8H.4 SFRSYM    DATA     BIT       T2R1
      00000083H   SFRSYM    DATA     BYTE      DPH0
      000000A8H   SFRSYM    DATA     BYTE      IE
      00000085H   SFRSYM    DATA     BYTE      DPH1
      000000B9H   SFRSYM    DATA     BYTE      EIP1
      000000BAH   SFRSYM    DATA     BYTE      EIP2
      00000082H   SFRSYM    DATA     BYTE      DPL0
      00000084H   SFRSYM    DATA     BYTE      DPL1
      000000C8H.6 SFRSYM    DATA     BIT       I3FR
      000000CFH   SFRSYM    DATA     BYTE      T2IE
      00000096H   SFRSYM    DATA     BYTE      TA
      000000C9H   SFRSYM    DATA     BYTE      T2IF
      000000C8H.2 SFRSYM    DATA     BIT       T2CM
      000000DFH   SFRSYM    DATA     BYTE      ADCON0
      000000DEH   SFRSYM    DATA     BYTE      ADCON1
      000000E9H   SFRSYM    DATA     BYTE      ADCON2
      000000B8H   SFRSYM    DATA     BYTE      IP
LX51 LINKER/LOCATER V4.66.97.0                                                        05/01/2025  09:54:43  PAGE 99


      000000CEH   SFRSYM    DATA     BYTE      CCEN
      000000D0H.7 SFRSYM    DATA     BIT       CY
      000000D2H   SFRSYM    DATA     BYTE      T34MOD
      00000093H   SFRSYM    DATA     BYTE      DPX0
      00000095H   SFRSYM    DATA     BYTE      DPX1
      000000F4H   SFRSYM    DATA     BYTE      I2CMSA
      000000F5H   SFRSYM    DATA     BYTE      I2CMCR
      00000081H   SFRSYM    DATA     BYTE      SP
      000000D0H.2 SFRSYM    DATA     BIT       OV
      000000F2H   SFRSYM    DATA     BYTE      I2CSCR
      000000C8H.7 SFRSYM    DATA     BIT       T2PS
      000000D1H   SFRSYM    DATA     BYTE      ADCMPC
      000000CBH   SFRSYM    DATA     BYTE      RLDH
      000000D5H   SFRSYM    DATA     BYTE      ADCMPH
      000000CAH   SFRSYM    DATA     BYTE      RLDL
      00000080H.0 SFRSYM    DATA     BIT       P00
      00000090H.0 SFRSYM    DATA     BIT       P10
      00000080H.1 SFRSYM    DATA     BIT       P01
      000000F7H   SFRSYM    DATA     BYTE      I2CMTP
      00000099H   SFRSYM    DATA     BYTE      SBUF
      00000087H   SFRSYM    DATA     BYTE      PCON
      000000A0H.0 SFRSYM    DATA     BIT       P20
      00000090H.1 SFRSYM    DATA     BIT       P11
      00000080H.2 SFRSYM    DATA     BIT       P02
      000000F5H   SFRSYM    DATA     BYTE      I2CMSR
      000000B0H.0 SFRSYM    DATA     BIT       P30
      000000A0H.1 SFRSYM    DATA     BIT       P21
      00000090H.2 SFRSYM    DATA     BIT       P12
      00000080H.3 SFRSYM    DATA     BIT       P03
      000000D4H   SFRSYM    DATA     BYTE      ADCMPL
      000000B0H.1 SFRSYM    DATA     BIT       P31
      000000A0H.2 SFRSYM    DATA     BIT       P22
      00000090H.3 SFRSYM    DATA     BIT       P13
      00000080H.4 SFRSYM    DATA     BIT       P04
      000000B0H.2 SFRSYM    DATA     BIT       P32
      000000A0H.3 SFRSYM    DATA     BIT       P23
      00000090H.4 SFRSYM    DATA     BIT       P14
      00000080H.5 SFRSYM    DATA     BIT       P05
      00000089H   SFRSYM    DATA     BYTE      TMOD
      00000088H   SFRSYM    DATA     BYTE      TCON
      000000B0H.3 SFRSYM    DATA     BIT       P33
      000000A0H.4 SFRSYM    DATA     BIT       P24
      00000090H.5 SFRSYM    DATA     BIT       P15
      00000080H.6 SFRSYM    DATA     BIT       P06
      000000B0H.4 SFRSYM    DATA     BIT       P34
      000000A0H.5 SFRSYM    DATA     BIT       P25
      00000090H.6 SFRSYM    DATA     BIT       P16
      00000080H.7 SFRSYM    DATA     BIT       P07
      000000B0H.5 SFRSYM    DATA     BIT       P35
      000000A0H.6 SFRSYM    DATA     BIT       P26
      00000090H.7 SFRSYM    DATA     BIT       P17
      000000F2H   SFRSYM    DATA     BYTE      I2CSSR
      000000B0H.6 SFRSYM    DATA     BIT       P36
      000000A0H.7 SFRSYM    DATA     BIT       P27
      000000ECH   SFRSYM    DATA     BYTE      SPCR
      000000DDH   SFRSYM    DATA     BYTE      ADRESH
      000000B0H.7 SFRSYM    DATA     BIT       P37
      000000EEH   SFRSYM    DATA     BYTE      SPDR
      000000EFH   SFRSYM    DATA     BYTE      SSCR
      000000D3H   SFRSYM    DATA     BYTE      ADDLYL
      000000DCH   SFRSYM    DATA     BYTE      ADRESL
      00000088H.1 SFRSYM    DATA     BIT       IE0
      00000088H.3 SFRSYM    DATA     BIT       IE1
      0000008FH   SFRSYM    DATA     BYTE      CLKDIV
      000000F0H   SFRSYM    DATA     BYTE      B
LX51 LINKER/LOCATER V4.66.97.0                                                        05/01/2025  09:54:43  PAGE 100


      00000091H   SFRSYM    DATA     BYTE      FUNCCR
      0000009AH   SFRSYM    DATA     BYTE      P0TRIS
      000000A1H   SFRSYM    DATA     BYTE      P1TRIS
      000000A2H   SFRSYM    DATA     BYTE      P2TRIS
      000000E0H   SFRSYM    DATA     BYTE      ACC
      000000A3H   SFRSYM    DATA     BYTE      P3TRIS
      000000A8H.4 SFRSYM    DATA     BIT       ES0
      000000A8H.6 SFRSYM    DATA     BIT       ES1
      000000A8H.1 SFRSYM    DATA     BIT       ET0
      000000EDH   SFRSYM    DATA     BYTE      SPSR
      000000A8H.3 SFRSYM    DATA     BIT       ET1
      00000088H.5 SFRSYM    DATA     BIT       TF0
      000000A8H.5 SFRSYM    DATA     BIT       ET2
      00000098H.0 SFRSYM    DATA     BIT       RI0
      00000088H.7 SFRSYM    DATA     BIT       TF1
      0000008CH   SFRSYM    DATA     BYTE      TH0
      000000A8H.0 SFRSYM    DATA     BIT       EX0
      00000098H.1 SFRSYM    DATA     BIT       TI0
      00000088H.0 SFRSYM    DATA     BIT       IT0
      0000008DH   SFRSYM    DATA     BYTE      TH1
      000000A8H.2 SFRSYM    DATA     BIT       EX1
      00000088H.2 SFRSYM    DATA     BIT       IT1
      000000CDH   SFRSYM    DATA     BYTE      TH2
      000000D0H.0 SFRSYM    DATA     BIT       P
      000000DBH   SFRSYM    DATA     BYTE      TH3
      000000E3H   SFRSYM    DATA     BYTE      TH4
      0000008AH   SFRSYM    DATA     BYTE      TL0
      0000008BH   SFRSYM    DATA     BYTE      TL1
      00000098H.2 SFRSYM    DATA     BIT       U0RB8
      000000CCH   SFRSYM    DATA     BYTE      TL2
      000000B8H.4 SFRSYM    DATA     BIT       PS0
      000000DAH   SFRSYM    DATA     BYTE      TL3
      000000BFH   SFRSYM    DATA     BYTE      BUZCON
      000000B8H.6 SFRSYM    DATA     BIT       PS1
      000000B8H.1 SFRSYM    DATA     BIT       PT0
      00000098H.3 SFRSYM    DATA     BIT       U0TB8
      000000E2H   SFRSYM    DATA     BYTE      TL4
      000000D0H.3 SFRSYM    DATA     BIT       RS0
      000000B8H.3 SFRSYM    DATA     BIT       PT1
      000000D0H.4 SFRSYM    DATA     BIT       RS1
      000000B8H.5 SFRSYM    DATA     BIT       PT2
      00000098H.7 SFRSYM    DATA     BIT       U0SM0
      00000088H.4 SFRSYM    DATA     BIT       TR0
      000000BEH   SFRSYM    DATA     BYTE      BUZDIV
      00000098H.6 SFRSYM    DATA     BIT       U0SM1
      00000088H.6 SFRSYM    DATA     BIT       TR1
      000000B8H.0 SFRSYM    DATA     BIT       PX0
      00000098H.5 SFRSYM    DATA     BIT       U0SM2
      000000B8H.2 SFRSYM    DATA     BIT       PX1
      000000BDH   SFRSYM    DATA     BYTE      WUTCRH
      00000099H   SFRSYM    DATA     BYTE      SBUF0
      000000EBH   SFRSYM    DATA     BYTE      SBUF1
      000000BCH   SFRSYM    DATA     BYTE      WUTCRL
      00000098H   SFRSYM    DATA     BYTE      SCON0
      000000EAH   SFRSYM    DATA     BYTE      SCON1
      000000C8H   SFRSYM    DATA     BYTE      T2CON
      00000086H   SFRSYM    DATA     BYTE      DPS
      000000FEH   SFRSYM    DATA     BYTE      MDATA
      000000F6H   SFRSYM    DATA     BYTE      I2CMBUF
      000000F1H   SFRSYM    DATA     BYTE      I2CSADR
      00000098H.4 SFRSYM    DATA     BIT       U0REN
      000000C8H.5 SFRSYM    DATA     BIT       CAPES
      000000FDH   SFRSYM    DATA     BYTE      MADRH
      0000008EH   SFRSYM    DATA     BYTE      CKCON
      000000F3H   SFRSYM    DATA     BYTE      I2CSBUF
LX51 LINKER/LOCATER V4.66.97.0                                                        05/01/2025  09:54:43  PAGE 101


      000000FCH   SFRSYM    DATA     BYTE      MADRL
      000000D0H.5 SFRSYM    DATA     BIT       F0
      000000FBH   SFRSYM    DATA     BYTE      MLOCK
      000000D0H   SFRSYM    DATA     BYTE      PSW
      00000097H   SFRSYM    DATA     BYTE      WDCON
      02000043H   SYMBOL    XDATA    INT       CurrentIdx
      02000045H   SYMBOL    XDATA    BYTE      CurrentCRC
      01003751H   SYMBOL    CODE     ---       _PEC8Check
      010023CAH   SYMBOL    CODE     ---       _SearchSysConfig

      01003A1AH   BLOCK     CODE     ---       LVL=0
      ---         BLOCKEND  ---      ---       LVL=0

      01003751H   BLOCK     CODE     ---       LVL=0
      00000031H   SYMBOL    DATA     ---       DIN
      00000005H   SYMBOL    DATA     CHAR      Len
      01003757H   BLOCK     CODE     NEAR LAB  LVL=1
      00000007H   SYMBOL    DATA     BYTE      crcbuf
      00000006H   SYMBOL    DATA     CHAR      i
      ---         BLOCKEND  ---      ---       LVL=1
      01003751H   LINE      CODE     ---       #17
      01003757H   LINE      CODE     ---       #18
      01003757H   LINE      CODE     ---       #19
      01003759H   LINE      CODE     ---       #22
      01003759H   LINE      CODE     ---       #24
      0100376CH   LINE      CODE     ---       #26
      0100376EH   LINE      CODE     ---       #27
      0100376EH   LINE      CODE     ---       #28
      01003779H   LINE      CODE     ---       #29
      0100377DH   LINE      CODE     ---       #30
      0100377FH   LINE      CODE     ---       #31
      0100377FH   LINE      CODE     ---       #32
      01003781H   LINE      CODE     ---       #34
      01003781H   LINE      CODE     ---       #35
      ---         BLOCKEND  ---      ---       LVL=0

      010023CAH   BLOCK     CODE     ---       LVL=0
      0000002AH   SYMBOL    DATA     ---       ROMData
      010023D0H   BLOCK     CODE     NEAR LAB  LVL=1
      0000002DH   SYMBOL    DATA     CHAR      i
      0000002EH   SYMBOL    DATA     INT       Len
      ---         BLOCKEND  ---      ---       LVL=1
      010023CAH   LINE      CODE     ---       #38
      010023D0H   LINE      CODE     ---       #39
      010023D0H   LINE      CODE     ---       #41
      010023D5H   LINE      CODE     ---       #43
      010023DAH   LINE      CODE     ---       #45
      010023DAH   LINE      CODE     ---       #46
      010023E7H   LINE      CODE     ---       #47
      01002401H   LINE      CODE     ---       #48
      01002409H   LINE      CODE     ---       #49
      01002409H   LINE      CODE     ---       #50
      01002414H   LINE      CODE     ---       #52
      01002429H   LINE      CODE     ---       #53
      01002436H   LINE      CODE     ---       #55
      0100243AH   LINE      CODE     ---       #56
      ---         BLOCKEND  ---      ---       LVL=0

      010026ADH   BLOCK     CODE     ---       LVL=0
      010026ADH   BLOCK     CODE     NEAR LAB  LVL=1
      00000024H   SYMBOL    DATA     ---       ROMData
      00000020H.1 SYMBOL    BIT      BIT       KState
      ---         BLOCKEND  ---      ---       LVL=1
      010026ADH   LINE      CODE     ---       #59
      010026ADH   LINE      CODE     ---       #60
LX51 LINKER/LOCATER V4.66.97.0                                                        05/01/2025  09:54:43  PAGE 102


      010026ADH   LINE      CODE     ---       #63
      010026B2H   LINE      CODE     ---       #65
      010026C3H   LINE      CODE     ---       #67
      010026D6H   LINE      CODE     ---       #68
      010026D6H   LINE      CODE     ---       #70
      010026E0H   LINE      CODE     ---       #71
      010026E3H   LINE      CODE     ---       #72
      010026E9H   LINE      CODE     ---       #73
      010026F1H   LINE      CODE     ---       #75
      010026F7H   LINE      CODE     ---       #76
      01002705H   LINE      CODE     ---       #77
      01002707H   LINE      CODE     ---       #80
      01002707H   LINE      CODE     ---       #81
      0100270AH   LINE      CODE     ---       #82
      0100270DH   LINE      CODE     ---       #83
      01002710H   LINE      CODE     ---       #84
      01002712H   LINE      CODE     ---       #85
      01002717H   LINE      CODE     ---       #86
      0100271FH   LINE      CODE     ---       #87
      0100271FH   LINE      CODE     ---       #88
      01002721H   LINE      CODE     ---       #89
      01002726H   LINE      CODE     ---       #90
      0100272DH   LINE      CODE     ---       #91
      0100272FH   LINE      CODE     ---       #93
      01002732H   LINE      CODE     ---       #94
      01002732H   LINE      CODE     ---       #96
      ---         BLOCKEND  ---      ---       LVL=0

      0100360CH   BLOCK     CODE     ---       LVL=0
      0100360CH   BLOCK     CODE     NEAR LAB  LVL=1
      00000007H   SYMBOL    DATA     CHAR      i
      ---         BLOCKEND  ---      ---       LVL=1
      0100360CH   LINE      CODE     ---       #100
      0100360CH   LINE      CODE     ---       #101
      0100360CH   LINE      CODE     ---       #104
      01003612H   LINE      CODE     ---       #105
      0100362FH   LINE      CODE     ---       #106
      01003644H   LINE      CODE     ---       #107
      ---         BLOCKEND  ---      ---       LVL=0

      01001E66H   BLOCK     CODE     ---       LVL=0
      00000020H.2 SYMBOL    BIT      BIT       IsForceSave
      01001E66H   BLOCK     CODE     NEAR LAB  LVL=1
      0000002AH   SYMBOL    DATA     CHAR      i
      0000002BH   SYMBOL    DATA     ---       SavedData
      ---         BLOCKEND  ---      ---       LVL=1
      01001E66H   LINE      CODE     ---       #110
      01001E66H   LINE      CODE     ---       #111
      01001E66H   LINE      CODE     ---       #115
      01001E6BH   LINE      CODE     ---       #117
      01001E77H   LINE      CODE     ---       #118
      01001E7AH   LINE      CODE     ---       #119
      01001E80H   LINE      CODE     ---       #120
      01001E89H   LINE      CODE     ---       #121
      01001E96H   LINE      CODE     ---       #123
      01001EA0H   LINE      CODE     ---       #124
      01001EA0H   LINE      CODE     ---       #125
      01001EA2H   LINE      CODE     ---       #127
      01001EA2H   LINE      CODE     ---       #129
      01001EB6H   LINE      CODE     ---       #130
      01001EB6H   LINE      CODE     ---       #132
      01001EC5H   LINE      CODE     ---       #133
      01001ED3H   LINE      CODE     ---       #135
      01001EDAH   LINE      CODE     ---       #136
      01001EDAH   LINE      CODE     ---       #138
LX51 LINKER/LOCATER V4.66.97.0                                                        05/01/2025  09:54:43  PAGE 103


      01001F0AH   LINE      CODE     ---       #139
      01001F18H   LINE      CODE     ---       #140
      01001F1EH   LINE      CODE     ---       #141
      01001F23H   LINE      CODE     ---       #142
      ---         BLOCKEND  ---      ---       LVL=0

      ---         MODULE    ---      ---       LOCATELED
      02000049H   PUBLIC    XDATA    BYTE      LocLEDState
      01002B1EH   PUBLIC    CODE     ---       _LocateLED_Edit
      0100355DH   PUBLIC    CODE     ---       LocateLED_Enable
      010036B3H   PUBLIC    CODE     ---       LocateLED_ShowType
      010039D1H   PUBLIC    CODE     ---       LocateLED_TIMHandler
      000000C8H.0 SFRSYM    DATA     BIT       T2I0
      000000C3H   SFRSYM    DATA     BYTE      CCH1
      00000080H   SFRSYM    DATA     BYTE      P0
      000000C8H.1 SFRSYM    DATA     BIT       T2I1
      000000C5H   SFRSYM    DATA     BYTE      CCH2
      00000090H   SFRSYM    DATA     BYTE      P1
      000000C7H   SFRSYM    DATA     BYTE      CCH3
      000000ACH   SFRSYM    DATA     BYTE      P0EXTIE
      000000A0H   SFRSYM    DATA     BYTE      P2
      000000B4H   SFRSYM    DATA     BYTE      P0EXTIF
      000000B0H   SFRSYM    DATA     BYTE      P3
      000000ADH   SFRSYM    DATA     BYTE      P1EXTIE
      000000D0H.6 SFRSYM    DATA     BIT       AC
      000000FFH   SFRSYM    DATA     BYTE      MCTRL
      000000C2H   SFRSYM    DATA     BYTE      CCL1
      000000B5H   SFRSYM    DATA     BYTE      P1EXTIF
      000000AEH   SFRSYM    DATA     BYTE      P2EXTIE
      000000C4H   SFRSYM    DATA     BYTE      CCL2
      000000B6H   SFRSYM    DATA     BYTE      P2EXTIF
      000000AFH   SFRSYM    DATA     BYTE      P3EXTIE
      000000A8H.7 SFRSYM    DATA     BIT       EA
      000000C6H   SFRSYM    DATA     BYTE      CCL3
      000000B7H   SFRSYM    DATA     BYTE      P3EXTIF
      000000AAH   SFRSYM    DATA     BYTE      EIE2
      000000B2H   SFRSYM    DATA     BYTE      EIF2
      000000C8H.3 SFRSYM    DATA     BIT       T2R0
      000000C8H.4 SFRSYM    DATA     BIT       T2R1
      00000083H   SFRSYM    DATA     BYTE      DPH0
      000000A8H   SFRSYM    DATA     BYTE      IE
      00000085H   SFRSYM    DATA     BYTE      DPH1
      000000B9H   SFRSYM    DATA     BYTE      EIP1
      000000BAH   SFRSYM    DATA     BYTE      EIP2
      00000082H   SFRSYM    DATA     BYTE      DPL0
      00000084H   SFRSYM    DATA     BYTE      DPL1
      000000C8H.6 SFRSYM    DATA     BIT       I3FR
      000000CFH   SFRSYM    DATA     BYTE      T2IE
      00000096H   SFRSYM    DATA     BYTE      TA
      000000C9H   SFRSYM    DATA     BYTE      T2IF
      000000C8H.2 SFRSYM    DATA     BIT       T2CM
      000000DFH   SFRSYM    DATA     BYTE      ADCON0
      000000DEH   SFRSYM    DATA     BYTE      ADCON1
      000000E9H   SFRSYM    DATA     BYTE      ADCON2
      000000B8H   SFRSYM    DATA     BYTE      IP
      000000CEH   SFRSYM    DATA     BYTE      CCEN
      000000D0H.7 SFRSYM    DATA     BIT       CY
      000000D2H   SFRSYM    DATA     BYTE      T34MOD
      00000093H   SFRSYM    DATA     BYTE      DPX0
      00000095H   SFRSYM    DATA     BYTE      DPX1
      000000F4H   SFRSYM    DATA     BYTE      I2CMSA
      000000F5H   SFRSYM    DATA     BYTE      I2CMCR
      00000081H   SFRSYM    DATA     BYTE      SP
      000000D0H.2 SFRSYM    DATA     BIT       OV
      000000F2H   SFRSYM    DATA     BYTE      I2CSCR
LX51 LINKER/LOCATER V4.66.97.0                                                        05/01/2025  09:54:43  PAGE 104


      000000C8H.7 SFRSYM    DATA     BIT       T2PS
      000000D1H   SFRSYM    DATA     BYTE      ADCMPC
      000000CBH   SFRSYM    DATA     BYTE      RLDH
      000000D5H   SFRSYM    DATA     BYTE      ADCMPH
      000000CAH   SFRSYM    DATA     BYTE      RLDL
      00000080H.0 SFRSYM    DATA     BIT       P00
      00000090H.0 SFRSYM    DATA     BIT       P10
      00000080H.1 SFRSYM    DATA     BIT       P01
      000000F7H   SFRSYM    DATA     BYTE      I2CMTP
      00000099H   SFRSYM    DATA     BYTE      SBUF
      00000087H   SFRSYM    DATA     BYTE      PCON
      000000A0H.0 SFRSYM    DATA     BIT       P20
      00000090H.1 SFRSYM    DATA     BIT       P11
      00000080H.2 SFRSYM    DATA     BIT       P02
      000000F5H   SFRSYM    DATA     BYTE      I2CMSR
      000000B0H.0 SFRSYM    DATA     BIT       P30
      000000A0H.1 SFRSYM    DATA     BIT       P21
      00000090H.2 SFRSYM    DATA     BIT       P12
      00000080H.3 SFRSYM    DATA     BIT       P03
      000000D4H   SFRSYM    DATA     BYTE      ADCMPL
      000000B0H.1 SFRSYM    DATA     BIT       P31
      000000A0H.2 SFRSYM    DATA     BIT       P22
      00000090H.3 SFRSYM    DATA     BIT       P13
      00000080H.4 SFRSYM    DATA     BIT       P04
      000000B0H.2 SFRSYM    DATA     BIT       P32
      000000A0H.3 SFRSYM    DATA     BIT       P23
      00000090H.4 SFRSYM    DATA     BIT       P14
      00000080H.5 SFRSYM    DATA     BIT       P05
      00000089H   SFRSYM    DATA     BYTE      TMOD
      00000088H   SFRSYM    DATA     BYTE      TCON
      000000B0H.3 SFRSYM    DATA     BIT       P33
      000000A0H.4 SFRSYM    DATA     BIT       P24
      00000090H.5 SFRSYM    DATA     BIT       P15
      00000080H.6 SFRSYM    DATA     BIT       P06
      000000B0H.4 SFRSYM    DATA     BIT       P34
      000000A0H.5 SFRSYM    DATA     BIT       P25
      00000090H.6 SFRSYM    DATA     BIT       P16
      00000080H.7 SFRSYM    DATA     BIT       P07
      000000B0H.5 SFRSYM    DATA     BIT       P35
      000000A0H.6 SFRSYM    DATA     BIT       P26
      00000090H.7 SFRSYM    DATA     BIT       P17
      000000F2H   SFRSYM    DATA     BYTE      I2CSSR
      000000B0H.6 SFRSYM    DATA     BIT       P36
      000000A0H.7 SFRSYM    DATA     BIT       P27
      000000ECH   SFRSYM    DATA     BYTE      SPCR
      000000DDH   SFRSYM    DATA     BYTE      ADRESH
      000000B0H.7 SFRSYM    DATA     BIT       P37
      000000EEH   SFRSYM    DATA     BYTE      SPDR
      000000EFH   SFRSYM    DATA     BYTE      SSCR
      000000D3H   SFRSYM    DATA     BYTE      ADDLYL
      000000DCH   SFRSYM    DATA     BYTE      ADRESL
      00000088H.1 SFRSYM    DATA     BIT       IE0
      00000088H.3 SFRSYM    DATA     BIT       IE1
      0000008FH   SFRSYM    DATA     BYTE      CLKDIV
      000000F0H   SFRSYM    DATA     BYTE      B
      00000091H   SFRSYM    DATA     BYTE      FUNCCR
      0000009AH   SFRSYM    DATA     BYTE      P0TRIS
      000000A1H   SFRSYM    DATA     BYTE      P1TRIS
      000000A2H   SFRSYM    DATA     BYTE      P2TRIS
      000000E0H   SFRSYM    DATA     BYTE      ACC
      000000A3H   SFRSYM    DATA     BYTE      P3TRIS
      000000A8H.4 SFRSYM    DATA     BIT       ES0
      000000A8H.6 SFRSYM    DATA     BIT       ES1
      000000A8H.1 SFRSYM    DATA     BIT       ET0
      000000EDH   SFRSYM    DATA     BYTE      SPSR
LX51 LINKER/LOCATER V4.66.97.0                                                        05/01/2025  09:54:43  PAGE 105


      000000A8H.3 SFRSYM    DATA     BIT       ET1
      00000088H.5 SFRSYM    DATA     BIT       TF0
      000000A8H.5 SFRSYM    DATA     BIT       ET2
      00000098H.0 SFRSYM    DATA     BIT       RI0
      00000088H.7 SFRSYM    DATA     BIT       TF1
      0000008CH   SFRSYM    DATA     BYTE      TH0
      000000A8H.0 SFRSYM    DATA     BIT       EX0
      00000098H.1 SFRSYM    DATA     BIT       TI0
      00000088H.0 SFRSYM    DATA     BIT       IT0
      0000008DH   SFRSYM    DATA     BYTE      TH1
      000000A8H.2 SFRSYM    DATA     BIT       EX1
      00000088H.2 SFRSYM    DATA     BIT       IT1
      000000CDH   SFRSYM    DATA     BYTE      TH2
      000000D0H.0 SFRSYM    DATA     BIT       P
      000000DBH   SFRSYM    DATA     BYTE      TH3
      000000E3H   SFRSYM    DATA     BYTE      TH4
      0000008AH   SFRSYM    DATA     BYTE      TL0
      0000008BH   SFRSYM    DATA     BYTE      TL1
      00000098H.2 SFRSYM    DATA     BIT       U0RB8
      000000CCH   SFRSYM    DATA     BYTE      TL2
      000000B8H.4 SFRSYM    DATA     BIT       PS0
      000000DAH   SFRSYM    DATA     BYTE      TL3
      000000BFH   SFRSYM    DATA     BYTE      BUZCON
      000000B8H.6 SFRSYM    DATA     BIT       PS1
      000000B8H.1 SFRSYM    DATA     BIT       PT0
      00000098H.3 SFRSYM    DATA     BIT       U0TB8
      000000E2H   SFRSYM    DATA     BYTE      TL4
      000000D0H.3 SFRSYM    DATA     BIT       RS0
      000000B8H.3 SFRSYM    DATA     BIT       PT1
      000000D0H.4 SFRSYM    DATA     BIT       RS1
      000000B8H.5 SFRSYM    DATA     BIT       PT2
      00000098H.7 SFRSYM    DATA     BIT       U0SM0
      00000088H.4 SFRSYM    DATA     BIT       TR0
      000000BEH   SFRSYM    DATA     BYTE      BUZDIV
      00000098H.6 SFRSYM    DATA     BIT       U0SM1
      00000088H.6 SFRSYM    DATA     BIT       TR1
      000000B8H.0 SFRSYM    DATA     BIT       PX0
      00000098H.5 SFRSYM    DATA     BIT       U0SM2
      000000B8H.2 SFRSYM    DATA     BIT       PX1
      000000BDH   SFRSYM    DATA     BYTE      WUTCRH
      00000099H   SFRSYM    DATA     BYTE      SBUF0
      000000EBH   SFRSYM    DATA     BYTE      SBUF1
      000000BCH   SFRSYM    DATA     BYTE      WUTCRL
      00000098H   SFRSYM    DATA     BYTE      SCON0
      000000EAH   SFRSYM    DATA     BYTE      SCON1
      000000C8H   SFRSYM    DATA     BYTE      T2CON
      00000086H   SFRSYM    DATA     BYTE      DPS
      000000FEH   SFRSYM    DATA     BYTE      MDATA
      000000F6H   SFRSYM    DATA     BYTE      I2CMBUF
      000000F1H   SFRSYM    DATA     BYTE      I2CSADR
      00000098H.4 SFRSYM    DATA     BIT       U0REN
      000000C8H.5 SFRSYM    DATA     BIT       CAPES
      000000FDH   SFRSYM    DATA     BYTE      MADRH
      0000008EH   SFRSYM    DATA     BYTE      CKCON
      000000F3H   SFRSYM    DATA     BYTE      I2CSBUF
      000000FCH   SFRSYM    DATA     BYTE      MADRL
      000000D0H.5 SFRSYM    DATA     BIT       F0
      000000FBH   SFRSYM    DATA     BYTE      MLOCK
      000000D0H   SFRSYM    DATA     BYTE      PSW
      00000097H   SFRSYM    DATA     BYTE      WDCON
      00000060H   SYMBOL    DATA     BYTE      LocSetTimeOutTIM
      02000048H   SYMBOL    XDATA    CHAR      LocLEDTIM

      010039D1H   BLOCK     CODE     ---       LVL=0
      010039D1H   LINE      CODE     ---       #20
LX51 LINKER/LOCATER V4.66.97.0                                                        05/01/2025  09:54:43  PAGE 106


      010039D1H   LINE      CODE     ---       #21
      010039D1H   LINE      CODE     ---       #22
      010039E8H   LINE      CODE     ---       #23
      010039F5H   LINE      CODE     ---       #24
      ---         BLOCKEND  ---      ---       LVL=0

      010036B3H   BLOCK     CODE     ---       LVL=0
      010036B3H   LINE      CODE     ---       #27
      010036B3H   LINE      CODE     ---       #28
      010036B3H   LINE      CODE     ---       #29
      010036BBH   LINE      CODE     ---       #31
      010036CAH   LINE      CODE     ---       #32
      010036CAH   LINE      CODE     ---       #33
      010036CAH   LINE      CODE     ---       #34
      010036D0H   LINE      CODE     ---       #35
      010036D0H   LINE      CODE     ---       #36
      010036D5H   LINE      CODE     ---       #37
      010036DBH   LINE      CODE     ---       #38
      010036DBH   LINE      CODE     ---       #39
      010036DDH   LINE      CODE     ---       #40
      010036E0H   LINE      CODE     ---       #41
      010036E3H   LINE      CODE     ---       #42
      010036E6H   LINE      CODE     ---       #43
      010036E6H   LINE      CODE     ---       #45
      010036E8H   LINE      CODE     ---       #46
      ---         BLOCKEND  ---      ---       LVL=0

      0100355DH   BLOCK     CODE     ---       LVL=0
      0100355DH   BLOCK     CODE     NEAR LAB  LVL=1
      00000024H   SYMBOL    DATA     ---       LEDInitCfg
      ---         BLOCKEND  ---      ---       LVL=1
      0100355DH   LINE      CODE     ---       #49
      0100355DH   LINE      CODE     ---       #50
      0100355DH   LINE      CODE     ---       #53
      01003560H   LINE      CODE     ---       #54
      01003563H   LINE      CODE     ---       #55
      01003566H   LINE      CODE     ---       #57
      01003570H   LINE      CODE     ---       #58
      01003579H   LINE      CODE     ---       #60
      01003583H   LINE      CODE     ---       #61
      0100358CH   LINE      CODE     ---       #62
      ---         BLOCKEND  ---      ---       LVL=0

      01002B1EH   BLOCK     CODE     ---       LVL=0
      00000007H   SYMBOL    DATA     CHAR      ClickCount
      01002B1EH   LINE      CODE     ---       #65
      01002B1EH   LINE      CODE     ---       #66
      01002B1EH   LINE      CODE     ---       #67
      01002B2CH   LINE      CODE     ---       #68
      01002B2CH   LINE      CODE     ---       #70
      01002B2CH   LINE      CODE     ---       #72
      01002B3BH   LINE      CODE     ---       #73
      01002B40H   LINE      CODE     ---       #74
      01002B43H   LINE      CODE     ---       #75
      01002B46H   LINE      CODE     ---       #76
      01002B48H   LINE      CODE     ---       #78
      01002B48H   LINE      CODE     ---       #79
      01002B60H   LINE      CODE     ---       #80
      01002B64H   LINE      CODE     ---       #81
      01002B64H   LINE      CODE     ---       #83
      01002B68H   LINE      CODE     ---       #84
      01002B6BH   LINE      CODE     ---       #85
      01002B6BH   LINE      CODE     ---       #86
      01002B70H   LINE      CODE     ---       #87
      01002B76H   LINE      CODE     ---       #88
LX51 LINKER/LOCATER V4.66.97.0                                                        05/01/2025  09:54:43  PAGE 107


      01002B7CH   LINE      CODE     ---       #89
      01002B81H   LINE      CODE     ---       #90
      01002B83H   LINE      CODE     ---       #92
      01002B83H   LINE      CODE     ---       #93
      01002B88H   LINE      CODE     ---       #94
      01002B8BH   LINE      CODE     ---       #95
      01002B90H   LINE      CODE     ---       #96
      01002B90H   LINE      CODE     ---       #97
      01002B90H   LINE      CODE     ---       #99
      01002B92H   LINE      CODE     ---       #100
      ---         BLOCKEND  ---      ---       LVL=0

      ---         MODULE    ---      ---       STROBE
      01003E09H   PUBLIC    CODE     ---       StrobeOutputHandler
      0100371EH   PUBLIC    CODE     ---       RandStrobeHandler
      01003DDBH   PUBLIC    CODE     ---       ResetStrobeModule
      00000023H.4 SYMBOL    BIT      BIT       StrobeFlagSel
      01003FECH   SYMBOL    CONST    ---       StrobeSeq
      0200004AH   SYMBOL    XDATA    CHAR      StrobeSelIdx
      0200004BH   SYMBOL    XDATA    CHAR      StrobeCounter

      01003DDBH   BLOCK     CODE     ---       LVL=0
      01003DDBH   LINE      CODE     ---       #17
      01003DDBH   LINE      CODE     ---       #18
      01003DDBH   LINE      CODE     ---       #19
      01003DDDH   LINE      CODE     ---       #20
      01003DE2H   LINE      CODE     ---       #21
      01003DE4H   LINE      CODE     ---       #22
      ---         BLOCKEND  ---      ---       LVL=0

      0100371EH   BLOCK     CODE     ---       LVL=0
      0100371EH   LINE      CODE     ---       #25
      0100371EH   LINE      CODE     ---       #26
      0100371EH   LINE      CODE     ---       #27
      01003727H   LINE      CODE     ---       #29
      01003727H   LINE      CODE     ---       #31
      01003741H   LINE      CODE     ---       #32
      0100374EH   LINE      CODE     ---       #34
      01003750H   LINE      CODE     ---       #35
      01003750H   LINE      CODE     ---       #36
      ---         BLOCKEND  ---      ---       LVL=0

      01003E09H   BLOCK     CODE     ---       LVL=0
      01003E09H   LINE      CODE     ---       #39
      01003E09H   LINE      CODE     ---       #40
      01003E09H   LINE      CODE     ---       #42
      01003E11H   LINE      CODE     ---       #43
      ---         BLOCKEND  ---      ---       LVL=0

      ---         MODULE    ---      ---       ?C?FPADD
      01000045H   PUBLIC    CODE     ---       ?C?FPADD
      01000041H   PUBLIC    CODE     ---       ?C?FPSUB

      ---         MODULE    ---      ---       ?C?FPMUL
      01000136H   PUBLIC    CODE     ---       ?C?FPMUL

      ---         MODULE    ---      ---       ?C?FPDIV
      0100023FH   PUBLIC    CODE     ---       ?C?FPDIV

      ---         MODULE    ---      ---       ?C?FPCMP
      010002DEH   PUBLIC    CODE     ---       ?C?FPCMP
      010002DCH   PUBLIC    CODE     ---       ?C?FPCMP3

      ---         MODULE    ---      ---       ?C?FCAST
      0100035FH   PUBLIC    CODE     ---       ?C?FCASTC
LX51 LINKER/LOCATER V4.66.97.0                                                        05/01/2025  09:54:43  PAGE 108


      0100035AH   PUBLIC    CODE     ---       ?C?FCASTI
      01000355H   PUBLIC    CODE     ---       ?C?FCASTL

      ---         MODULE    ---      ---       ?C?CASTF
      01000393H   PUBLIC    CODE     ---       ?C?CASTF

      ---         MODULE    ---      ---       ?C?FPGETOPN
      010003CAH   PUBLIC    CODE     ---       ?C?FPGETOPN2
      010003FFH   PUBLIC    CODE     ---       ?C?FPNANRESULT
      01000409H   PUBLIC    CODE     ---       ?C?FPOVERFLOW
      010003E1H   PUBLIC    CODE     ---       ?C?FPRESULT
      010003F5H   PUBLIC    CODE     ---       ?C?FPRESULT2
      01000406H   PUBLIC    CODE     ---       ?C?FPUNDERFLOW

      ---         MODULE    ---      ---       ?C_INIT
      010024BAH   PUBLIC    CODE     ---       ?C_START

      ---         MODULE    ---      ---       ?C?SCDIV
      01000414H   PUBLIC    CODE     ---       ?C?SCDIV

      ---         MODULE    ---      ---       ?C?CLDPTR
      01000436H   PUBLIC    CODE     ---       ?C?CLDPTR

      ---         MODULE    ---      ---       ?C?CLDOPTR
      0100044FH   PUBLIC    CODE     ---       ?C?CLDOPTR

      ---         MODULE    ---      ---       ?C?CSTPTR
      0100047CH   PUBLIC    CODE     ---       ?C?CSTPTR

      ---         MODULE    ---      ---       ?C?IMUL
      0100048EH   PUBLIC    CODE     ---       ?C?IMUL

      ---         MODULE    ---      ---       ?C?SIDIV
      010004A0H   PUBLIC    CODE     ---       ?C?SIDIV

      ---         MODULE    ---      ---       ?C?ILDOPTR
      010004D6H   PUBLIC    CODE     ---       ?C?ILDOPTR

      ---         MODULE    ---      ---       ?C?ISTPTR
      0100050EH   PUBLIC    CODE     ---       ?C?ISTPTR

      ---         MODULE    ---      ---       ?C?LMUL
      0100052DH   PUBLIC    CODE     ---       ?C?LMUL

      ---         MODULE    ---      ---       ?C?ULDIV
      010005B8H   PUBLIC    CODE     ---       ?C?ULDIV

      ---         MODULE    ---      ---       ?C?SLDIV
      01003398H   PUBLIC    CODE     ---       ?C?SLDIV

      ---         MODULE    ---      ---       ?C?LNEG
      0100064AH   PUBLIC    CODE     ---       ?C?LNEG

      ---         MODULE    ---      ---       ?C?SLCMP
      01000658H   PUBLIC    CODE     ---       ?C?SLCMP

      ---         MODULE    ---      ---       ?C?ULCMP
      0100066EH   PUBLIC    CODE     ---       ?C?ULCMP

      ---         MODULE    ---      ---       ?C?ULSHR
      0100067FH   PUBLIC    CODE     ---       ?C?ULSHR

      ---         MODULE    ---      ---       ?C?LLDCODE
      01000692H   PUBLIC    CODE     ---       ?C?LLDCODE

LX51 LINKER/LOCATER V4.66.97.0                                                        05/01/2025  09:54:43  PAGE 109


      ---         MODULE    ---      ---       ?C?LSTXDATA
      010006A2H   PUBLIC    CODE     ---       ?C?LSTXDATA

      ---         MODULE    ---      ---       ?C?LSTKXDATA
      010006AEH   PUBLIC    CODE     ---       ?C?LSTKXDATA

      ---         MODULE    ---      ---       ?C?OFFXADD
      010006DFH   PUBLIC    CODE     ---       ?C?OFFXADD

      ---         MODULE    ---      ---       ?C?UIDIV
      010006EBH   PUBLIC    CODE     ---       ?C?UIDIV

Program Size: data=97.5 xdata=78 const=477 code=15902
LX51 RUN COMPLETE.  0 WARNING(S),  0 ERROR(S)
